(dp0
V19492
p1
(VPaul's Pumpkin Bars
p2
Vhttp://static.food2fork.com/202174dca9.jpg
p3
Vhttp://allrecipes.com/Recipe/Pauls-Pumpkin-Bars/Detail.aspx
p4
(lp5
S'eggs'
p6
aS'sugar'
p7
aVvegetable oil
p8
aVpumpkin puree
p9
aS'flour'
p10
aVbaking powder
p11
aVbaking soda
p12
aVcinnamon
p13
aVsalt
p14
aVnbsp
p15
aVcream cheese
p16
aS'butter'
p17
aVvanilla extract
p18
atp19
sV73da7e
p20
(VGlazed Vanilla Bean Scones
p21
Vhttp://static.food2fork.com/vanillabeansconesfd10.jpg
p22
Vhttp://www.mybakingaddiction.com/glazed-vanilla-bean-scones/
p23
(lp24
S'corn on the cob'
p25
ag7
ag10
aVbaking powder
p26
aVbaking soda
p27
aVsalt
p28
ag17
aS'beans'
p29
ag6
atp30
sVc3df60
p31
(VMocha Pudding Cake Recipe
p32
Vhttp://static.food2fork.com/14327_mocha_pudding_cake_6007adf.jpg
p33
Vhttp://www.chow.com/recipes/14327-mocha-pudding-cake
p34
(lp35
g10
aVunsweetened cocoa powder
p36
aVbaking powder
p37
aVkosher salt
p38
ag7
aS'milk'
p39
ag17
ag6
aVvanilla extract
p40
aS'coffee'
p41
atp42
sVd77c83
p43
(VClassic scones with jam &amp; clotted cream
p44
Vhttp://static.food2fork.com/4622_MEDIUMc078.jpg
p45
Vhttp://www.bbcgoodfood.com/recipes/4622/classic-scones-with-jam-and-clotted-cream
p46
(lp47
g10
aVsalt
p48
aVbaking powder
p49
ag17
ag7
ag39
aVvanilla extract
p50
aS'lemons'
p51
ag6
aVjam
p52
aVclotted cream
p53
atp54
sV60e21a
p55
(VGiant M&amp;M Cookies
p56
Vhttp://static.food2fork.com/MMCookiesd7cb.jpg
p57
Vhttp://whatsgabycooking.com/giant-mm-cookies/
p58
(lp59
g17
ag7
ag6
aVpure vanilla extract
p60
ag10
aVsalt
p61
aVbaking soda
p62
aVbaking powder
p63
aS'cabbage'
p64
atp65
sV1158c9
p66
(VGreek Yogurt Biscuits
p67
Vhttp://static.food2fork.com/GreekYogurtBiscuits26b47.jpg
p68
Vhttp://www.twopeasandtheirpod.com/greek-yogurt-biscuits/
p69
(lp70
g10
ag7
aVbaking powder
p71
aVbaking soda
p72
aVsalt
p73
ag17
aS'yogurt'
p74
ag6
aNatp75
sVbe2159
p76
(VAll Recipes
p77
Vhttp://static.food2fork.com/peanutbutterbananahoneyoatchocolatechipcookies270x37214cf.jpg
p78
Vhttp://cookieandkate.com/2014/peanut-butter-banana-honey-oat-chocolate-chip-cookies/
p79
(lp80
Vhoney real maple syrup
p81
aS'peanut butter'
p82
aS'bananas'
p83
ag17
ag6
aVvanilla extract
p84
aVbaking soda
p85
aVbaking powder
p86
aVfine-grain sea salt
p87
aVcinnamon
p88
aVold-fashioned rolled oat
p89
aS'potato chips'
p90
aVoptional sprinkle
p91
aVoptional flaky sea salt
p92
atp93
sV53ea30
p94
(VStrawberry Cheesecake Muffins
p95
Vhttp://static.food2fork.com/StrawberryCheesecakeMuffins541d8.jpg
p96
Vhttp://www.twopeasandtheirpod.com/strawberry-cheesecake-muffins/
p97
(lp98
NaS'crackers'
p99
ag10
ag7
ag17
aVcream cheese
p100
ag51
aVbaking powder
p101
aVsalt
p102
aVcanola oil vegetable oil
p103
ag6
aVbuttermilk
p104
aVvanilla extract
p105
aVstrawberry
p106
atp107
sVc6cd5e
p108
(VMaple-Walnut Butter Cookies
p109
Vhttp://static.food2fork.com/205xNxmaplewalnutbuttercookiesgiftboxe8c6.jpg.pagespeed.ic.ILxcupRxR.jpg
p110
Vhttp://www.healthy-delicious.com/2013/12/maple-walnut-butter-cookies-recipe/
p111
(lp112
Vwalnut
p113
aVolive oil
p114
ag17
ag7
aVmaple syrup
p115
ag6
aVvanilla
p116
ag10
aVbaking soda
p117
aVbaking powder
p118
aVkosher salt
p119
atp120
sVde88d3
p121
(VChocolate Lover's Chocolate Chip Cookies
p122
Vhttp://static.food2fork.com/ChocolateLoversChocolateChipCookie5f573.jpg
p123
Vhttp://www.twopeasandtheirpod.com/chocolate-lovers-chocolate-chip-cookies/
p124
(lp125
g10
aVbaking powder
p126
aVbaking soda
p127
aVsea salt
p128
ag17
ag7
ag6
aVvanilla extract
p129
aVchocolate chunk
p130
ag90
aVchocolate
p131
aVextra sea salt sprinkling cooky
p132
atp133
sVfae219
p134
(VZucchini Muffins with Nutella Swirl
p135
Vhttp://static.food2fork.com/IMG_78101180x18010ad.jpg
p136
Vhttp://www.aspicyperspective.com/2011/06/zucchini-nutella-swirl-muffins.html
p137
(lp138
g10
aVsalt
p139
aVbaking soda
p140
aVbaking powder
p141
aVcinnamon
p142
ag17
ag7
ag6
aVzucchini
p143
ag51
aVnutella
p144
atp145
sV54509
p146
(VChocolate Chip Coffee Cake
p147
Vhttp://static.food2fork.com/chocolatechipcoffeecake14ac.jpg
p148
Vhttp://www.twopeasandtheirpod.com/chocolate-chip-coffee-cake/
p149
(lp150
g10
aVbaking powder
p151
aVbaking soda
p152
aVsalt
p153
ag7
ag17
ag6
aVsour cream
p154
aVvanilla extract
p155
ag90
aNaVcinnamon
p156
atp157
sV37042
p158
(VSuper Easy, Super Moist Chocolate Cupcakes
p159
Vhttp://static.food2fork.com/easiestchocolatecupcakes300x200dafa92c8.jpg
p160
Vhttp://www.simplyrecipes.com/recipes/super_easy_super_moist_chocolate_cupcakes/
p161
(lp162
g10
aVunsweetened cocoa powder
p163
ag7
aVbaking soda
p164
aVsalt
p165
ag41
aVwhite vinegar
p166
aVvanilla extract
p167
aVolive oil
p168
ag17
ag39
atp169
sV3990
p170
(VBlack Forest Cake I
p171
Vhttp://static.food2fork.com/29964277.jpg
p172
Vhttp://allrecipes.com/Recipe/Black-Forest-Cake-I/Detail.aspx
p173
(lp174
g10
ag7
aVunsweetened cocoa powder
p175
aVbaking powder
p176
aVbaking soda
p177
aVsalt
p178
ag6
ag39
aVvegetable oil
p179
aVvanilla extract
p180
aVsour cherry
p181
aVcornstarch
p182
aVheavy whipping cream
p183
atp184
sV76105a
p185
(VChocolate Zucchini Coconut Cake
p186
Vhttp://static.food2fork.com/ChocolateZucchiniCoconutCake1f25b.jpg
p187
Vhttp://www.twopeasandtheirpod.com/chocolate-zucchini-coconut-cake/
p188
(lp189
Nag10
aVdutch-process cocoa
p190
aVbaking soda
p191
aVbaking powder
p192
aVsalt
p193
ag17
aVcoconut oil
p194
ag7
aVvanilla extract
p195
ag6
ag74
aVzucchini
p196
aVsweetened flaked coconut
p197
ag90
aVcoconut extract
p198
aVtoasted coconut
p199
atp200
sV49113
p201
(VTres Leches Cake
p202
Vhttp://static.food2fork.com/treslechescake6460e65.jpg
p203
Vhttp://www.bonappetit.com/recipes/2012/07/tres-leches-cake
p204
(lp205
g17
ag10
aVbaking powder
p206
aVcinnamon
p207
ag6
ag7
aVvanilla extract
p208
ag39
aVheavy cream
p209
aVdark rum
p210
atp211
sV54282
p212
(VChocolate Sour Cream Bundt Cake
p213
Vhttp://static.food2fork.com/ChocolateSourCreamBundtCake46887.jpg
p214
Vhttp://www.twopeasandtheirpod.com/chocolate-sour-cream-bundt-cake/
p215
(lp216
Nag17
aVcocoa powder
p217
aVkosher salt
p218
ag10
ag7
aVbaking soda
p219
ag6
aVsour cream
p220
aVpure vanilla extract
p221
aVbittersweet chocolate
p222
aS'corn'
p223
aVheavy cream
p224
atp225
sV64331c
p226
(VCornmeal Waffles with Blackberry Compote
p227
Vhttp://static.food2fork.com/CornmealWaffleswithBlackberryCompote1ce48.jpg
p228
Vhttp://www.twopeasandtheirpod.com/cornmeal-waffles-with-blackberry-compote/
p229
(lp230
Nag10
aVyellow stone cornmeal
p231
aVbakding powder
p232
aVbaking soda
p233
aVsalt
p234
aVbuttermilk
p235
ag6
aVhoney
p236
aVvanilla extract
p237
ag17
aVblackberry
p238
ag7
atp239
sV54324
p240
(VPumpkin Cinnamon Streusel Coffee Cake
p241
Vhttp://static.food2fork.com/pumpkincinnamonstreuselcoffeecake3430e.jpg
p242
Vhttp://www.twopeasandtheirpod.com/pumpkin-cinnamon-streusel-coffee-cake/
p243
(lp244
Nag10
ag7
aVcinnamon
p245
aVsalt
p246
ag17
aVbaking powder
p247
aVbaking soda
p248
aVginger
p249
aVnutmeg
p250
aVallspice
p251
ag6
aVvanilla extract
p252
aVpumpkin puree
p253
ag74
ag39
atp254
sV54327
p255
(VPumpkin Toffee Cookies with Salted Caramel Glaze
p256
Vhttp://static.food2fork.com/pumpkintoffeecookies327b7.jpg
p257
Vhttp://www.twopeasandtheirpod.com/pumpkin-toffee-cookies-with-salted-caramel-glaze/
p258
(lp259
g10
aVbaking soda
p260
aVbaking powder
p261
aVcinnamon
p262
aVnutmeg
p263
aVall-spice
p264
aVsalt
p265
ag17
ag7
aVcanned pumpkin puree
p266
ag6
aVvanilla extract
p267
aS'hard candy'
p268
aNaVsalted caramel sauce
p269
aVrecipe here
p270
aVyou use store bought
p271
ag39
atp272
sV54289
p273
(VChewy Coconut Oatmeal Cookies
p274
Vhttp://static.food2fork.com/ChewyCoconutOatmealCookies3a8a3.jpg
p275
Vhttp://www.twopeasandtheirpod.com/chewy-coconut-oatmeal-cookies/
p276
(lp277
g10
aVbaking soda
p278
aVbaking powder
p279
aVsalt
p280
ag7
ag6
aVcoconut oil
p281
aVvanilla extract
p282
aNaVquick oat
p283
atp284
sV5c51de
p285
(VCoconut Raspberry Waffles with Coconut Whipped Cream
p286
Vhttp://static.food2fork.com/coconutraspberrywaffles2f34e.jpg
p287
Vhttp://www.twopeasandtheirpod.com/coconut-raspberry-waffles-with-coconut-whipped-cream/
p288
(lp289
g10
ag7
aVbaking powder
p290
aVsalt
p291
ag39
aVvanilla extract
p292
ag6
aVcoconut oil
p293
aVcoconut
p294
aVraspberry
p295
aNatp296
sV34225f
p297
(VCarrot cake
p298
Vhttp://static.food2fork.com/4425_MEDIUMc880.jpg
p299
Vhttp://www.bbcgoodfood.com/recipes/4425/carrot-cake
p300
(lp301
g10
aVcinnamon
p302
aVbaking powder
p303
aVbicarbonate soda
p304
ag7
ag6
aVoil
p305
aS'oranges'
p306
ag51
aS'carrots'
p307
aVwalnut
p308
aVtin pineapple piece
p309
ag17
aVcream cheese
p310
atp311
sV9d68c0
p312
(VEggnog Coffee Cake Muffins
p313
Vhttp://static.food2fork.com/EggnogCoffeeCakeMuffins51b418.jpg
p314
Vhttp://www.twopeasandtheirpod.com/eggnog-coffee-cake-muffins/
p315
(lp316
Nag10
ag7
aVcinnamon
p317
aVnutmeg
p318
ag17
aVbaking powder
p319
aVsalt
p320
aVeggnog
p321
ag6
aVvanilla extract
p322
atp323
sV0639bc
p324
(VPineapple upside-down cake
p325
Vhttp://static.food2fork.com/5562_MEDIUMfcb4.jpg
p326
Vhttp://www.bbcgoodfood.com/recipes/5562/pineapple-upsidedown-cake
p327
(lp328
g17
ag7
aVpineapple ring syrup
p329
aVglac cherry
p330
ag10
aVbaking powder
p331
aVvanilla extract
p332
ag6
atp333
sV4327
p334
(VBlueberry Zucchini Bread
p335
Vhttp://static.food2fork.com/2526289a56.jpg
p336
Vhttp://allrecipes.com/Recipe/Blueberry-Zucchini-Bread/Detail.aspx
p337
(lp338
g6
aVvegetable oil
p339
aVvanilla extract
p340
ag7
aVzucchini
p341
ag10
aVsalt
p342
aVbaking powder
p343
aVbaking soda
p344
aVcinnamon
p345
aVpint blueberry
p346
atp347
sV50265
p348
(VChocolate Mayonnaise Cake
p349
Vhttp://static.food2fork.com/mare_chocolate_mayonnaise_cake_h9fd0.jpg
p350
Vhttp://www.bonappetit.com/recipes/2010/04/chocolate_mayonnaise_cake
p351
(lp352
Vbittersweet chocolate not exceed cacao
p353
aVunsweetened cocoa powder
p354
aVboiling
p355
ag10
aVbaking soda
p356
aVbaking powder
p357
ag7
aVmayonnaise not use reduced-fat fat-free
p358
ag6
aVvanilla extract
p359
ag17
aS'cupcakes'
p360
atp361
sV34039b
p362
(VCampfire S
p363
Vhttp://static.food2fork.com/6768881807_90378c290f_bdf5b.jpg
p364
Vhttp://www.pastryaffair.com/blog/2012/1/29/campfire-smores-brownies.html
p365
(lp366
Vdark chocolate
p367
ag17
ag6
ag7
aVvanilla extract
p368
ag10
aVbaking powder
p369
ag99
aVmini marshmallow
p370
aVchocolate
p371
atp372
sVf0aac4
p373
(VDark Chocolate Chunk, Pistachio, and Sea Salt Cookies
p374
Vhttp://static.food2fork.com/DarkChocolateChunkPistachioandSeaSaltCookies5a794.jpg
p375
Vhttp://www.twopeasandtheirpod.com/dark-chocolate-chunk-pistachio-and-sea-salt-cookies/
p376
(lp377
g10
aVsea salt
p378
aVbaking powder
p379
aVbaking soda
p380
ag17
ag7
ag6
aVvanilla extract
p381
aVpistachio
p382
aVdark chocolate
p383
atp384
sV35992
p385
(VChocolate Crinkles
p386
Vhttp://static.food2fork.com/chocolatecrinklesa1300x20074ab809b.jpg
p387
Vhttp://www.simplyrecipes.com/recipes/chocolate_crinkles/
p388
(lp389
Vunsweetened cocoa powder
p390
ag7
aVvegetable oil
p391
ag6
aVvanilla extract
p392
ag10
aVbaking powder
p393
aVespresso powder
p394
aVsalt
p395
atp396
sVf9fee1
p397
(VBetter beetroot brownies
p398
Vhttp://static.food2fork.com/2973683_MEDIUM7a7e.jpg
p399
Vhttp://www.bbcgoodfood.com/recipes/2973683/better-beetroot-brownies
p400
(lp401
S'strawberries'
p402
aVrapeseed oil
p403
aVgood-quality dark chocolate cocoa
p404
ag6
ag7
aVvanilla extract
p405
ag10
aVcocoa powder
p406
aVbaking powder
p407
aVwalnut piece
p408
aVbeetroot juice
p409
atp410
sV92fd61
p411
(Vraspberry breakfast bars
p412
Vhttp://static.food2fork.com/2821165027_d33cd2632de434.jpg
p413
Vhttp://smittenkitchen.com/blog/2008/09/raspberry-breakfast-bars/
p414
(lp415
Nag10
ag7
aVrolled oat
p416
aVsalt
p417
aVbaking powder
p418
aVbaking soda
p419
aVcinnamon
p420
ag17
ag51
aVraspberry
p421
atp422
sV9aee8e
p423
(VButtermilk Biscuits and Sausage Cream Gravy Recipe
p424
Vhttp://static.food2fork.com/30499_RecipeImage_620x413_buttermilk_biscuits_sausage_gravy8a3e.jpg
p425
Vhttp://www.chow.com/recipes/30499-buttermilk-biscuits-and-sausage-cream-gravy
p426
(lp427
g10
aVbaking powder
p428
aVsalt
p429
aVbaking soda
p430
ag17
aVbuttermilk
p431
aS'uncooked beef roasts'
p432
aVblack pepper
p433
aVcayenne pepper
p434
ag39
atp435
sVdf42e7
p436
(VCinnamon Oatmeal Pancakes
p437
Vhttp://static.food2fork.com/CinnamonOatmealPancakes18c85.jpg
p438
Vhttp://www.twopeasandtheirpod.com/cinnamon-oatmeal-pancakes/
p439
(lp440
g10
aNaVquaker old fashioned oat
p441
ag7
aVbaking powder
p442
aVbaking soda
p443
aVsalt
p444
aVcinnamon
p445
aVbuttermilk
p446
ag17
ag6
aVvanilla extract
p447
atp448
sVfddfe8
p449
(VOatmeal Cranberry Sandwich Cookies with White Chocolate Creme Filling
p450
Vhttp://static.food2fork.com/OatmealCranberrySandwichCookieswithWhiteChocolateCremeFilling13beef.jpg
p451
Vhttp://www.twopeasandtheirpod.com/oatmeal-cranberry-sandwich-cookies-with-white-chocolate-creme-filling/
p452
(lp453
Nag10
aVsalt
p454
aVbaking powder
p455
aVbaking soda
p456
aVcinnamon
p457
ag17
ag7
ag6
aVvanilla extract
p458
aVold fashioned oat
p459
aVcranberry
p460
ag90
ag39
atp461
sV1014
p462
(VAmazingly Easy Irish Soda Bread
p463
Vhttp://static.food2fork.com/20722482d4.jpg
p464
Vhttp://allrecipes.com/Recipe/Amazingly-Easy-Irish-Soda-Bread/Detail.aspx
p465
(lp466
g10
ag7
aVbaking soda
p467
aVbaking powder
p468
aVsalt
p469
aS'margarine'
p470
aVbuttermilk
p471
ag6
ag17
atp472
sVddf639
p473
(VChocolate Strawberry Nutella Cake
p474
Vhttp://static.food2fork.com/cake21c897.jpg
p475
Vhttp://thepioneerwoman.com/cooking/2013/05/chocolate-strawberry-nutella-cake/
p476
(lp477
Nag17
aVcocoa powder
p478
aVboiling
p479
ag10
ag7
aVsalt
p480
aVbuttermilk
p481
ag6
aVbaking soda
p482
aVvanilla
p483
aVnutella
p484
aVpint strawberry
p485
aVheavy cream
p486
atp487
sV8516
p488
(VChocolate-Chocolate Chip Bacon Cookies
p489
Vhttp://static.food2fork.com/285312ed79.jpg
p490
Vhttp://allrecipes.com/Recipe/Chocolate-Chocolate-Chip-Bacon-Cookies/Detail.aspx
p491
(lp492
S'bacon'
p493
ag7
ag17
ag6
aVvanilla extract
p494
ag10
aVcocoa powder
p495
aVbaking soda
p496
aVsalt
p497
aVsemi-sweet chocolate chunk
p498
atp499
sV47647
p500
(VChocolate Bundt Cake
p501
Vhttp://static.food2fork.com/chocolate_bundt_cake_recipeec22.jpg
p502
Vhttp://www.101cookbooks.com/archives/chocolate-bundt-cake-recipe.html
p503
(lp504
NaVchocolate porter stout beer
p505
ag17
aVnatural cocoa powder non-dutched
p506
ag10
ag7
aVbaking soda
p507
aVsea salt
p508
ag6
ag74
aVpure maple syrup
p509
aVbuttermilk
p510
aVflaky sea salt
p511
atp512
sV2a819e
p513
(VLemon Curd Cupcakes
p514
Vhttp://static.food2fork.com/LemonCurdCupcakes9989c.jpg
p515
Vhttp://www.twopeasandtheirpod.com/lemon-curd-cupcakes/
p516
(lp517
Nag10
aVbaking powder
p518
aVsalt
p519
ag7
ag51
ag17
ag6
aVvanilla extract
p520
ag39
aVyellow sprinkle
p521
atp522
sV47098
p523
(VSkillet Cornbread
p524
Vhttp://static.food2fork.com/5048581074_2d5434cfa4_odc4b.jpg
p525
Vhttp://thepioneerwoman.com/cooking/2010/10/skillet-cornbread/
p526
(lp527
Vyellow cornmeal
p528
ag10
aVsalt
p529
aVbaking powder
p530
aVbuttermilk
p531
ag39
ag6
aVbaking soda
p532
aS'shortening'
p533
atp534
sVf38e3d
p535
(VToffee Ice Cream Brownie Bars
p536
Vhttp://static.food2fork.com/ToffeeIceCreamBrownieBars670ae.jpg
p537
Vhttp://www.twopeasandtheirpod.com/toffee-ice-cream-brownie-bars/
p538
(lp539
Nag17
ag7
aVdutch-process cocoa
p540
aVbaking powder
p541
aVsalt
p542
aVvanilla extract
p543
ag6
ag10
ag90
aS'rice'
p544
ag268
aVsalted caramel sauce
p545
atp546
sV47681
p547
(VCarrot Oatmeal Cookies
p548
Vhttp://static.food2fork.com/carrot_oatmeal_cookie_recipec076.jpg
p549
Vhttp://www.101cookbooks.com/archives/carrot-oatmeal-cookies-recipe.html
p550
(lp551
g10
aVbaking powder
p552
aVscant sea salt
p553
aVrolled oat
p554
aVwalnut
p555
ag307
aVreal maple syrup
p556
aVunrefined coconut oil
p557
aVginger
p558
atp559
sV392b28
p560
(VVegan Pumpkin Breakfast Cookies
p561
Vhttp://static.food2fork.com/VeganPumpkinBreakfastCookies30acc.jpg
p562
Vhttp://www.twopeasandtheirpod.com/vegan-pumpkin-breakfast-cookies/
p563
(lp564
g10
aVbaking soda
p565
aVbaking powder
p566
aVsalt
p567
aVcinnamon
p568
aVnutmeg
p569
aVginger
p570
aNaVpure pumpkin
p571
aVcoconut oil
p572
ag7
aVpure maple syrup
p573
ag39
aVvanilla extract
p574
aVold fashioned oat
p575
aVcranberry
p576
ag90
atp577
sVa9bce8
p578
(VWhole Wheat Double Chocolate Chip Cinnamon Cookie Recipe
p579
Vhttp://static.food2fork.com/ChocolateCinnamonCookies7f0f.jpg
p580
Vhttp://www.cookincanuck.com/2013/09/whole-wheat-double-chocolate-chip-cinnamon-cookie-recipe/
p581
(lp582
Vcoconut oil
p583
ag7
aVpure vanilla extract
p584
ag6
ag10
aVunsweetened cocoa powder
p585
aVmccormick cinnamon
p586
aVbaking soda
p587
aVbaking powder
p588
aVsalt
p589
ag90
atp590
sVd9c8f7
p591
(VSalted Caramel Cashew Blondies Recipe
p592
Vhttp://static.food2fork.com/IMG_7226180x180b6f0.jpg
p593
Vhttp://www.aspicyperspective.com/2013/04/blondies-recipe.html
p594
(lp595
g74
ag17
ag7
ag6
aVvanilla extract
p596
aVsalt
p597
aVbaking powder
p598
ag10
ag64
ag402
aVceltic coarse sea salt
p599
atp600
sV37526
p601
(VGlazed Lemon Pound Cake
p602
Vhttp://static.food2fork.com/buntcake_3001a519f5c.jpg
p603
Vhttp://www.realsimple.com/food-recipes/browse-all-recipes/lemon-pound-cake-recipe-00100000077196/index.html
p604
(lp605
g17
ag10
aVkosher salt
p606
aVbaking soda
p607
aVbaking powder
p608
ag7
ag51
ag6
ag74
atp609
sV31c0af
p610
(VAll Recipes
p611
Vhttp://static.food2fork.com/oatmealapplemuffins6550x821101b.jpg
p612
Vhttp://cookieandkate.com/2011/apple-oatmeal-muffins/
p613
(lp614
g10
aVold-fashioned oat
p615
aVbaking powder
p616
aVbaking soda
p617
aVsalt
p618
aVcinnamon
p619
aVcardamom
p620
aVginger
p621
aVunsweetened applesauce
p622
ag39
ag7
aVmelted coconut oil
p623
ag6
aVvanilla extract
p624
aS'apple sauce'
p625
atp626
sVb3307c
p627
(VWhole Wheat Banana Muffins
p628
Vhttp://static.food2fork.com/WholeWheatBananaMuffins2598d.jpg
p629
Vhttp://www.twopeasandtheirpod.com/whole-wheat-banana-muffins/
p630
(lp631
g10
aVbaking powder
p632
aVbaking soda
p633
aVsalt
p634
aVcinnamon
p635
ag83
ag7
aVcoconut oil
p636
ag6
ag74
aVpure vanilla extract
p637
atp638
sV173424
p639
(VChewy Oatmeal Cookies with Cinnamon and Butterscotch Chips
p640
Vhttp://static.food2fork.com/IMG_4574180x180bcd9.jpg
p641
Vhttp://www.aspicyperspective.com/2013/02/chewy-oatmeal-cookies-cinnamon.html
p642
(lp643
g10
aVbaking powder
p644
aVbaking soda
p645
aVsalt
p646
ag7
ag17
aVvanilla extract
p647
ag6
aVquick oat
p648
ag90
atp649
sV8fc707
p650
(VSweet Potato Biscuits Recipe
p651
Vhttp://static.food2fork.com/10886_sweet_potato_biscuits_6202139.jpg
p652
Vhttp://www.chow.com/recipes/10886-sweet-potato-biscuits
p653
(lp654
g10
aVbaking powder
p655
ag7
aVsalt
p656
aVbaking soda
p657
ag39
aVbaked
p658
ag17
atp659
sV9c4aef
p660
(VBanana muffins
p661
Vhttp://static.food2fork.com/bananamuffins_71268_16x966d9.jpg
p662
Vhttp://www.bbc.co.uk/food/recipes/bananamuffins_71268
p663
(lp664
g17
ag10
aVbaking powder
p665
aVbicarbonate soda
p666
aVsalt
p667
aVcinnamon
p668
aVnutmeg
p669
ag7
aVvanilla extract
p670
aNag6
ag39
aVwalnut
p671
ag83
aVcrme frache yoghurt
p672
aVrunny honey
p673
atp674
sV388732
p675
(VLebkuchen
p676
Vhttp://static.food2fork.com/1941_MEDIUM3d1c.jpg
p677
Vhttp://www.bbcgoodfood.com/recipes/1941/lebkuchen
p678
(lp679
g10
aValmond
p680
aVginger
p681
aVcinnamon
p682
aVbaking powder
p683
aVbicarbonate soda
p684
aS'peaches'
p685
aVclear honey
p686
ag17
ag51
ag7
ag6
atp687
sV47165
p688
(VLife by Chocolate Cupcakes
p689
Vhttp://static.food2fork.com/4313095885_615dfd428b5e47.jpg
p690
Vhttp://thepioneerwoman.com/cooking/2010/01/life-by-chocolate/
p691
(lp692
g360
ag7
ag10
aVsalt
p693
aVbuttermilk
p694
ag6
aVbaking soda
p695
aVvanilla
p696
aVcocoa powder
p697
aNaVhershey kiss
p698
aVcanned cherry
p699
aVganache
p700
aVheavy cream
p701
ag223
aVvanilla extract
p702
atp703
sV32478
p704
(VThe Best Rolled Sugar Cookies
p705
Vhttp://static.food2fork.com/9956913c10.jpg
p706
Vhttp://allrecipes.com/Recipe/The-Best-Rolled-Sugar-Cookies/Detail.aspx
p707
(lp708
g17
ag7
ag6
aVvanilla extract
p709
ag10
aVbaking powder
p710
aVsalt
p711
atp712
sV54490
p713
(VTwix Caramel Brownies
p714
Vhttp://static.food2fork.com/twixcaramelbrownies51a9b.jpg
p715
Vhttp://www.twopeasandtheirpod.com/twix-caramel-brownies/
p716
(lp717
g17
ag7
aVvanilla extract
p718
ag6
aVcocoa
p719
ag10
aVbaking powder
p720
aVsalt
p721
ag268
ag544
atp722
sV35379
p723
(VJalapeno Cornbread
p724
Vhttp://static.food2fork.com/Jalapeno2BCorn2BBread2B5002B24148f795c21.jpg
p725
Vhttp://www.closetcooking.com/2011/12/jalapeno-cornbread.html
p726
(lp727
Vbuttermilk
p728
aVoil
p729
ag6
aVcornmeal
p730
ag10
ag7
aVbaking powder
p731
aVbaking soda
p732
aVsalt
p733
aVjalapeno pepper
p734
atp735
sV54553
p736
(VChocolate Nutella Cookies
p737
Vhttp://static.food2fork.com/nutellacookies03f8.jpg
p738
Vhttp://www.twopeasandtheirpod.com/chocolate-nutella-cookies/
p739
(lp740
g10
aVbaking powder
p741
aVsalt
p742
aVdutch-process cocoa
p743
ag17
ag7
aVvanilla
p744
aVhazelnut extract
p745
aVnutella
p746
ag39
atp747
sV8f47af
p748
(VButterbeer&nbsp;Cupcakes - Home - Pastry Affair
p749
Vhttp://static.food2fork.com/5938769838_6872e19689_z19ed.jpg
p750
Vhttp://www.thepastryaffair.com/blog/2011/7/14/butterbeer-cupcakes.html
p751
(lp752
g360
ag10
aVbaking powder
p753
aVbaking soda
p754
aVsalt
p755
ag17
ag7
ag6
aVvanilla extract
p756
aVbuttermilk
p757
aVcream soda
p758
atp759
sV4102
p760
(VBlonde Brownies I
p761
Vhttp://static.food2fork.com/17842537e9.jpg
p762
Vhttp://allrecipes.com/Recipe/Blonde-Brownies-I/Detail.aspx
p763
(lp764
g10
aVbaking powder
p765
aVbaking soda
p766
aVsalt
p767
aVwalnut
p768
ag17
ag7
ag6
aVvanilla extract
p769
ag90
atp770
sV47001
p771
(VLemon Blueberry Pancakes
p772
Vhttp://static.food2fork.com/5674546802_cce65d5f07_odea1.jpg
p773
Vhttp://thepioneerwoman.com/cooking/2011/09/lemon-blueberry-pancakes/
p774
(lp775
g360
aVsalt
p776
aVbaking powder
p777
ag7
ag39
ag51
ag6
aVvanilla
p778
ag17
aVheaping blueberry
p779
aVmaple pancake syrup
p780
atp781
sV37008
p782
(VStained Glass Cookies
p783
Vhttp://static.food2fork.com/stainedglasscookies300x200fd3aae39.jpg
p784
Vhttp://www.simplyrecipes.com/recipes/stained_glass_cookies/
p785
(lp786
g17
ag7
aVmolasses
p787
aVvanilla extract
p788
ag6
ag10
aVsalt
p789
aVbaking powder
p790
ag268
atp791
sV701db5
p792
(VMy Favorite Chocolate Chip Cookies
p793
Vhttp://static.food2fork.com/NYCookies1of1b391.jpgedit.jpg
p794
Vhttp://www.mybakingaddiction.com/new-york-times-chocolate-chip-cookies-recipe/
p795
(lp796
g360
aS'bread'
p797
aVbaking soda
p798
aVbaking powder
p799
aVcoarse salt
p800
ag17
ag7
ag6
aVpure vanilla extract
p801
aVbittersweet disk fves
p802
atp803
sV36382
p804
(VGrandma&#8217;s Zucchini Cake
p805
Vhttp://static.food2fork.com/grandmaszucchinicake300x2007b3606cd.jpg
p806
Vhttp://www.simplyrecipes.com/recipes/grandmas_zucchini_cake/
p807
(lp808
g10
aVcinnamon sub with spice such allspice nutmeg
p809
aVbaking soda
p810
aVsalt
p811
aVbaking powder
p812
ag6
aVwhite
p813
aVvegetable oil
p814
aVvanilla extract
p815
ag51
aVfrom about regular sized zucchini un-peeled zucchini
p816
aVwalnut pecan
p817
aVgolden raisin
p818
aVcream cheese
p819
ag17
ag7
atp820
sV0caca2
p821
(VBanana Whoopie Pies {Amy Atlas Sweet Designs Giveaway}
p822
Vhttp://static.food2fork.com/BananaWhoopiePies2876.jpg
p823
Vhttp://www.mybakingaddiction.com/banana-whoopie-pies/
p824
(lp825
g10
aVbaking powder
p826
aVbaking soda
p827
aVsalt
p828
aVcinnamon
p829
ag17
ag7
ag6
ag83
aVsour cream
p830
atp831
sV54424
p832
(VLofthouse Style Soft Sugar Cookies
p833
Vhttp://static.food2fork.com/lofthousestylesugarcookies22833.jpg
p834
Vhttp://www.twopeasandtheirpod.com/lofthouse-style-soft-sugar-cookies/
p835
(lp836
Nag10
aVbaking soda
p837
aVbaking powder
p838
aVsalt
p839
ag17
ag7
ag6
aVvanilla extract
p840
aVsour cream
p841
aVheavy cream
p842
aVfood coloring
p843
aVsprinkle
p844
atp845
sVb92ea4
p846
(VBrown Butter Pumpkin Waffles
p847
Vhttp://static.food2fork.com/BrownButterPumpkinWaffles8177a.jpg
p848
Vhttp://www.twopeasandtheirpod.com/brown-butter-pumpkin-waffles/
p849
(lp850
g17
ag10
ag7
aVbaking powder
p851
aVbaking soda
p852
aVsalt
p853
aVcinnamon
p854
aVginger
p855
aVnutmeg
p856
aNag6
aVbuttermilk
p857
aVvanilla extract
p858
aVcanned solid-pack pumpkin
p859
atp860
sV25656
p861
(VPumpkin Pancakes
p862
Vhttp://static.food2fork.com/70531620d7.jpg
p863
Vhttp://allrecipes.com/Recipe/Pumpkin-Pancakes/Detail.aspx
p864
(lp865
g39
aVpumpkin puree
p866
ag6
aVvegetable oil
p867
aVvinegar
p868
ag10
ag7
aVbaking powder
p869
aVbaking soda
p870
aVallspice
p871
aVcinnamon
p872
aVginger
p873
aVsalt
p874
atp875
sV49414
p876
(VBacon, Oatmeal, and Raisin Cookies
p877
Vhttp://static.food2fork.com/baconoatmealandraisincookies6468e8f.jpg
p878
Vhttp://www.bonappetit.com/recipes/2012/03/bacon-oatmeal-and-raisin-cookies
p879
(lp880
g493
ag360
aVbaking powder
p881
aVkosher salt
p882
aVbaking soda
p883
ag7
ag17
ag6
aVvanilla extract
p884
aVold-fashioned oat
p885
aVraisin
p886
atp887
sV49416
p888
(VChocolate&ndash;Peanut Butter Fun Cake
p889
Vhttp://static.food2fork.com/chocolatepeanutbutterfuncake6460913.jpg
p890
Vhttp://www.bonappetit.com/recipes/2012/03/chocolate-peanut-butter-fun-cake
p891
(lp892
Vnonstick vegetable oil spray
p893
ag10
ag7
aVnatural unsweetened cocoa powder
p894
aVkosher salt
p895
aVbaking soda
p896
aVvegetable oil
p897
aVvanilla extract
p898
aVfinely semisweet bittersweet chocolate
p899
ag6
ag82
ag17
aVsemisweet bittersweet chocolate
p900
aVunsalted
p901
atp902
sV54473
p903
(VPeanut Butter Chocolate Chip Blondies
p904
Vhttp://static.food2fork.com/peanutbutterchocolatechipblondiesfe74.jpg
p905
Vhttp://www.twopeasandtheirpod.com/peanut-butter-chocolate-chip-blondies/
p906
(lp907
g17
ag7
ag82
ag6
aVvanilla extract
p908
ag10
aVbaking powder
p909
aVbaking soda
p910
aVsalt
p911
ag90
atp912
sVa2f4cd
p913
(VMixed Berry Granola Muffins
p914
Vhttp://static.food2fork.com/MixedBerryGranolaMuffins178a4.jpg
p915
Vhttp://www.twopeasandtheirpod.com/mixed-berry-granola-muffins/
p916
(lp917
g10
ag7
aVbaking powder
p918
aVcinnamon
p919
aVsalt
p920
aVcoconut oil
p921
aVbuttermilk
p922
ag6
aVvanilla extract
p923
aVmixed berry
p924
aVlarabar crunchy berry renola
p925
atp926
sV9bf706
p927
(VChewy Lemon Sugar Cookies
p928
Vhttp://static.food2fork.com/LemonSugarCookiesbdd3.jpg
p929
Vhttp://www.mybakingaddiction.com/chewy-lemon-sugar-cookies/
p930
(lp931
g10
aVbaking soda
p932
aVbaking powder
p933
aVsalt
p934
ag17
ag7
ag6
aVvanilla extract
p935
ag51
atp936
sVe9f27e
p937
(VPeanut Butter, Banana, and Honey Muffins
p938
Vhttp://static.food2fork.com/PeanutButterBananaandHoneyMuffins2d89d.jpg
p939
Vhttp://www.twopeasandtheirpod.com/peanut-butter-banana-and-honey-muffins/
p940
(lp941
g10
aVbaking powder
p942
aVbaking soda
p943
aVsalt
p944
aVcinnamon
p945
ag83
ag7
aVhoney
p946
aVcoconut oil
p947
ag6
aVpure vanilla extract
p948
ag82
aValmond breeze almondmilk hint honey
p949
atp950
sV39662
p951
(VPumpkin Bread
p952
Vhttp://static.food2fork.com/buttercake_3000891c1b7.jpg
p953
Vhttp://www.realsimple.com/food-recipes/browse-all-recipes/pumpkin-bread-10000001548531/index.html
p954
(lp955
Vpumpkin pie filling
p956
aVcanola oil
p957
ag7
aVmolasses
p958
aVvanilla extract
p959
ag10
aVbaking powder
p960
aVbaking soda
p961
aVkosher salt
p962
aVcinnamon
p963
aVnutmeg
p964
aNaVginger
p965
atp966
sV54398
p967
(VCoconut Lime Cupcakes
p968
Vhttp://static.food2fork.com/coconutlimecupcakes35191.jpg
p969
Vhttp://www.twopeasandtheirpod.com/coconut-lime-cupcakes/
p970
(lp971
g7
aVzest lime
p972
ag17
ag6
aVpure vanilla extract
p973
aVcoconut extract
p974
aVlime juice
p975
ag10
aVbaking powder
p976
aVbaking soda
p977
aVkosher salt
p978
aVbuttermilk
p979
aVcoconut
p980
aNaVvanilla extract
p981
atp982
sVf82286
p983
(VSpiced Banana Donut Holes
p984
Vhttp://static.food2fork.com/205xNxSpicedBananaDonutHolesc001.jpg.pagespeed.ic.vGn4RRQQXn.jpg
p985
Vhttp://www.healthy-delicious.com/2014/01/spiced-banana-donut-holes/
p986
(lp987
g10
ag7
aVbaking powder
p988
aVsalt
p989
ag83
ag39
aVvanilla
p990
aVcoconut extract
p991
aVcinnamon
p992
aVginger
p993
aVcardamom
p994
aVvegetable oil frying
p995
atp996
sV224b14
p997
(VDonut Muffins Recipe
p998
Vhttp://static.food2fork.com/28370_doghnut_muffins_6007a35.jpg
p999
Vhttp://www.chow.com/recipes/28370-doughnut-muffins
p1000
(lp1001
g7
aVcinnamon
p1002
ag17
ag10
aVbaking powder
p1003
aVsalt
p1004
aVnutmeg
p1005
aVbaking soda
p1006
ag39
aVbuttermilk
p1007
ag6
atp1008
sV2aab00
p1009
(VEaster Cookies
p1010
Vhttp://static.food2fork.com/easterd6c4.jpg
p1011
Vhttp://thepioneerwoman.com/cooking/2014/04/easter-cookies/
p1012
(lp1013
g533
ag7
ag306
ag6
aVvanilla extract
p1014
ag10
aVbaking powder
p1015
aVsalt
p1016
ag39
aVfrosting
p1017
ag17
aVheavy cream
p1018
aVfood coloring
p1019
aVmiscellaneous sprinkle decoration
p1020
atp1021
sV47061
p1022
(VCherry Cake Pudding
p1023
Vhttp://static.food2fork.com/5361588195_2031649a7a_z6430.jpg
p1024
Vhttp://thepioneerwoman.com/cooking/2011/01/cherry-cake-pudding/
p1025
(lp1026
g360
ag7
ag17
ag6
ag10
aVbaking powder
p1027
aVsalt
p1028
ag39
aVcherry syrup drained
p1029
aVpecan
p1030
aNaVjuice from cherry
p1031
aVvanilla extract
p1032
aVunsweetened whipped cream
p1033
atp1034
sV54539
p1035
(VLemon Sugar Cookies
p1036
Vhttp://static.food2fork.com/lemonsugarcookierecipe9955.jpg
p1037
Vhttp://www.twopeasandtheirpod.com/lemon-sugar-cookies/
p1038
(lp1039
g10
aVbaking soda
p1040
aVbaking powder
p1041
aVsalt
p1042
ag51
ag7
ag17
ag6
aVvanilla extract
p1043
atp1044
sV83a4e6
p1045
(VUltimate Chocolate Cupcakes
p1046
Vhttp://static.food2fork.com/UltimateChocolateCupcakes22672.jpg
p1047
Vhttp://www.twopeasandtheirpod.com/ultimate-chocolate-cupcakes/
p1048
(lp1049
Nag7
ag10
aS'american processed cheese'
p1050
aVbaking powder
p1051
aVbaking soda
p1052
aVsalt
p1053
ag6
ag39
aVcanola vegetable oil
p1054
aVvanilla extract
p1055
aVboiling
p1056
ag90
aVheavy cream
p1057
ag17
atp1058
sVf31795
p1059
(Vstrawberry summer cake
p1060
Vhttp://static.food2fork.com/5752837495_821b8a093eaa8c.jpg
p1061
Vhttp://smittenkitchen.com/blog/2011/05/strawberry-summer-cake/
p1062
(lp1063
g17
ag10
aVbaking powder
p1064
aVtable salt
p1065
ag7
ag6
ag39
aVvanilla extract
p1066
aVstrawberry
p1067
atp1068
sVa2dc77
p1069
(VChocolate brownie cake
p1070
Vhttp://static.food2fork.com/3431_MEDIUM1d94.jpg
p1071
Vhttp://www.bbcgoodfood.com/recipes/3431/chocolate-brownie-cake
p1072
(lp1073
g17
ag7
aVchocolate
p1074
aVgolden syrup
p1075
ag6
aVvanilla extract essence
p1076
ag10
aVbaking powder
p1077
aVcocoa powder
p1078
atp1079
sV4311
p1080
(VBlueberry Sour Cream Coffee Cake
p1081
Vhttp://static.food2fork.com/240044c098.jpg
p1082
Vhttp://allrecipes.com/Recipe/Blueberry-Sour-Cream-Coffee-Cake/Detail.aspx
p1083
(lp1084
g17
ag7
ag6
aVsour cream
p1085
aVvanilla extract
p1086
ag10
aVbaking powder
p1087
aVsalt
p1088
aVblueberry
p1089
aVnbsp
p1090
aVcinnamon
p1091
aVpecan
p1092
atp1093
sV23054
p1094
(VMmm-Mmm Better Brownies
p1095
Vhttp://static.food2fork.com/68441320dc.jpg
p1096
Vhttp://allrecipes.com/Recipe/Mmm-Mmm-Better-Brownies/Detail.aspx
p1097
(lp1098
Vvegetable oil
p1099
ag7
aVvanilla extract
p1100
ag6
ag10
aVunsweetened cocoa powder
p1101
aVbaking powder
p1102
aVsalt
p1103
aVwalnut
p1104
atp1105
sV35151
p1106
(VBlueberry Cheesecake Pancakes
p1107
Vhttp://static.food2fork.com/Blueberry2BCheesecake2BPancakes2B5002B023427ff2a83.jpg
p1108
Vhttp://www.closetcooking.com/2011/09/blueberry-cheesecake-pancakes.html
p1109
(lp1110
Vcream cheese
p1111
ag10
aVbaking powder
p1112
aVbaking soda
p1113
aVsalt
p1114
ag7
ag39
ag6
ag17
aVblueberry syrup
p1115
aVcrumbled amaretti crust
p1116
aVblueberry
p1117
aNaVcornstarch
p1118
ag51
atp1119
sV29742f
p1120
(VChocolate Cake
p1121
Vhttp://static.food2fork.com/367670ded8.jpg
p1122
Vhttp://www.epicurious.com/recipes/food/views/Chocolate-Cake-367670
p1123
(lp1124
g10
aVunsweetened cocoa powder
p1125
aVsea salt
p1126
aVbaking soda
p1127
aVagave nectar
p1128
ag6
aVvanilla extract
p1129
atp1130
sV47694
p1131
(VMy Special Zucchini Bread Recipe
p1132
Vhttp://static.food2fork.com/zucchinibreadrecipe_07673c.jpg
p1133
Vhttp://www.101cookbooks.com/archives/my-special-zucchini-bread-recipe-recipe.html
p1134
(lp1135
Vwalnut
p1136
aVpoppy seed
p1137
ag51
aVcrystallized ginger
p1138
ag17
ag7
ag6
aVvanilla extract
p1139
aVzucchini
p1140
ag10
aVbaking soda
p1141
aVbaking powder
p1142
aVsalt
p1143
aVcinnamon
p1144
aVcurry powder
p1145
aVspecial equipment two loaf pan
p1146
atp1147
sV591af5
p1148
(VAvocado Pound Cake
p1149
Vhttp://static.food2fork.com/395113ab21.jpg
p1150
Vhttp://www.epicurious.com/recipes/food/views/Avocado-Pound-Cake-395113
p1151
(lp1152
g10
aVyellow cornmeal
p1153
aVsalt
p1154
aVbaking powder
p1155
aVbaking soda
p1156
ag17
ag7
aVplus mashed avocado
p1157
ag6
aVpure vanilla extract
p1158
aVbuttermilk
p1159
atp1160
sV469016
p1161
(VThin Mint Cupcakes
p1162
Vhttp://static.food2fork.com/ThinMintCupcakee6d4.jpg
p1163
Vhttp://www.mybakingaddiction.com/thin-mint-cupcakes/
p1164
(lp1165
g25
ag6
ag7
aVvegetable oil
p1166
aVvanilla extract
p1167
ag10
aVunsweetened cocoa powder
p1168
aVbaking soda
p1169
aVbaking powder
p1170
aVsalt
p1171
atp1172
sV7b62d7
p1173
(VBig Chocolate Chip Cookies
p1174
Vhttp://static.food2fork.com/Levain2half1dc7d.jpg
p1175
Vhttp://www.mybakingaddiction.com/bigchocolate-chip-cookies/
p1176
(lp1177
g17
ag7
ag6
aVpure vanilla extract
p1178
ag10
aVtable sea salt
p1179
aVbaking powder
p1180
aVbaking soda
p1181
ag90
atp1182
sV1472
p1183
(VApple Squares
p1184
Vhttp://static.food2fork.com/10344015ca.jpg
p1185
Vhttp://allrecipes.com/Recipe/Apple-Squares/Detail.aspx
p1186
(lp1187
g10
aVbaking powder
p1188
aVsalt
p1189
aVcinnamon
p1190
ag17
ag7
ag6
aVvanilla extract
p1191
ag625
aVfinely walnut
p1192
atp1193
sV37fadf
p1194
(VChocolate Chip Muffins
p1195
Vhttp://static.food2fork.com/ChocolateChipMuffins8608.jpg
p1196
Vhttp://www.mybakingaddiction.com/chocolate-chip-muffins-recipe/
p1197
(lp1198
g10
ag7
aVbaking powder
p1199
aVsalt
p1200
ag17
ag6
ag39
aVpure vanilla extract
p1201
atp1202
sV9ccd2c
p1203
(VSpiced Rum Cake with Caramelized Pears
p1204
Vhttp://static.food2fork.com/spicedrumcake22b2de.jpg
p1205
Vhttp://www.healthy-delicious.com/2013/07/spiced-rum-cake-with-caramelized-pears/
p1206
(lp1207
g17
ag90
aVspiced black rum
p1208
ag6
aVsaucy mama hatch chili mustard
p1209
ag10
ag7
aVcinnamon
p1210
aVbaking soda
p1211
aVbaking powder
p1212
aVsalt
p1213
aS'pears'
p1214
atp1215
sV54458
p1216
(VBaked Pumpkin Donut Holes
p1217
Vhttp://static.food2fork.com/pumpkindonutholes4886.jpg
p1218
Vhttp://www.twopeasandtheirpod.com/baked-pumpkin-donut-holes/
p1219
(lp1220
Nag10
aVbaking powder
p1221
aVsalt
p1222
aVcinnamon
p1223
aVnutmeg
p1224
aVallspice
p1225
aVcanola oil
p1226
ag7
ag6
aVvanilla extract
p1227
aVcanned plain pumpkin
p1228
ag39
ag17
atp1229
sV91981b
p1230
(VFresh Strawberry Bread
p1231
Vhttp://static.food2fork.com/StrawberryBread1f1af.jpg
p1232
Vhttp://www.mybakingaddiction.com/fresh-strawberry-bread/
p1233
(lp1234
g17
ag7
aVcream cheese
p1235
ag6
aVvanilla extract
p1236
ag10
aVbaking powder
p1237
aVbaking soda
p1238
aVkosher salt
p1239
aVbuttermilk
p1240
atp1241
sV2052d2
p1242
(VDark Chocolate Zucchini Brownies
p1243
Vhttp://static.food2fork.com/zucchinibrowniesrecipe550x821370d.jpg
p1244
Vhttp://cookieandkate.com/2011/healthy-zucchini-brownies-recipe/
p1245
(lp1246
Vzucchini
p1247
aVmelted coconut oil
p1248
aVhoney
p1249
ag6
aVvanilla extract
p1250
ag10
aVunsweetened cocoa powder
p1251
aVsalt
p1252
aVbaking powder
p1253
aVcinnamon
p1254
ag90
atp1255
sV54453
p1256
(VPeanut Butter Snickers Brownies
p1257
Vhttp://static.food2fork.com/peanutbuttersnickersbrownies27afd.jpg
p1258
Vhttp://www.twopeasandtheirpod.com/peanut-butter-snickers-brownies/
p1259
(lp1260
g17
ag7
aVvanilla extract
p1261
ag6
ag1050
ag10
aVbaking powder
p1262
aVsalt
p1263
ag268
ag82
atp1264
sV17164
p1265
(VIced Pumpkin Cookies
p1266
Vhttp://static.food2fork.com/403552e6.jpg
p1267
Vhttp://allrecipes.com/Recipe/Iced-Pumpkin-Cookies/Detail.aspx
p1268
(lp1269
g10
aVbaking powder
p1270
aVbaking soda
p1271
aVcinnamon
p1272
aVnutmeg
p1273
aNaVsalt
p1274
ag17
ag7
aVcanned pumpkin puree
p1275
ag6
aVvanilla extract
p1276
aVnbsp
p1277
ag39
atp1278
sV6e2701
p1279
(VPaleo Girl Scout Cookies: Thin Mints
p1280
Vhttp://static.food2fork.com/ThinMints6483991d.jpg
p1281
Vhttp://www.elanaspantry.com/paleo-thin-mints/
p1282
(lp1283
g10
aVcacao powder
p1284
aVceltic sea salt
p1285
aVbaking soda
p1286
ag533
aVhoney
p1287
aVpeppermint extract
p1288
aVdark chocolate chunk
p1289
atp1290
sV49637
p1291
(VChicken Biscuits
p1292
Vhttp://static.food2fork.com/breakfastchickenbiscuits64607a8.jpg
p1293
Vhttp://www.bonappetit.com/recipes/2011/09/chicken-biscuits
p1294
(lp1295
g17
ag533
ag10
ag7
aVbaking powder
p1296
aVbaking soda
p1297
aVkosher salt
p1298
aVblack pepper
p1299
aVbuttermilk
p1300
aVdill
p1301
aVcayenne pepper
p1302
aNaVvegetable oil
p1303
ag82
ag6
aVgarlic powder
p1304
aS'onions'
p1305
aS'cheddar cheese'
p1306
aS'sausage'
p1307
atp1308
sV22d607
p1309
(VBrownies
p1310
Vhttp://static.food2fork.com/dsc_8204brownies7a41.jpg
p1311
Vhttp://www.elanaspantry.com/brownies/
p1312
(lp1313
g17
ag6
aVagave nectar honey
p1314
aVvanilla extract
p1315
aVcacao powder
p1316
aVceltic sea salt
p1317
aVbaking soda
p1318
aVchocolate drop
p1319
atp1320
sV28623
p1321
(VSimple Scones
p1322
Vhttp://static.food2fork.com/69193778ea.jpg
p1323
Vhttp://allrecipes.com/Recipe/Simple-Scones/Detail.aspx
p1324
(lp1325
g10
ag7
aVbaking powder
p1326
aVbaking soda
p1327
aVsalt
p1328
ag17
aVraisin
p1329
aVsour cream
p1330
ag6
atp1331
sVdca0fb
p1332
(VBlueberry Doughnut Muffins
p1333
Vhttp://static.food2fork.com/LemonBlueberryMuffinsRS76cd.jpg
p1334
Vhttp://www.mybakingaddiction.com/blueberry-doughnut-muffins/
p1335
(lp1336
g51
ag7
ag17
aVvegetable oil
p1337
ag6
aVpure vanilla extract
p1338
ag10
aVbaking powder
p1339
aVbaking soda
p1340
aVsalt
p1341
ag39
atp1342
sVfda812
p1343
(Vchocolate peanut butter cake
p1344
Vhttp://static.food2fork.com/2749087215_17cd75a8cdf83a.jpg
p1345
Vhttp://smittenkitchen.com/blog/2008/08/chocolate-peanut-butter-cake/
p1346
(lp1347
g10
ag7
aVunsweetened cocoa powder
p1348
aVbaking soda
p1349
aVsalt
p1350
aVneutral vegetable oil
p1351
aVsour cream
p1352
aNaVdistilled white vinegar
p1353
aVvanilla extract
p1354
ag6
ag82
aVcream cheese
p1355
ag17
aVsemisweet chocolate
p1356
ag223
aVhalf-and-half
p1357
atp1358
sV95e695
p1359
(VMarmalade muffins
p1360
Vhttp://static.food2fork.com/2534663_MEDIUM7428.jpg
p1361
Vhttp://www.bbcgoodfood.com/recipes/2534663/marmalade-muffins
p1362
(lp1363
g10
aVporridge oat
p1364
ag7
aVbaking powder
p1365
aVbicarbonate soda
p1366
aVzest
p1367
aVjuice orange
p1368
aVsunflower oil
p1369
aS'potatoes'
p1370
ag6
aVchunky marmalade
p1371
atp1372
sV4b8cde
p1373
(VBasic (Vegan) Chocolate Cupcake Recipe
p1374
Vhttp://static.food2fork.com/cookiecream_290x21010a4.jpg
p1375
Vhttp://www.chow.com/recipes/10794-basic-vegan-chocolate-cupcake
p1376
(lp1377
g39
ag625
ag7
aVcanola oil
p1378
aVvanilla extract
p1379
aValmond extract
p1380
ag10
aVcocoa powder
p1381
aVbaking soda
p1382
aVbaking powder
p1383
aVsalt
p1384
atp1385
sV84be6c
p1386
(VHealthy banana bread
p1387
Vhttp://static.food2fork.com/2554643_MEDIUMf344.jpg
p1388
Vhttp://www.bbcgoodfood.com/recipes/2554643/healthy-banana-bread
p1389
(lp1390
Vlow-fat spread
p1391
ag10
aVbicarbonate soda
p1392
aVbaking powder
p1393
ag83
aVagave syrup
p1394
ag6
ag1370
aVpecan walnut
p1395
atp1396
sV34e332
p1397
(VItalian Cream Cupcakes
p1398
Vhttp://static.food2fork.com/italiancreamcupcakes95f5.jpg
p1399
Vhttp://thepioneerwoman.com/cooking/2014/04/italian-cream-cupcakes/
p1400
(lp1401
g360
ag6
ag17
aVvegetable oil
p1402
ag7
aVvanilla extract
p1403
aVsweetened
p1404
ag10
aVbaking soda
p1405
aVbaking powder
p1406
aVbuttermilk
p1407
aVicing
p1408
aVcream cheese
p1409
aVfinely pecan
p1410
atp1411
sV47038
p1412
(VRed Velvet Sheet Cake
p1413
Vhttp://static.food2fork.com/5587851660_5c7cdce3c0_ob1fa.jpg
p1414
Vhttp://thepioneerwoman.com/cooking/2011/04/red-velvet-sheet-cake/
p1415
(lp1416
g533
ag7
ag360
aVsalt
p1417
ag6
aVbuttermilk
p1418
aVvanilla extract
p1419
aVbaking soda
p1420
aVvinegar
p1421
aNaVcocoa powder
p1422
ag10
ag39
aVvanilla
p1423
ag17
atp1424
sVae872b
p1425
(VPeanut Butter Cup Cookie Bars
p1426
Vhttp://static.food2fork.com/peanutbuttercupblondiesrecipea7c8.jpg
p1427
Vhttp://www.mybakingaddiction.com/peanut-butter-cup-cookie-bars/
p1428
(lp1429
g10
aVbaking powder
p1430
aVbaking soda
p1431
aVsalt
p1432
ag17
ag7
ag6
aVpure vanilla extract
p1433
atp1434
sVa32e53
p1435
(VCarrot Cake
p1436
Vhttp://static.food2fork.com/CarrotCake5b3d1.jpg
p1437
Vhttp://www.twopeasandtheirpod.com/carrot-cake/
p1438
(lp1439
Nag10
aVbaking soda
p1440
aVbaking powder
p1441
aVsalt
p1442
aVcinnamon
p1443
aVnutmeg
p1444
ag6
ag7
aVvanilla extract
p1445
aVcanola vegetable oil
p1446
ag307
aVraisin
p1447
ag17
aVcream cheese
p1448
ag51
atp1449
sVd3d834
p1450
(VPeanut Butter Snickers Brownies
p1451
Vhttp://static.food2fork.com/PeanutButterSnickersBrowniesc424.jpg
p1452
Vhttp://www.mybakingaddiction.com/peanut-butter-snickers-brownies-recipe/
p1453
(lp1454
g17
ag7
ag6
aVdutch-process cocoa hershey special dark cocoa
p1455
aVsalt
p1456
aVbaking powder
p1457
aVespresso powder
p1458
aVvanilla extract
p1459
ag10
atp1460
sV54510
p1461
(VWhole Wheat Kefir Pancakes with Blueberry Sauce
p1462
Vhttp://static.food2fork.com/wholewheatkefirpancakes1fb31.jpg
p1463
Vhttp://www.twopeasandtheirpod.com/whole-wheat-kefir-pancakes-with-blueberry-sauce-a-giveaway/
p1464
(lp1465
g10
ag7
aVbaking powder
p1466
aVbaking soda
p1467
aVsalt
p1468
aVcinnamon
p1469
aVplain kefir
p1470
aVcanola oil
p1471
ag6
aVvanilla extract
p1472
aNaVblueberry
p1473
aVagave nectar honey
p1474
ag223
atp1475
sV6e0f04
p1476
(VPeach, pistachio &amp; white chocolate pound cake
p1477
Vhttp://static.food2fork.com/2358653_MEDIUMdcd6.jpg
p1478
Vhttp://www.bbcgoodfood.com/recipes/2358653/peach-pistachio-and-white-chocolate-pound-cake
p1479
(lp1480
g17
ag7
ag10
aVbaking powder
p1481
aVvanilla extract
p1482
ag6
ag74
aVbar white chocolate
p1483
ag685
aVwhite chocolate chunk
p1484
aVtub full-fat soft cheese
p1485
aVfinely pistachio
p1486
atp1487
sV51328a
p1488
(Vmoms apple cake
p1489
Vhttp://static.food2fork.com/2902020174_d445ca6abc37bc.jpg
p1490
Vhttp://smittenkitchen.com/blog/2008/09/moms-apple-cake/
p1491
(lp1492
g625
aVcinnamon
p1493
ag7
ag10
aVbaking powder
p1494
aVsalt
p1495
aVvegetable oil
p1496
ag306
aVvanilla
p1497
ag6
aVwalnut
p1498
atp1499
sV54514
p1500
(VStrawberry Rhubarb Cobbler
p1501
Vhttp://static.food2fork.com/strawberryrhubarbcobbler13c6a0.jpg
p1502
Vhttp://www.twopeasandtheirpod.com/strawberry-rhubarb-cobbler/
p1503
(lp1504
Vrhubarb
p1505
aVstrawberry
p1506
ag7
ag223
ag306
aNag10
aVbaking powder
p1507
aVcinnamon
p1508
aVsalt
p1509
ag17
ag39
ag6
aVvanilla extract
p1510
atp1511
sV262189
p1512
(VThin Mint Double Chocolate Chip Cookies
p1513
Vhttp://static.food2fork.com/ThinMintDoubleChocolateChipCookies2t5f94.jpg
p1514
Vhttp://picky-palate.com/2013/02/25/thin-mint-double-chocolate-chip-cookies/
p1515
(lp1516
g17
ag7
ag6
aVpure vanilla extract
p1517
ag10
aVunsweetened cocoa powder
p1518
aVbaking soda
p1519
ag223
aVkosher salt
p1520
ag90
aVthin mint girl scout cooky
p1521
atp1522
sV54518
p1523
(VStrawberry Nutella Muffins
p1524
Vhttp://static.food2fork.com/strawberrynutellamuffins2cd3b.jpg
p1525
Vhttp://www.twopeasandtheirpod.com/strawberry-nutella-muffins/
p1526
(lp1527
g10
aVsalt
p1528
aVbaking powder
p1529
ag7
aVcanola oil
p1530
ag6
aVbuttermilk
p1531
aVvanilla extract
p1532
aVstrawberry
p1533
aVnutella
p1534
atp1535
sV0e3f44
p1536
(Vapple cider doughnuts
p1537
Vhttp://static.food2fork.com/4014418929_57c258443ffaca.jpg
p1538
Vhttp://smittenkitchen.com/blog/2009/10/apple-cider-doughnuts/
p1539
(lp1540
g625
ag10
aVbaking powder
p1541
aVbaking soda
p1542
aVcinnamon
p1543
aVsalt
p1544
aVnutmeg
p1545
ag17
ag7
ag6
aVbuttermilk
p1546
ag533
atp1547
sVd0fd3c
p1548
(VChocolate beetroot cakes
p1549
Vhttp://static.food2fork.com/chocolatebeetrootcak_71739_16x99089.jpg
p1550
Vhttp://www.bbc.co.uk/food/recipes/chocolatebeetrootcak_71739
p1551
(lp1552
Vcocoa powder
p1553
ag10
aVbaking powder
p1554
ag7
ag432
ag6
ag223
aVvanilla extract
p1555
atp1556
sV40dc2e
p1557
(VButterscotch, Toffee, Chocolate Chip Cookies
p1558
Vhttp://static.food2fork.com/ButterscotchToffeChocolateChipCookies1139f.jpg
p1559
Vhttp://www.twopeasandtheirpod.com/butterscotch-toffee-chocolate-chip-cookies/
p1560
(lp1561
g10
aVsea salt
p1562
aVbaking soda
p1563
aVbaking powder
p1564
ag17
ag7
ag6
aVvanilla extract
p1565
ag39
ag90
aVheath toffee bit
p1566
aVextra sea salt
p1567
atp1568
sV1480
p1569
(VApple Strudel Muffins
p1570
Vhttp://static.food2fork.com/173362b670.jpg
p1571
Vhttp://allrecipes.com/Recipe/Apple-Strudel-Muffins/Detail.aspx
p1572
(lp1573
g10
aVbaking powder
p1574
aVbaking soda
p1575
aVsalt
p1576
ag17
ag7
ag6
aVvanilla
p1577
ag625
aVnbsp
p1578
aVcinnamon
p1579
atp1580
sV35528
p1581
(VRoast Cherry Dark Chocolate Brownie Sundaes
p1582
Vhttp://static.food2fork.com/Roasted2BCherry2BBrownies2B5002B466081373611.jpg
p1583
Vhttp://www.closetcooking.com/2012/07/roast-cherry-dark-chocolate-brownie.html
p1584
(lp1585
Vcherry
p1586
aVport
p1587
aVdark chocolate
p1588
ag17
ag10
aVbaking powder
p1589
aVsalt
p1590
ag6
ag7
aVvanilla extract
p1591
atp1592
sV54335
p1593
(VSalted Caramel Apple Crumb Bars
p1594
Vhttp://static.food2fork.com/saltedcaramelapplecrumbbars3ff01.jpg
p1595
Vhttp://www.twopeasandtheirpod.com/salted-caramel-apple-crumb-bars/
p1596
(lp1597
Nag7
ag17
aVheavy cream
p1598
aVfleur sel maldon sea salt flake
p1599
ag625
ag51
ag10
aVcornstarch
p1600
aVsalt
p1601
aVcinnamon
p1602
aVnutmeg
p1603
aVall-spice
p1604
aVbaking powder
p1605
ag6
aVvanilla extract
p1606
atp1607
sV3c4e04
p1608
(Vred wine chocolate cake
p1609
Vhttp://static.food2fork.com/6139033638_26897d8c070724.jpg
p1610
Vhttp://smittenkitchen.com/blog/2011/09/red-wine-chocolate-cake/
p1611
(lp1612
g17
ag7
ag6
aS'wine'
p1613
aVvanilla extract
p1614
ag10
aVdutch cocoa powder
p1615
aVbaking soda
p1616
aVbaking powder
p1617
aVtable salt
p1618
aVcinnamon
p1619
aVmascarpone cheese
p1620
aVchilled heavy whipping cream
p1621
atp1622
sVe4d372
p1623
(Vcoconut bread
p1624
Vhttp://static.food2fork.com/8558685551_60da15123e7cdc.jpg
p1625
Vhttp://smittenkitchen.com/blog/2013/03/coconut-bread/
p1626
(lp1627
g6
ag39
aVvanilla extract
p1628
ag10
aVtable salt
p1629
aVbaking powder
p1630
ag82
ag7
aVsweetened flaked coconut
p1631
ag17
aVvegetable oil nonstick cooking spray baking pan
p1632
atp1633
sV14922
p1634
(VGrandma Johnson\u2019s Scones
p1635
Vhttp://static.food2fork.com/3446023cf6.jpg
p1636
Vhttp://allrecipes.com/Recipe/Grandma-Johnsons-Scones/Detail.aspx
p1637
(lp1638
Vsour cream
p1639
aVbaking soda
p1640
ag10
ag7
aVbaking powder
p1641
aVcream tartar
p1642
aVsalt
p1643
ag17
ag6
aVraisin
p1644
atp1645
sV279c3a
p1646
(VChocolate Glazed Donuts
p1647
Vhttp://static.food2fork.com/chocolateglazeddonutrecipefb77.jpg
p1648
Vhttp://www.mybakingaddiction.com/chocolate-glazed-donuts/
p1649
(lp1650
g533
ag7
ag6
aVpure vanilla extract
p1651
ag10
aVbaking powder
p1652
aVsalt
p1653
aVhomemade pumpkin pie spice
p1654
atp1655
sV277014
p1656
(VWhole Wheat Blueberry Granola Pancakes
p1657
Vhttp://static.food2fork.com/WholeWheatBlueberryGranolaPancakes56ee2.jpg
p1658
Vhttp://www.twopeasandtheirpod.com/whole-wheat-blueberry-granola-pancakes/
p1659
(lp1660
g10
ag7
aVbaking powder
p1661
aVbaking soda
p1662
aVsalt
p1663
aVbuttermilk
p1664
ag6
aVcanola oil
p1665
aVvanilla extract
p1666
aVblueberry
p1667
aVgranola
p1668
aVbutter
p1669
aVmaple syrup
p1670
atp1671
sV8fb065
p1672
(VDouble chocolate loaf cake
p1673
Vhttp://static.food2fork.com/694633_MEDIUMef78.jpg
p1674
Vhttp://www.bbcgoodfood.com/recipes/694633/double-chocolate-loaf-cake
p1675
(lp1676
g17
ag7
ag6
ag10
aValmond
p1677
aVbaking powder
p1678
ag39
aVcocoa powder
p1679
ag90
aVfew extra chunk white
p1680
atp1681
sV27b55b
p1682
(VBay Leaf Pound Cake
p1683
Vhttp://static.food2fork.com/pound_cake_recipe985e.jpg
p1684
Vhttp://www.101cookbooks.com/archives/bay-leaf-pound-cake-recipe.html
p1685
(lp1686
g17
aVbay leaf
p1687
ag10
ag7
aValuminum-free baking powder
p1688
aVsea salt
p1689
ag6
aVsour cream
p1690
ag306
aVvanilla extract
p1691
aNatp1692
sVcf8cd2
p1693
(VChocolate Pudding Cake
p1694
Vhttp://static.food2fork.com/ChocolatePuddingCake9464d.jpg
p1695
Vhttp://www.twopeasandtheirpod.com/chocolate-pudding-cake/
p1696
(lp1697
g10
ag7
aVbaking powder
p1698
aVbaking soda
p1699
aVsalt
p1700
ag90
ag17
aVunsweetened chocolate
p1701
aVbuttermilk
p1702
aVvanilla extract
p1703
aVplus unsweetened cocoa
p1704
aVboiling
p1705
atp1706
sVc25483
p1707
(VCarrot cake cupcakes with cream cheese frosting
p1708
Vhttp://static.food2fork.com/carrot_spelt_cupcakes_72408_16x96a9b.jpg
p1709
Vhttp://www.bbc.co.uk/food/recipes/carrot_spelt_cupcakes_72408
p1710
(lp1711
g7
aVsunflower oil
p1712
ag6
ag307
ag82
ag10
aVbaking powder
p1713
aVcinnamon
p1714
aVmixed spice
p1715
aVcocoa powder
p1716
ag17
aVfull-fat cream cheese
p1717
atp1718
sV1c7748
p1719
(VCaramel Apple Sweet Rolls
p1720
Vhttp://static.food2fork.com/caramelapple9e0b.jpg
p1721
Vhttp://thepioneerwoman.com/cooking/2013/12/caramel-apple-sweet-rolls/
p1722
(lp1723
Vdough
p1724
ag39
aVvegetable oil
p1725
ag7
ag10
aVactive dry yeast
p1726
aVbaking powder
p1727
aVbaking soda
p1728
aVsalt
p1729
aVfilling
p1730
ag625
ag17
aVheavy cream
p1731
aVcinnamon
p1732
aVcaramel icing
p1733
atp1734
sV986b48
p1735
(VStrawberry Lemonade Cake
p1736
Vhttp://static.food2fork.com/StrawberryLemonadeCake489df.jpg
p1737
Vhttp://www.twopeasandtheirpod.com/strawberry-lemonade-cake/
p1738
(lp1739
g17
ag7
ag51
ag10
aVbaking powder
p1740
aVbaking soda
p1741
aVsalt
p1742
ag6
aVbuttermilk
p1743
aVstrawberry
p1744
aNag39
atp1745
sVd85bcf
p1746
(VWaffles
p1747
Vhttp://static.food2fork.com/wafllesfa97.jpg
p1748
Vhttp://thepioneerwoman.com/cooking/2014/02/waffles/
p1749
(lp1750
g10
aVbaking powder
p1751
aVsalt
p1752
ag7
ag39
ag6
aVvanilla extract
p1753
ag17
atp1754
sV1003
p1755
(VAmazing Slow Cooker Chocolate Cake
p1756
Vhttp://static.food2fork.com/8526373d0a.jpg
p1757
Vhttp://allrecipes.com/Recipe/Amazing-Slow-Cooker-Chocolate-Cake/Detail.aspx
p1758
(lp1759
g7
ag10
aVunsweetened cocoa powder
p1760
aVbaking soda
p1761
aVbaking powder
p1762
aVsalt
p1763
ag6
ag39
aVvegetable oil
p1764
aVvanilla extract
p1765
aVboiling
p1766
atp1767
sV47675
p1768
(VOld-Fashioned Blueberry Cake
p1769
Vhttp://static.food2fork.com/blueberry_cake_recipe0d9c.jpg
p1770
Vhttp://www.101cookbooks.com/archives/oldfashioned-blueberry-cake-recipe.html
p1771
(lp1772
g10
aVbaking powder
p1773
aVbaking soda
p1774
aVsea salt
p1775
aVcider vinegar
p1776
ag39
aNaVunsulphered molasses
p1777
ag6
ag17
aVblueberry
p1778
ag7
atp1779
sVd7e1a3
p1780
(VBrownie Cookies
p1781
Vhttp://static.food2fork.com/browniecookies31e9.jpg
p1782
Vhttp://thepioneerwoman.com/cooking/2015/03/brownie-cookies/
p1783
(lp1784
Nag17
ag7
ag6
aVvanilla extract
p1785
ag10
aVcocoa powder
p1786
aVbaking powder
p1787
aVsalt
p1788
atp1789
sV1340
p1790
(VApple Crisp II
p1791
Vhttp://static.food2fork.com/2770701179.jpg
p1792
Vhttp://allrecipes.com/Recipe/Apple-Crisp-Ii/Detail.aspx
p1793
(lp1794
g625
ag7
ag10
aVcinnamon
p1795
aNaVnbsp
p1796
aVquick-cooking oat
p1797
aVbaking powder
p1798
aVbaking soda
p1799
ag17
atp1800
sV36735
p1801
(VPineapple Upside Down Cake
p1802
Vhttp://static.food2fork.com/pineappleupsidedowncake300x2008ab90f2c.jpg
p1803
Vhttp://www.simplyrecipes.com/recipes/pineapple_upside_down_cake/
p1804
(lp1805
g7
ag17
aVpineapple
p1806
ag10
ag360
aValmond
p1807
aVbaking powder
p1808
aVsalt
p1809
ag6
aVvanilla extract
p1810
aVsour cream
p1811
atp1812
sV74e985
p1813
(VRaspberry Coconut Granola Pancakes
p1814
Vhttp://static.food2fork.com/RaspberryCoconutGranolaPancakes493c5.jpg
p1815
Vhttp://www.twopeasandtheirpod.com/raspberry-coconut-granola-pancakes/
p1816
(lp1817
g10
ag7
aVbaking powder
p1818
aVbaking soda
p1819
aVsalt
p1820
aVbuttermilk
p1821
ag6
aVcoconut oil
p1822
aVvanilla extract
p1823
aVflaked coconut
p1824
aNaVcoconut granola
p1825
aVdriscoll raspberry
p1826
aVmaple syrup
p1827
atp1828
sV2ae0ac
p1829
(VChurro-Style Waffles with Spiced Chocolate and Coconut Crema Recipe
p1830
Vhttp://static.food2fork.com/recipeImage_waffle_6202c77.jpg
p1831
Vhttp://www.chow.com/recipes/30951-churro-style-waffle-with-spiced-chocolate-and-coconut-crema
p1832
(lp1833
g39
ag7
aV-ounce packet active dry yeast
p1834
ag10
aVcornstarch
p1835
aVkosher salt
p1836
aVbaking powder
p1837
ag6
ag17
aVhalf-and-half
p1838
aVvanilla extract
p1839
aVvegetable oil
p1840
aVcinnamon
p1841
aVnatural unsweetened cocoa powder
p1842
aNaVmade espresso
p1843
aVchili powder
p1844
aVthick coconut cream
p1845
aVmexican crema crme frache
p1846
atp1847
sV54487
p1848
(VRaspberry Truffle Brownies
p1849
Vhttp://static.food2fork.com/raspberrytrufflebrownies88fe0.jpg
p1850
Vhttp://www.twopeasandtheirpod.com/raspberry-truffle-brownies/
p1851
(lp1852
g17
ag7
aVdutch-process cocoa
p1853
aVbaking powder
p1854
aVsalt
p1855
aVvanilla extract
p1856
ag6
ag10
aVdark chocolate truffle
p1857
aVraspberry
p1858
ag544
atp1859
sV54562
p1860
(VCinnamon Streusel Pancakes
p1861
Vhttp://static.food2fork.com/RecessTimePancakes881f.jpg
p1862
Vhttp://www.twopeasandtheirpod.com/cinnamon-streusel-pancakes/
p1863
(lp1864
g10
ag7
aVbaking powder
p1865
aVbaking soda
p1866
aVsalt
p1867
aVbuttermilk
p1868
ag6
aVcanola oil
p1869
aVvanilla extract
p1870
aNaVcinnamon
p1871
ag17
atp1872
sV54567
p1873
(VApple Cinnamon Baked Oatmeal
p1874
Vhttp://static.food2fork.com/oatmealtoppingsac1d.jpg
p1875
Vhttp://www.twopeasandtheirpod.com/apple-cinnamon-baked-oatmeal/
p1876
(lp1877
Vold fashioned oat
p1878
ag7
aVcinnamon
p1879
aVbaking powder
p1880
aVsalt
p1881
ag39
aVapplesauce
p1882
ag17
ag6
aVvanilla
p1883
ag625
aNaVraisin
p1884
aVcranberry
p1885
aValmond
p1886
atp1887
sV46973
p1888
(VMini Corn Loaves with Cranberries and Pecans
p1889
Vhttp://static.food2fork.com/miniloaves9e29.jpg
p1890
Vhttp://thepioneerwoman.com/cooking/2011/12/mini-corn-loaves-with-cranberries-and-pecans/
p1891
(lp1892
Vyellow cornmeal
p1893
ag10
aVsalt
p1894
aVbaking powder
p1895
ag7
aVbuttermilk
p1896
ag39
aVbaking soda
p1897
ag6
ag533
aVvanilla
p1898
aVcranberry
p1899
aVpecan
p1900
ag17
aVmaple syrup
p1901
atp1902
sV46972
p1903
(VSticky Pecan Mini-Buns
p1904
Vhttp://static.food2fork.com/sticky2613.jpg
p1905
Vhttp://thepioneerwoman.com/cooking/2011/12/sticky-pecan-mini-buns/
p1906
(lp1907
g39
aVcanola oil
p1908
ag7
aVactive dry yeast
p1909
ag10
aVbaking powder
p1910
aVbaking soda
p1911
aVsalt
p1912
ag17
aVcinnamon
p1913
aVfinely pecan
p1914
ag223
aVvanilla extract
p1915
atp1916
sV46878
p1917
(VEpiphany Cake
p1918
Vhttp://static.food2fork.com/epiphany8fca.jpg
p1919
Vhttp://thepioneerwoman.com/cooking/2013/01/epiphany-cake/
p1920
(lp1921
g360
ag7
ag6
aVbaking powder
p1922
aVsalt
p1923
aVvanilla
p1924
ag39
aVtrinket charm
p1925
aVicing
p1926
ag17
aVcocoa powder
p1927
aVheavy cream
p1928
atp1929
sV49311
p1930
(VAlmond-Oat Strawberry Shortcakes
p1931
Vhttp://static.food2fork.com/almondoatstrawberryshortcakes646e5e8.jpg
p1932
Vhttp://www.bonappetit.com/recipes/quick-recipes/2012/04/almond-oat-strawberry-shortcakes
p1933
(lp1934
g10
aVold-fashioned oat
p1935
aVslivered almond
p1936
ag7
aVbaking powder
p1937
aVkosher salt
p1938
ag17
aVchilled heavy cream
p1939
aVvanilla extract
p1940
aVstrawberry
p1941
ag306
atp1942
sV5eff55
p1943
(VOrange Ricotta Chocolate Chip Pancakes
p1944
Vhttp://static.food2fork.com/OrangeRicottaChocolateChipPancakes1f93b.jpg
p1945
Vhttp://www.twopeasandtheirpod.com/orange-ricotta-chocolate-chip-pancakes/
p1946
(lp1947
g10
aVbaking powder
p1948
aVbaking soda
p1949
aVsalt
p1950
ag7
ag306
aVricotta cheese
p1951
ag6
aVcanola oil
p1952
aVvanilla extract
p1953
ag90
aVbutter
p1954
aVmaple syrup
p1955
atp1956
sV46875
p1957
(VSugar Biscuits
p1958
Vhttp://static.food2fork.com/sugar8f23.jpg
p1959
Vhttp://thepioneerwoman.com/cooking/2013/01/sugar-biscuits/
p1960
(lp1961
g10
ag7
aVbaking powder
p1962
aVsalt
p1963
ag17
aVheavy cream
p1964
ag39
aVvanilla extract
p1965
atp1966
sV36543
p1967
(VLemon Rosemary Zucchini Bread
p1968
Vhttp://static.food2fork.com/lemonrosemaryzucchinibread300x2003be7fa44.jpg
p1969
Vhttp://www.simplyrecipes.com/recipes/lemon_rosemary_zucchini_bread/
p1970
(lp1971
g10
aVbaking soda
p1972
aVbaking powder
p1973
aVrosemary
p1974
ag6
ag17
aVolive oil
p1975
aVsalt
p1976
ag7
ag51
aVzucchini
p1977
atp1978
sV36542
p1979
(VLemon Poppy Seed Muffins
p1980
Vhttp://static.food2fork.com/lemonpoppyseedmuffins520300x200dd9223e9.jpg
p1981
Vhttp://www.simplyrecipes.com/recipes/lemon_poppy_seed_muffins/
p1982
(lp1983
g10
aVbaking powder
p1984
aVbaking soda
p1985
aVsalt
p1986
aVpoppy seed
p1987
ag17
ag7
ag6
ag74
ag51
atp1988
sV36013
p1989
(VChocolate Zucchini Cake
p1990
Vhttp://static.food2fork.com/chocolatezucchinicake520300x2001925c330.jpg
p1991
Vhttp://www.simplyrecipes.com/recipes/chocolate_zucchini_cake/
p1992
(lp1993
g10
aVcocoa
p1994
aVbaking powder
p1995
aVbaking soda
p1996
aVsalt
p1997
aVcinnamon
p1998
ag17
ag7
ag6
aVvanilla
p1999
ag306
aVcoarsely zucchini
p2000
ag39
aVwalnut pecan
p2001
aVglaze
p2002
aVvanilla extract
p2003
atp2004
sV48985
p2005
(VOld-Fashioned Blueberry Coffee Cake
p2006
Vhttp://static.food2fork.com/oldfashionedblueberrycoffeecake646b568.jpg
p2007
Vhttp://www.bonappetit.com/recipes/2012/09/old-fashioned-blueberry-coffee-cake
p2008
(lp2009
g10
ag7
aVkosher salt
p2010
aVpecan
p2011
ag17
aVnonstick vegetable oil spray
p2012
aVcornmeal
p2013
aVbaking powder
p2014
aVbaking soda
p2015
aVvanilla extract
p2016
ag6
aVbuttermilk
p2017
aVcinnamon
p2018
aNaVpanko
p2019
atp2020
sV36011
p2021
(VChocolate Zucchini Bread
p2022
Vhttp://static.food2fork.com/chocolatezucchinibreadab300x2002eb91ca5.jpg
p2023
Vhttp://www.simplyrecipes.com/recipes/chocolate_zucchini_bread/
p2024
(lp2025
Vzucchini
p2026
ag10
aVunsweetened cocoa use natural unsweetened cocoa
p2027
aVbaking soda
p2028
aVsalt
p2029
aVcinnamon
p2030
ag7
ag6
ag17
ag41
aValmond extract
p2031
atp2032
sV3e2aec
p2033
(Vbrownie roll-out cookies
p2034
Vhttp://static.food2fork.com/2451054974_f98f46afcc1322.jpg
p2035
Vhttp://smittenkitchen.com/blog/2008/04/brownie-roll-out-cookies/
p2036
(lp2037
g10
aVsalt
p2038
aVbaking powder
p2039
ag17
ag7
ag6
aVvanilla extract
p2040
ag25
atp2041
sV48988
p2042
(VPineapple Upside-Down Cake
p2043
Vhttp://static.food2fork.com/pineappleupsidedowncake6463dca.jpg
p2044
Vhttp://www.bonappetit.com/recipes/2012/09/pineapple-upside-down-cake
p2045
(lp2046
Vnonstick vegetable oil spray
p2047
ag7
ag17
aS'bourbon whiskey'
p2048
aVpineapple
p2049
ag360
aVbaking powder
p2050
aVkosher salt
p2051
aVcardamom
p2052
aVvanilla extract
p2053
ag6
aVsour cream
p2054
atp2055
sV19e1a4
p2056
(VRed Velvet Cake Recipe
p2057
Vhttp://static.food2fork.com/29310_red_velvet_cake_3_6203d59.jpg
p2058
Vhttp://www.chow.com/recipes/29310-red-velvet-cake
p2059
(lp2060
g360
aVsalt
p2061
aVbaking powder
p2062
aVbaking soda
p2063
aVnatural unsweetened cocoa powder
p2064
aV-ounce bottle red food coloring
p2065
aNag17
ag7
ag6
aVvanilla extract
p2066
ag306
aVlow-fat buttermilk
p2067
aVcream cheese
p2068
ag39
atp2069
sV35808
p2070
(VBlondies
p2071
Vhttp://static.food2fork.com/blondies2300x200c09ab397.jpg
p2072
Vhttp://www.simplyrecipes.com/recipes/blondies/
p2073
(lp2074
g17
ag7
ag6
aVvanilla
p2075
aVbaking powder
p2076
aVbaking soda
p2077
aVsalt
p2078
ag10
ag90
atp2079
sVda73d3
p2080
(VButtermilk Cupcakes and Cherry Frosting
p2081
Vhttp://static.food2fork.com/IMG_5077180x180af19.jpg
p2082
Vhttp://www.aspicyperspective.com/2012/02/buttermilk-cupcakes-cherry-frosting.html
p2083
(lp2084
Nag360
aVbaking soda
p2085
aVbaking powder
p2086
aVsalt
p2087
ag17
ag7
ag6
aVvanilla extract
p2088
aVfull-fat buttermilk
p2089
aVcherry
p2090
aVkirsch
p2091
aVdrop red food coloring *optional
p2092
atp2093
sV4d3c97
p2094
(VVegan Chocolate&nbsp;Cupcakes - Home - Pastry Affair
p2095
Vhttp://static.food2fork.com/7162039559_5eb31b8af1_bb31d.jpg
p2096
Vhttp://www.pastryaffair.com/blog/vegan-chocolate-cupcakes.html
p2097
(lp2098
g360
ag10
ag7
aVcocoa powder
p2099
aVespresso powder
p2100
aVbaking soda
p2101
aVsalt
p2102
aVvanilla extract
p2103
aVvinegar
p2104
aVvegetable oil
p2105
aNatp2106
sV29372
p2107
(VSoft Christmas Cookies
p2108
Vhttp://static.food2fork.com/561448f29.jpg
p2109
Vhttp://allrecipes.com/Recipe/Soft-Christmas-Cookies/Detail.aspx
p2110
(lp2111
g10
aVbaking powder
p2112
aVsalt
p2113
ag470
ag7
ag6
aVvanilla extract
p2114
atp2115
sVc51267
p2116
(VWhole Wheat Toasted Oatmeal Chocolate Chip Cookies
p2117
Vhttp://static.food2fork.com/ToastedOatmealWholeWheatChocolateChipCookies5f86e.jpg
p2118
Vhttp://www.twopeasandtheirpod.com/whole-wheat-toasted-oatmeal-chocolate-chip-cookies/
p2119
(lp2120
Vold fashioned oat
p2121
ag10
aVsalt
p2122
aVbaking powder
p2123
aVbaking soda
p2124
aVcinnamon
p2125
ag17
ag7
ag6
aVvanilla extract
p2126
ag90
atp2127
sV14c8b6
p2128
(VSticky chocolate pudding with marshmallows
p2129
Vhttp://static.food2fork.com/845658_MEDIUMa7e4.jpg
p2130
Vhttp://www.bbcgoodfood.com/recipes/845658/sticky-chocolate-pudding-with-marshmallows
p2131
(lp2132
g17
ag10
ag7
aVbaking powder
p2133
aVcocoa powder
p2134
ag39
ag6
aVvanilla extract
p2135
ag544
aVmarshmallow
p2136
atp2137
sV49400
p2138
(VChocolate-Oatmeal Moon Pies
p2139
Vhttp://static.food2fork.com/chocolateoatmealmoonpies646cd97.jpg
p2140
Vhttp://www.bonappetit.com/recipes/2012/02/chocolate-oatmeal-moon-pies
p2141
(lp2142
g10
aVbaking powder
p2143
aVbaking soda
p2144
aVkosher salt
p2145
aVold-fashioned oat
p2146
aVtart cherry
p2147
aVpecan
p2148
aVsemisweet bittersweet chocolate
p2149
ag17
ag7
ag6
aVvanilla extract
p2150
aV-ounce marshmallow creme
p2151
aVhoney
p2152
aVheavy cream
p2153
atp2154
sV47102
p2155
(VChocolate Chip Cookie Sweet Rolls
p2156
Vhttp://static.food2fork.com/4983866032_304b02a819_o22e2.jpg
p2157
Vhttp://thepioneerwoman.com/cooking/2010/09/chocolate-chip-cookie-sweet-rolls/
p2158
(lp2159
S'rolls'
p2160
ag39
ag7
aVcanola oil
p2161
ag10
aVactive dry yeast
p2162
aVsalt
p2163
aVbaking soda
p2164
aVbaking powder
p2165
ag17
aVvanilla extract
p2166
ag90
aVpecan
p2167
aVicing
p2168
aVcream cheese
p2169
atp2170
sV22525
p2171
(VMelt In Your Mouth Blueberry Cake
p2172
Vhttp://static.food2fork.com/242130c52f.jpg
p2173
Vhttp://allrecipes.com/Recipe/Melt-In-Your-Mouth-Blueberry-Cake/Detail.aspx
p2174
(lp2175
g17
ag7
aVsalt
p2176
aVvanilla extract
p2177
ag6
ag10
aVbaking powder
p2178
ag39
aVblueberry
p2179
atp2180
sV4002
p2181
(VBlack Magic Cake
p2182
Vhttp://static.food2fork.com/344633818a.jpg
p2183
Vhttp://allrecipes.com/Recipe/Black-Magic-Cake/Detail.aspx
p2184
(lp2185
g10
ag7
aVunsweetened cocoa powder
p2186
aVbaking soda
p2187
aVbaking powder
p2188
aVsalt
p2189
ag6
ag41
aVbuttermilk
p2190
aVvegetable oil
p2191
aVvanilla extract
p2192
atp2193
sV684c93
p2194
(VGingerbread Waffles with Vanilla BeanOrange Butter Recipe
p2195
Vhttp://static.food2fork.com/30529_RecipeImage_620x413_gingerbread_waffles_vanilla_butter_21cc2.jpg
p2196
Vhttp://www.chow.com/recipes/30529-gingerbread-waffles-with-vanilla-bean-and-orange-butter
p2197
(lp2198
g17
ag29
ag306
aVsalt
p2199
ag10
ag7
aVginger
p2200
aVbaking powder
p2201
aVbaking soda
p2202
aVcinnamon
p2203
aVallspice
p2204
aNag6
aVwell-shaken buttermilk
p2205
aVdark molasses
p2206
aVvanilla extract
p2207
aVmaple syrup
p2208
atp2209
sV33760
p2210
(VVegan Cupcakes
p2211
Vhttp://static.food2fork.com/596350e5c1.jpg
p2212
Vhttp://allrecipes.com/Recipe/Vegan-Cupcakes/Detail.aspx
p2213
(lp2214
g625
ag39
ag10
ag7
aVbaking powder
p2215
aVbaking soda
p2216
aVsalt
p2217
aVcoconut oil
p2218
aVvanilla extract
p2219
atp2220
sVd17ce1
p2221
(VHoney Peach Muffins with Oat Streusel Topping
p2222
Vhttp://static.food2fork.com/HoneyPeachMuffinswithOatStreuselTopping113fb.jpg
p2223
Vhttp://www.twopeasandtheirpod.com/honey-peach-muffins-with-oat-streusel-topping/
p2224
(lp2225
g10
ag7
aVbaking powder
p2226
aVsalt
p2227
aVcinnamon
p2228
aVnutmeg
p2229
aVbuttermilk
p2230
ag17
aVhoney
p2231
ag6
aVvanilla extract
p2232
ag685
aNaVold fashioned oat
p2233
atp2234
sV43dd61
p2235
(VBlueberry Coffee Cake
p2236
Vhttp://static.food2fork.com/BlueberryCoffeeCake22c66.jpg
p2237
Vhttp://www.twopeasandtheirpod.com/blueberry-coffee-cake/
p2238
(lp2239
Nag10
aVbaking powder
p2240
aVbaking soda
p2241
aVsalt
p2242
aVcinnamon
p2243
ag7
ag51
ag17
ag6
aVvanilla extract
p2244
ag74
aVblueberry
p2245
atp2246
sV46871
p2247
(VChocolate Valentine Cookies
p2248
Vhttp://static.food2fork.com/cookies2128c.jpg
p2249
Vhttp://thepioneerwoman.com/cooking/2013/02/chocolate-valentines/
p2250
(lp2251
g10
aVbaking powder
p2252
aVsalt
p2253
aVcinnamon
p2254
aVunsweetened cocoa powder
p2255
ag7
ag6
aVvanilla extract
p2256
aValphabet stencil
p2257
ag17
atp2258
sVd4890a
p2259
(VChocolate &amp; caramel layer cake
p2260
Vhttp://static.food2fork.com/1161646_MEDIUMcf14.jpg
p2261
Vhttp://www.bbcgoodfood.com/recipes/1161646/chocolate-and-caramel-layer-cake
p2262
(lp2263
g17
ag7
ag10
aValmond
p2264
aVbaking powder
p2265
ag6
ag1370
aVvanilla extract
p2266
aVcocoa powder
p2267
aVcocoa
p2268
aVcaramel
p2269
aVdark chocolate
p2270
ag39
aVdouble cream
p2271
atp2272
sV7da0fc
p2273
(VRhubarb &amp; custard cake
p2274
Vhttp://static.food2fork.com/10500_MEDIUMbe2e.jpg
p2275
Vhttp://www.bbcgoodfood.com/recipes/10500/rhubarb-and-custard-cake
p2276
(lp2277
Vquantity barney roasted rhubarb see recipe
p2278
ag17
ag1370
ag10
aVbaking powder
p2279
ag6
aVvanilla extract
p2280
ag7
atp2281
sV371d1c
p2282
(VSmore Rice Krispies
p2283
Vhttp://static.food2fork.com/GA9A21511c70e.jpg
p2284
Vhttp://whatsgabycooking.com/smore-rice-krispies/
p2285
(lp2286
g17
aVmini marshmallow
p2287
ag99
ag544
ag90
aVinstructionsspray baking tin with non-stick baking spray set aside
p2288
atp2289
sVf89208
p2290
(Vmajestic and moist honey cake
p2291
Vhttp://static.food2fork.com/2885475916_7bfe296e1a2b05.jpg
p2292
Vhttp://smittenkitchen.com/blog/2008/09/majestic-and-moist-honey-cake/
p2293
(lp2294
g10
aVbaking powder see update above
p2295
aVbaking soda
p2296
aVkosher salt
p2297
aVcinnamon
p2298
aNaVallspice
p2299
aVvegetable oil
p2300
aVhoney
p2301
ag7
ag6
aVvanilla extract
p2302
ag41
ag306
ag2048
aVslivered sliced almond
p2303
atp2304
sV93a5a4
p2305
(Vgramercy taverns gingerbread
p2306
Vhttp://static.food2fork.com/3132778039_b1c8840b9a1274.jpg
p2307
Vhttp://smittenkitchen.com/blog/2008/12/gramercy-taverns-gingerbread/
p2308
(lp2309
Voatmeal stout guinness stout
p2310
aVdark molasses
p2311
aVbaking soda
p2312
ag10
aVbaking powder
p2313
aVginger
p2314
aVcinnamon
p2315
aNaVnutmeg
p2316
aVcardamom
p2317
ag6
ag7
aVvegetable oil
p2318
atp2319
sV54347
p2320
(VZucchini Coconut Bread
p2321
Vhttp://static.food2fork.com/zucchinicoconutbread582e8.jpg
p2322
Vhttp://www.twopeasandtheirpod.com/zucchini-coconut-bread/
p2323
(lp2324
g10
aVbaking soda
p2325
aVbaking powder
p2326
aVsalt
p2327
aVcinnamon
p2328
aVnutmeg
p2329
aVzucchini
p2330
ag7
aVcoconut oil
p2331
ag74
ag6
aVvanilla extract
p2332
aVsweetened coconut
p2333
atp2334
sVccb6af
p2335
(VDouble Chocolate-Peppermint Crunch Cookies
p2336
Vhttp://static.food2fork.com/3625937be4.jpg
p2337
Vhttp://www.epicurious.com/recipes/food/views/Double-Chocolate-Peppermint-Crunch-Cookies-362593
p2338
(lp2339
g90
ag10
aVnatural unsweetened cocoa powder
p2340
aVbaking powder
p2341
aVinstant espresso powder
p2342
aVsalt
p2343
ag17
ag7
aVvanilla extract
p2344
aVpeppermint extract
p2345
ag6
ag268
atp2346
sV54276
p2347
(VBaked Blueberry Coconut Oatmeal
p2348
Vhttp://static.food2fork.com/bakedblueberrycoconutoatmeal17650.jpg
p2349
Vhttp://www.twopeasandtheirpod.com/baked-blueberry-coconut-oatmeal/
p2350
(lp2351
Vrolled oat
p2352
aVunsweetened coconut flake
p2353
ag7
aVsalt
p2354
aVbaking powder
p2355
aVcinnamon
p2356
ag39
ag6
aVcoconut oil
p2357
aVvanilla extract
p2358
aVblueberry
p2359
atp2360
sV03863b
p2361
(VFlourless Chocolate Peanut Butter Cookies
p2362
Vhttp://static.food2fork.com/FlourlessChocolatePeanutButterCookies14011.jpg
p2363
Vhttp://www.twopeasandtheirpod.com/flourless-chocolate-peanut-butter-cookies/
p2364
(lp2365
g82
ag7
ag6
aVvanilla extract
p2366
aVbaking soda
p2367
aVsalt
p2368
aVcocoa powder
p2369
ag90
atp2370
sV6420f7
p2371
(VBlueberry soured cream cake with cheesecake frosting
p2372
Vhttp://static.food2fork.com/1224_MEDIUM26d0.jpg
p2373
Vhttp://www.bbcgoodfood.com/recipes/1224/blueberry-soured-cream-cake-with-cheesecake-frosti
p2374
(lp2375
g17
ag7
ag6
ag10
aVbaking powder
p2376
aVvanilla extract
p2377
aVcarton soured cream
p2378
aVpunnet blueberry
p2379
aVtub philadelphia cheese
p2380
atp2381
sV44f748
p2382
(VOrange Cranberry Bread
p2383
Vhttp://static.food2fork.com/OrangeCranberryBread33b8a.jpg
p2384
Vhttp://www.twopeasandtheirpod.com/orange-cranberry-bread/
p2385
(lp2386
Nag10
aVsalt
p2387
aVbaking powder
p2388
ag7
ag306
aVbuttermilk
p2389
aVcanola vegetable oil
p2390
ag6
aVvanilla extract
p2391
aVcranberry
p2392
atp2393
sVc14e7b
p2394
(VWhole Wheat Oat Gingerbread Pumpkin Pancake Recipe
p2395
Vhttp://static.food2fork.com/WWGingerbreadPancakesSquaree881.jpg
p2396
Vhttp://www.cookincanuck.com/2013/01/whole-wheat-oat-gingerbread-pumpkin-pancake-recipe/
p2397
(lp2398
Vold-fashioned oat
p2399
ag10
aVbaking soda
p2400
aVbaking powder
p2401
aVginger
p2402
aVcinnamon
p2403
aVnutmeg
p2404
aVsalt
p2405
ag6
aVcanned pumpkin
p2406
aVmolasses
p2407
aVmaple syrup
p2408
ag39
aVvanilla extract
p2409
aS'grapefruit'
p2410
atp2411
sV54272
p2412
(VLemon Poppyseed Yogurt Pancakes
p2413
Vhttp://static.food2fork.com/LemonPoppyseedYogurtPancakes167b9.jpg
p2414
Vhttp://www.twopeasandtheirpod.com/lemon-poppy-seed-yogurt-pancakes/
p2415
(lp2416
g10
aVbaking powder
p2417
aVsalt
p2418
ag7
ag51
ag74
ag39
ag6
aVcanola oil
p2419
aVvanilla extract
p2420
aVpoppy seed
p2421
atp2422
sV55c5af
p2423
(VNutella & Sea Salt Stuffed Sugar Cookies
p2424
Vhttp://static.food2fork.com/6501336017_9fc5dd5f22e8a9.jpg
p2425
Vhttp://www.cookincanuck.com/2011/12/nutella-sea-salt-stuffed-sugar-cookie-recipe-oxo-baking-giveaway/
p2426
(lp2427
Vnutella chocolate-hazelnut spread
p2428
ag10
aVbaking powder
p2429
aVsalt
p2430
ag7
ag17
ag6
aVvanilla extract
p2431
aVsea salt
p2432
aVinstructionsusing measure
p2433
atp2434
sV33221
p2435
(VTruck-Stop Buttermilk Pancakes
p2436
Vhttp://static.food2fork.com/2298204804.jpg
p2437
Vhttp://allrecipes.com/Recipe/Truck-Stop-Buttermilk-Pancakes/Detail.aspx
p2438
(lp2439
g6
ag39
ag17
aVbuttermilk
p2440
ag10
aVbaking powder
p2441
aVbaking soda
p2442
aVsalt
p2443
ag7
atp2444
sV17c557
p2445
(VCandied Pecan Chocolate Chip Cookies
p2446
Vhttp://static.food2fork.com/CandiedPecanChocolateChipCookies113fd.jpg
p2447
Vhttp://www.twopeasandtheirpod.com/candied-pecan-chocolate-chip-cookies/
p2448
(lp2449
Nag10
aVbaking powder
p2450
aVbaking soda
p2451
aVsea salt
p2452
aVcinnamon
p2453
ag17
ag7
ag6
aVvanilla extract
p2454
aVcandied pecan
p2455
ag90
aVextra sea salt sprinkling cooky
p2456
atp2457
sV47209
p2458
(VCaramel Apple Sticky Buns
p2459
Vhttp://static.food2fork.com/3828323445_e95a51d208b1c6.jpg
p2460
Vhttp://thepioneerwoman.com/cooking/2009/08/caramel-apple-sticky-buns/
p2461
(lp2462
Nag39
ag7
aVcanola oil
p2463
aVactive dry yeast
p2464
ag10
aVsalt
p2465
aVbaking soda
p2466
aVbaking powder
p2467
ag17
aVcinnamon
p2468
ag223
aVcream
p2469
ag625
atp2470
sV47202
p2471
(VApple Cake in an Iron Skillet
p2472
Vhttp://static.food2fork.com/3921653516_ba3717ceff2b0d.jpg
p2473
Vhttp://thepioneerwoman.com/cooking/2009/09/apple-cake-in-an-iron-skillet/
p2474
(lp2475
g17
ag7
ag625
aNaVvanilla
p2476
ag6
aVsour cream
p2477
ag10
aVbaking powder
p2478
aVsalt
p2479
aVcinnamon
p2480
atp2481
sV20846
p2482
(VMagic Peanut Butter Middles
p2483
Vhttp://static.food2fork.com/16321b2b0.jpg
p2484
Vhttp://allrecipes.com/Recipe/Magic-Peanut-Butter-Middles/Detail.aspx
p2485
(lp2486
g10
aVunsweetened cocoa powder
p2487
aVbaking soda
p2488
ag7
ag17
ag82
aVvanilla extract
p2489
ag6
atp2490
sV3b55d6
p2491
(VCrispy Chocolate Chip Crunch Oatmeal Cookies
p2492
Vhttp://static.food2fork.com/CrispyChocolateChipCrunchOatmealCookies4f775.jpg
p2493
Vhttp://www.twopeasandtheirpod.com/crispy-chocolate-chip-crunch-oatmeal-cookies/
p2494
(lp2495
g10
aVbaking powder
p2496
aVbaking soda
p2497
aVsalt
p2498
ag17
ag7
ag6
aVvanilla extract
p2499
aVold fashioned oat
p2500
ag544
ag268
ag39
atp2501
sV47680
p2502
(VBasic Chocolate Cake
p2503
Vhttp://static.food2fork.com/basic_chocolate_cake_recipe4265.jpg
p2504
Vhttp://www.101cookbooks.com/archives/basic-chocolate-cake-recipe.html
p2505
(lp2506
g10
aVnon-alkaline non-dutched cocoa powder
p2507
aVbaking powder look non-aluminum type
p2508
aVsea salt
p2509
ag17
aVreal maple syrup
p2510
ag6
aVvanilla extract
p2511
ag39
aVgood-quality bittersweet chocolate
p2512
atp2513
sV2526
p2514
(VBaked Oatmeal I
p2515
Vhttp://static.food2fork.com/294495eda2.jpg
p2516
Vhttp://allrecipes.com/Recipe/Baked-Oatmeal-I/Detail.aspx
p2517
(lp2518
Vvegetable oil
p2519
ag7
ag6
ag39
aVsalt
p2520
aVbaking powder
p2521
aVquick cooking oat
p2522
aVraisin
p2523
aVcinnamon
p2524
atp2525
sV5350ee
p2526
(VAlmond Biscuit Shortcake with Roasted Figs Recipe
p2527
Vhttp://static.food2fork.com/31159_almond_drop_biscuit_3000f3af.jpg
p2528
Vhttp://www.chow.com/recipes/31159-almond-drop-biscuits-roasted-figs-amp-cream
p2529
(lp2530
g10
ag7
aVbaking powder baking soda kosher salt lager-style beer
p2531
ag17
aVsliced almond
p2532
aVblack fig
p2533
ag306
aVhoney
p2534
aVpure vanilla extract
p2535
aVwhipped cream
p2536
atp2537
sV11114
p2538
(VDavid\u2019s Yellow Cake
p2539
Vhttp://static.food2fork.com/148569476.jpg
p2540
Vhttp://allrecipes.com/Recipe/Davids-Yellow-Cake/Detail.aspx
p2541
(lp2542
g17
ag7
ag6
ag39
aVvanilla extract
p2543
ag360
aVbaking powder
p2544
aVsalt
p2545
atp2546
sV35852d
p2547
(VPumpkin Chocolate Chip Cookies
p2548
Vhttp://static.food2fork.com/PumpkinChocolateChipCookies19b5c.jpg
p2549
Vhttp://www.twopeasandtheirpod.com/pumpkin-chocolate-chip-cookies/
p2550
(lp2551
g10
aVsalt
p2552
aVbaking soda
p2553
aVbaking powder
p2554
aVcinnamon
p2555
aVnutmeg
p2556
aVginger
p2557
aNag17
ag7
ag6
aVvanilla extract
p2558
aVpumpkin puree
p2559
ag90
atp2560
sVf196d3
p2561
(VChocolate Cake with Whipped Fudge Filling and Chocolate Buttercream Recipe
p2562
Vhttp://static.food2fork.com/30481_RecipeImage_620x413_chcocolate_cake_fudge_filling_buttercream_3050c.jpg
p2563
Vhttp://www.chow.com/recipes/30481-chocolate-cake-with-whipped-fudge-filling-and-chocolate-buttercream
p2564
(lp2565
g10
aVbaking soda
p2566
aVsalt
p2567
aVdutch-process cocoa powder
p2568
aVboiling
p2569
ag39
ag17
ag7
aVvanilla extract
p2570
ag6
aVbittersweet chocolate
p2571
aVheavy cream
p2572
ag223
atp2573
sV47434
p2574
(VChocolate chip pecan cookies...with bacon grease
p2575
Vhttp://static.food2fork.com/baconchocolatechipcookie_DSC848567d92c0a.jpg
p2576
Vhttp://homesicktexan.blogspot.com/2010/09/chocolate-chip-cookies-bacon-grease.html
p2577
(lp2578
g493
ag17
ag7
ag6
aVbuttermilk
p2579
aVvanilla extract
p2580
ag10
aVbaking powder
p2581
aVbaking soda
p2582
aVcinnamon
p2583
aVsalt
p2584
aVcayenne
p2585
aVroasted pecan
p2586
ag90
atp2587
sV46937
p2588
(VOatmeal Whoopie Pies
p2589
Vhttp://static.food2fork.com/oatmealpiec6cd.jpg
p2590
Vhttp://thepioneerwoman.com/cooking/2012/04/oatmeal-whoopie-pies/
p2591
(lp2592
Nag7
ag17
ag533
ag6
aVsalt
p2593
aVcinnamon
p2594
aVbaking powder
p2595
aVboiling
p2596
aVbaking soda
p2597
ag10
aVquick oat
p2598
aVfilling option
p2599
aVmarshmallow creme
p2600
ag39
aVvanilla
p2601
atp2602
sV5a8116
p2603
(VBlueberry Pancake Muffins
p2604
Vhttp://static.food2fork.com/BlueberryPancakeMuffins36a8f.jpg
p2605
Vhttp://www.twopeasandtheirpod.com/blueberry-pancake-muffins/
p2606
(lp2607
Nag39
ag6
aVpure maple syrup
p2608
aVpure vanilla extract
p2609
ag17
ag10
ag7
aVbaking powder
p2610
aVsalt
p2611
aVblueberry
p2612
ag51
atp2613
sVa22cbb
p2614
(VBlueberry Lemon Yogurt Cake
p2615
Vhttp://static.food2fork.com/blueberrylemonyogurtcakerecipe270x3723057.jpg
p2616
Vhttp://cookieandkate.com/2015/blueberry-lemon-yogurt-cake-recipe/
p2617
(lp2618
g10
aVbaking powder
p2619
aVsea salt
p2620
ag51
ag7
ag74
ag6
aVpure vanilla extract
p2621
aVextra virgin olive oil
p2622
aVblueberry
p2623
aVhoney
p2624
ag544
atp2625
sV48944
p2626
(VSalted Caramel
p2627
Vhttp://static.food2fork.com/saltedcarameldingdongcake6468056.jpg
p2628
Vhttp://www.bonappetit.com/recipes/2012/10/salted-caramel-ding-dong-cake
p2629
(lp2630
Vnonstick vegetable oil spray
p2631
aVnatural unsweetened cocoa powder
p2632
aVsemisweet bittersweet chocolate
p2633
ag41
aVbuttermilk
p2634
aVvanilla extract
p2635
ag360
aVbaking powder
p2636
aVbaking soda
p2637
aVkosher salt
p2638
ag7
ag17
ag6
aVheavy cream
p2639
aVunflavored gelatin
p2640
aVchilled heavy cream
p2641
ag29
aVflaky sea salt
p2642
atp2643
sV447157
p2644
(VGranola Cake
p2645
Vhttp://static.food2fork.com/GranolaCake664ee.jpg
p2646
Vhttp://www.twopeasandtheirpod.com/granola-cake/
p2647
(lp2648
g10
aVbaking powder
p2649
aVbaking soda
p2650
aVcinnamon
p2651
aVnutmeg
p2652
aVgranola
p2653
ag17
aNaVbittersweet
p2654
aVcoconut
p2655
ag7
ag6
aVpure vanilla extract
p2656
aVsea salt
p2657
atp2658
sV49628
p2659
(VDevil
p2660
Vhttp://static.food2fork.com/spdevilsfoodcakewithblackpepperboiledicing326a5a9.jpg
p2661
Vhttp://www.bonappetit.com/recipes/2011/09/devils-food-cake-with-black-pepper-boiled-icing
p2662
(lp2663
Vbittersweet chocolate ndash cacao
p2664
aVkosher salt
p2665
aVheavy cream
p2666
aVunflavored gelatin
p2667
ag7
ag6
aS'frankfurters'
p2668
aVnonstick vegetable oil spray
p2669
aVunsweetened cocoa powder
p2670
ag10
ag360
aVbaking soda
p2671
aVbaking powder
p2672
ag17
aVvanilla paste vanilla extract
p2673
aVplus buttermilk
p2674
aVcocoa nib
p2675
ag29
aVblack pepper
p2676
atp2677
sV31415b
p2678
(VStrawberry Whipped Cream Cake Recipe
p2679
Vhttp://static.food2fork.com/strawberry_whipped_cream_cake_600eed9.jpg
p2680
Vhttp://www.chow.com/recipes/10995-strawberry-whipped-cream-cake
p2681
(lp2682
Vpint strawberry
p2683
ag7
ag51
aVvanilla extract
p2684
ag360
aVbaking powder
p2685
aVsalt
p2686
aVvegetable oil
p2687
aNag6
aVmascarpone cheese
p2688
aVheavy cream
p2689
atp2690
sV3d7139
p2691
(VChewy Lime Sugar Cookies
p2692
Vhttp://static.food2fork.com/LimeCookies1e197.jpg
p2693
Vhttp://www.mybakingaddiction.com/chewy-lime-sugar-cookies/
p2694
(lp2695
g10
aVbaking soda
p2696
aVbaking powder
p2697
aVsalt
p2698
ag17
ag7
ag6
aVvanilla extract
p2699
aVzest one lime
p2700
aVlime juice
p2701
aVunsweetened toasted coconut
p2702
atp2703
sV48986
p2704
(VCream Cheese Pound Cake with Citrus Glaze
p2705
Vhttp://static.food2fork.com/creamcheesepoundcakewithcitrusglaze646f43c.jpg
p2706
Vhttp://www.bonappetit.com/recipes/2012/09/cream-cheese-pound-cake-with-citrus-glaze
p2707
(lp2708
Vnonstick vegetable oil spray
p2709
ag360
aVbaking powder
p2710
aVkosher salt
p2711
aVbaking soda
p2712
ag7
ag306
ag51
aVfinely lime zest
p2713
ag17
aVcream cheese
p2714
ag6
aVvanilla extract
p2715
aVlime juice
p2716
atp2717
sV1921
p2718
(VAunt Norma's Rhubarb Muffins
p2719
Vhttp://static.food2fork.com/9543214179.jpg
p2720
Vhttp://allrecipes.com/Recipe/Aunt-Normas-Rhubarb-Muffins/Detail.aspx
p2721
(lp2722
g10
aVbaking soda
p2723
aVbaking powder
p2724
aVsalt
p2725
ag7
aVvegetable oil
p2726
ag6
aVvanilla extract
p2727
aVbuttermilk
p2728
aVdiced rhubarb
p2729
aVwalnut
p2730
ag17
aVcinnamon
p2731
atp2732
sVec6c64
p2733
(VSoft Peanut Butter Cookies
p2734
Vhttp://static.food2fork.com/SoftPeanutButterCookies7c647.jpg
p2735
Vhttp://www.twopeasandtheirpod.com/soft-peanut-butter-cookies/
p2736
(lp2737
g10
aVbaking soda
p2738
aVbaking powder
p2739
aVsalt
p2740
ag17
ag82
ag7
ag6
aVvanilla extract
p2741
atp2742
sV34db9d
p2743
(VBoston Ice Cream Pie Cake Recipe
p2744
Vhttp://static.food2fork.com/28654_boston_ice_cream_pie_620c609.jpg
p2745
Vhttp://www.chow.com/recipes/28654-boston-ice-cream-pie-cake
p2746
(lp2747
g17
ag360
aVbaking powder
p2748
aVsalt
p2749
aVvegetable oil
p2750
aNaVvanilla extract
p2751
ag6
aS'mushrooms '
p2752
ag7
aVsemisweet chocolate
p2753
aVheavy cream
p2754
aVquart
p2755
atp2756
sV38412
p2757
(VChocolate Cake With Coffee Frosting and Crushed Cookies
p2758
Vhttp://static.food2fork.com/oreocake_30005e33901.jpg
p2759
Vhttp://www.realsimple.com/food-recipes/browse-all-recipes/chocolate-cake-coffee-frosting-cookies-00000000057756/index.html
p2760
(lp2761
g17
aVunsweetened cocoa powder
p2762
ag10
aVbaking powder
p2763
aVbaking soda
p2764
aVkosher salt
p2765
ag7
aVpure vanilla extract
p2766
ag6
ag39
ag41
aVchocolate wafer cooky
p2767
atp2768
sV33124
p2769
(VTres Leches Cake
p2770
Vhttp://static.food2fork.com/384988ad12.jpg
p2771
Vhttp://allrecipes.com/Recipe/Tres-Leches-Milk-Cake/Detail.aspx
p2772
(lp2773
g10
aVbaking powder
p2774
ag17
ag7
ag6
aVvanilla extract
p2775
aVnbsp
p2776
ag39
aVheavy whipping cream
p2777
atp2778
sV7e2aba
p2779
(Vpeanut butter cookies
p2780
Vhttp://static.food2fork.com/2110316583_56b31fe97176f5.jpg
p2781
Vhttp://smittenkitchen.com/blog/2007/12/peanut-butter-cookies/
p2782
(lp2783
g10
aVbaking soda
p2784
aVbaking powder
p2785
aVsalt
p2786
ag17
ag82
ag7
ag6
ag39
aVvanilla extract
p2787
ag90
atp2788
sV46981
p2789
(VBlueberry Corn Mini-Muffins
p2790
Vhttp://static.food2fork.com/blueberrycornd924.jpg
p2791
Vhttp://thepioneerwoman.com/cooking/2011/11/blueberry-cornbread-mini-muffins/
p2792
(lp2793
Vmuffin
p2794
ag223
ag10
aVsalt
p2795
aVbaking powder
p2796
ag7
aVbuttermilk
p2797
ag39
aVbaking soda
p2798
ag6
ag533
aVvanilla
p2799
aNag17
ag360
ag29
atp2800
sVe7d38e
p2801
(VZucchini Bread Baked Oatmeal
p2802
Vhttp://static.food2fork.com/ZucchiniBreadBakedOatmeal69896.jpg
p2803
Vhttp://www.twopeasandtheirpod.com/zucchini-bread-baked-oatmeal/
p2804
(lp2805
Vold fashioned oat gluten-free oat
p2806
ag7
aVsalt
p2807
aVbaking powder
p2808
aVcinnamon
p2809
aVnutmeg
p2810
ag39
ag6
aVcoconut oil
p2811
aVvanilla extract
p2812
aVzucchini
p2813
aVcandied pecan
p2814
atp2815
sV35141
p2816
(VBlack Forest Pancakes
p2817
Vhttp://static.food2fork.com/Black2BForest2BPancakes2B5002B451165e504e2.jpg
p2818
Vhttp://www.closetcooking.com/2012/07/black-forest-pancakes.html
p2819
(lp2820
g10
aVunsweetened cocoa powder
p2821
ag7
aVbaking powder
p2822
aVsalt
p2823
ag39
ag6
ag17
aVsplash kirsch
p2824
aVcherry
p2825
ag223
aNaVwhipping cream
p2826
atp2827
sV902777
p2828
(VTurtle Cookies
p2829
Vhttp://static.food2fork.com/TurtleCookies2d6e7.jpg
p2830
Vhttp://www.mybakingaddiction.com/turtle-cookies-recipe/
p2831
(lp2832
g360
ag797
aVbaking soda
p2833
aVbaking powder
p2834
aVkosher salt
p2835
ag17
ag7
ag6
aVpure vanilla extract
p2836
ag90
aVcaramel bit
p2837
atp2838
sV6115
p2839
(VCarrot Pineapple Cake I
p2840
Vhttp://static.food2fork.com/2082317834.jpg
p2841
Vhttp://allrecipes.com/Recipe/Carrot-Pineapple-Cake-I/Detail.aspx
p2842
(lp2843
g10
aVbaking soda
p2844
aVbaking powder
p2845
aVsalt
p2846
aVcinnamon
p2847
ag7
aVvegetable oil
p2848
ag6
aVvanilla extract
p2849
ag307
aVflaked coconut
p2850
aVwalnut
p2851
aVpineapple
p2852
aVnbsp
p2853
aVcream cheese
p2854
ag17
atp2855
sV47638
p2856
(VButtermilk Berry Muffins
p2857
Vhttp://static.food2fork.com/buttermilk_berry_muffin_recipe0d08.jpg
p2858
Vhttp://www.101cookbooks.com/archives/buttermilk-berry-muffins-recipe.html
p2859
(lp2860
g10
ag7
aVsea salt
p2861
aVbaking soda
p2862
aVbaking powder
p2863
aVmashed
p2864
aVbuttermilk
p2865
ag6
aVvanilla extract
p2866
ag17
aVberry
p2867
aVrose cinnamon sugar*
p2868
atp2869
sV35606
p2870
(VStrawberry Greek Yogurt Banana Bread
p2871
Vhttp://static.food2fork.com/Greek2BYogurt2BStrawberry2BBanana2BBread2B5002B33932855f563.jpg
p2872
Vhttp://www.closetcooking.com/2012/07/strawberry-greek-yogurt-banana-bread.html
p2873
(lp2874
g10
aVbaking powder
p2875
aVbaking soda
p2876
aVsalt
p2877
ag7
ag83
ag6
aVvanilla extract
p2878
ag74
aVstrawberry
p2879
atp2880
sVd9a5e8
p2881
(VCinnamon Rolls
p2882
Vhttp://static.food2fork.com/333323997_04bd8d6c53da11.jpg
p2883
Vhttp://thepioneerwoman.com/cooking/2007/06/cinammon_rolls_/
p2884
(lp2885
g39
aVvegetable oil
p2886
ag7
aVactive dry yeast
p2887
ag360
aVbaking powder
p2888
aVbaking soda
p2889
aVsalt
p2890
ag17
aVgenerous sprinkling cinnamon
p2891
aNag64
aVmaple flavoring
p2892
ag41
atp2893
sV1dfe72
p2894
(VApple Zucchini Muffins
p2895
Vhttp://static.food2fork.com/AppleZucchiniMuffins6d98f.jpg
p2896
Vhttp://www.twopeasandtheirpod.com/apple-zucchini-muffins/
p2897
(lp2898
Nag10
ag7
aVbaking soda
p2899
aVbaking powder
p2900
aVsalt
p2901
aVcinnamon
p2902
aVallspice
p2903
aVbuttermilk
p2904
aVunsweetened applesauce
p2905
aVoil melted coconut oil
p2906
ag6
aVvanilla extract
p2907
ag625
aVzucchini
p2908
atp2909
sV47148
p2910
(VHot Cross Buns
p2911
Vhttp://static.food2fork.com/4480756172_de8cb850a69543.jpg
p2912
Vhttp://thepioneerwoman.com/cooking/2010/04/hot-cross-buns/
p2913
(lp2914
Vbun
p2915
ag39
aVcanola oil
p2916
ag7
aVactive dry yeast
p2917
ag10
aVbaking powder
p2918
aVbaking soda
p2919
aVsalt
p2920
aVcinnamon
p2921
aVspice cardamom
p2922
aVraisin
p2923
aVglaze
p2924
ag6
aVicing
p2925
atp2926
sV93eca2
p2927
(VTiramisu Ice Cream Sandwich
p2928
Vhttp://static.food2fork.com/IMG_19017f70.jpg
p2929
Vhttp://whatsgabycooking.com/tiramisu-ice-cream-sandwich/
p2930
(lp2931
Vmascarpone
p2932
ag39
aVheavy cream
p2933
ag7
aVsea salt
p2934
aVvanilla extract
p2935
aVsemisweet chocolate chunk dark rum
p2936
ag25
ag10
aVinstant espresso powder
p2937
aVbaking soda
p2938
ag17
ag6
atp2939
sV47022
p2940
(VRhubarb Cobbler
p2941
Vhttp://static.food2fork.com/rhubarbaa50.jpg
p2942
Vhttp://thepioneerwoman.com/cooking/2011/06/rhubarb-cobbler/
p2943
(lp2944
Vrhubarb
p2945
ag7
aVsalt
p2946
ag51
aValmond extract
p2947
ag10
aVbaking powder
p2948
ag533
ag17
ag39
ag6
atp2949
sVe6e780
p2950
(VEasy Cornbread
p2951
Vhttp://static.food2fork.com/EasyCornbread907a6.jpg
p2952
Vhttp://www.twopeasandtheirpod.com/easy-cornbread/
p2953
(lp2954
g10
aVcoarse cornmeal
p2955
ag7
aVbaking powder
p2956
aVbaking soda
p2957
aVsalt
p2958
aVbuttermilk
p2959
ag17
aVcanola vegetable oil
p2960
ag6
ag223
atp2961
sV37022
p2962
(VStrawberry Oatmeal Muffins
p2963
Vhttp://static.food2fork.com/strawberryoatmealmuffinsa295x2009ffb4adf.jpg
p2964
Vhttp://www.simplyrecipes.com/recipes/strawberry_oatmeal_muffins/
p2965
(lp2966
Vold fashioned oat
p2967
ag74
aVstrawberry
p2968
ag7
aVbalsamic vinegar
p2969
ag6
ag17
aVvanilla extract
p2970
ag10
aVbaking powder
p2971
aVbaking soda
p2972
aVsalt
p2973
aVfinely black pepper
p2974
aVcinnamon
p2975
atp2976
sVf90d4d
p2977
(VDark Chocolate Candy Cane Brownies
p2978
Vhttp://static.food2fork.com/darkchocolatecandycanebrownies_12642.jpg
p2979
Vhttp://www.mybakingaddiction.com/candy-cane-brownies/
p2980
(lp2981
g17
ag90
aVunsweetened cocoa powder
p2982
ag10
aVbaking powder
p2983
aVsalt
p2984
ag7
ag6
aVpure vanilla extract
p2985
ag268
atp2986
sVc909b6
p2987
(Vpumpkin muffins
p2988
Vhttp://static.food2fork.com/278242990_8a769641b175be.jpg
p2989
Vhttp://smittenkitchen.com/blog/2006/10/promise-keeper-pumpkin-eater/
p2990
(lp2991
g10
aVbaking powder
p2992
aVcanned solid-pack pumpkin
p2993
aVvegetable oil*
p2994
ag6
aVpumpkin-pie spice
p2995
aVplus sugar**
p2996
aVbaking soda
p2997
aVsalt
p2998
aVcinnamon
p2999
atp3000
sV472fda
p3001
(VAll Recipes
p3002
Vhttp://static.food2fork.com/glutenfreeoatwafflesrecipe18487.jpg
p3003
Vhttp://cookieandkate.com/2014/easy-gluten-free-oat-waffles/
p3004
(lp3005
Voat flour*
p3006
aVbaking powder
p3007
aVsalt
p3008
aVcinnamon
p3009
ag2752
ag17
ag6
aVmaple syrup
p3010
aVvanilla extract
p3011
atp3012
sV8969
p3013
(VClassic Peanut Butter Cookies
p3014
Vhttp://static.food2fork.com/2040563b59.jpg
p3015
Vhttp://allrecipes.com/Recipe/Classic-Peanut-Butter-Cookies/Detail.aspx
p3016
(lp3017
g17
ag82
ag7
ag6
ag10
aVbaking powder
p3018
aVsalt
p3019
aVbaking soda
p3020
atp3021
sV50062
p3022
(VChocolate-Raspberry Layer Cake
p3023
Vhttp://static.food2fork.com/mare_chocolate_raspberry_layer_cake_hd9a3.jpg
p3024
Vhttp://www.bonappetit.com/recipes/2010/06/chocolate_raspberry_layer_cake
p3025
(lp3026
Vnonstick vegetable oil spray
p3027
ag10
ag7
aVunsweetened cocoa powder
p3028
aVbaking soda
p3029
aVsalt
p3030
aNaVbuttermilk
p3031
aVvegetable oil
p3032
ag6
aVbittersweet chocolate not exceed cacao
p3033
aVheavy whipping cream
p3034
aVseedless raspberry jam
p3035
aV-ounce container raspberry
p3036
atp3037
sV54443
p3038
(VMini Eggnog Doughnut Muffins
p3039
Vhttp://static.food2fork.com/eggnogdoughnutmuffins29208.jpg
p3040
Vhttp://www.twopeasandtheirpod.com/mini-egg-nog-doughnut-muffins/
p3041
(lp3042
g17
aVcanola oil
p3043
ag7
ag6
ag10
aVbaking powder
p3044
aVbaking soda
p3045
aVnutmeg
p3046
aVsalt
p3047
aVvanilla extract
p3048
aVeggnog
p3049
aNaVvanilla
p3050
aVcinnamon
p3051
atp3052
sV54526
p3053
(VGlazed Lemon Cookies
p3054
Vhttp://static.food2fork.com/glazedlemoncookies2ee53.jpg
p3055
Vhttp://www.twopeasandtheirpod.com/glazed-lemon-cookies/
p3056
(lp3057
g10
aVbaking powder
p3058
aVsalt
p3059
ag7
ag51
ag17
ag6
aVvanilla extract
p3060
aNatp3061
sV28ffb7
p3062
(VPecan Turtle Brownies Recipe
p3063
Vhttp://static.food2fork.com/14156_RecipeImage_620x413_pecan_turtles644d.jpg
p3064
Vhttp://www.chow.com/recipes/14156-pecan-turtle-brownies
p3065
(lp3066
Vbittersweet chocolate
p3067
ag17
ag6
ag7
aVvanilla extract
p3068
aVsalt
p3069
ag10
aVbaking powder
p3070
aNaVheavy cream
p3071
aVtoasted pecan
p3072
atp3073
sV54305
p3074
(VSoft Gingersnaps with White Chocolate Cream Cheese Frosting
p3075
Vhttp://static.food2fork.com/HolidayCookieCravings144dce4.jpg
p3076
Vhttp://www.twopeasandtheirpod.com/soft-gingersnaps-with-white-chocolate-cream-cheese-frosting/
p3077
(lp3078
Nag10
aVbaking powder
p3079
aVsalt
p3080
aVginger
p3081
aVcinnamon
p3082
aVnutmeg
p3083
ag17
ag7
ag6
aVvanilla extract
p3084
aVmolasses
p3085
aVcream cheese
p3086
aVwhite chocolate
p3087
atp3088
sV2fac5e
p3089
(VMy Moms Muffins
p3090
Vhttp://static.food2fork.com/muffins2f9ab.jpg
p3091
Vhttp://thepioneerwoman.com/cooking/2013/04/my-moms-muffins/
p3092
(lp3093
g10
aVflaxseed flaxseed meal
p3094
aVregular oat
p3095
ag7
aVsalt
p3096
aVbaking soda
p3097
aVbaking powder
p3098
aVcinnamon
p3099
aVwalnut
p3100
aVraisin
p3101
aVbuttermilk
p3102
ag6
ag83
aVapplesauce
p3103
aVmolasses
p3104
aVextra buttermilk thinning
p3105
atp3106
sV2d7f4c
p3107
(VHealthy Pumpkin Chocolate Chip Cookies {Vegan}
p3108
Vhttp://static.food2fork.com/VeganPumpkinChocolateChipCookies121ee.jpg
p3109
Vhttp://www.twopeasandtheirpod.com/healthy-pumpkin-chocolate-chip-cookies/
p3110
(lp3111
g10
aVsalt
p3112
aVbaking soda
p3113
aVbaking powder
p3114
aVcinnamon
p3115
aVnutmeg
p3116
aVginger
p3117
aNaVcoconut oil
p3118
ag7
aVvanilla extract
p3119
aVpumpkin puree
p3120
ag90
atp3121
sV0b3e9f
p3122
(Vroasted apple spice sheet cake
p3123
Vhttp://static.food2fork.com/7994408007_dfe1f50b5b25eb.jpg
p3124
Vhttp://smittenkitchen.com/blog/2012/09/roasted-apple-spice-sheet-cake/
p3125
(lp3126
g625
ag10
aVtable salt
p3127
aVbaking soda
p3128
aVbaking powder
p3129
aVcinnamon
p3130
aVginger
p3131
aNaVnutmeg
p3132
aVhoney
p3133
aVupdated gram applesauce
p3134
ag17
ag7
ag6
aV-ounce block cream cheese
p3135
aVstick
p3136
aVvanilla extract
p3137
atp3138
sV4d2a1e
p3139
(VBaked Peanut Butter Apple Oatmeal
p3140
Vhttp://static.food2fork.com/PeanutButterAppleBakedOatmeal63bdd.jpg
p3141
Vhttp://www.twopeasandtheirpod.com/baked-peanut-butter-apple-oatmeal/
p3142
(lp3143
Vold fashioned oat use gluten-free oat
p3144
ag7
aVsalt
p3145
aVbaking powder
p3146
aVcinnamon
p3147
ag39
ag6
aVunsweetened applesauce
p3148
aVvanilla extract
p3149
ag82
ag625
atp3150
sV86e1a5
p3151
(VLemon Almond Biscotti
p3152
Vhttp://static.food2fork.com/lemonalmondbiscottidsc_9728105b2.jpg
p3153
Vhttp://www.elanaspantry.com/lemon-almond-biscotti/
p3154
(lp3155
g10
aVarrowroot powder
p3156
aVceltic sea salt
p3157
aVbaking soda
p3158
aVagave nectar honey
p3159
ag51
aVtoasted almond
p3160
atp3161
sV8746
p3162
(VCinnamon Belgian Waffles
p3163
Vhttp://static.food2fork.com/2668435acb.jpg
p3164
Vhttp://allrecipes.com/Recipe/Cinnamon-Belgian-Waffles/Detail.aspx
p3165
(lp3166
g6
aVvanilla extract
p3167
aVbuttermilk
p3168
ag17
ag10
aVbaking powder
p3169
aVbaking soda
p3170
ag7
aVsalt
p3171
aVcinnamon
p3172
atp3173
sV1f600b
p3174
(Vbest birthday cake
p3175
Vhttp://static.food2fork.com/3703183186_956405d4f37e1d.jpg
p3176
Vhttp://smittenkitchen.com/blog/2009/07/best-birthday-cake/
p3177
(lp3178
Nag25
aVspin wonderful
p3179
ag360
aVbaking powder
p3180
aVbaking soda
p3181
aVtable salt
p3182
aVstick
p3183
ag7
aVpure vanilla extract
p3184
ag6
aVbuttermilk
p3185
aVsemisweet bittersweet chocolate
p3186
aVinstant espresso optional
p3187
aVsour cream
p3188
ag223
aVvanilla extract
p3189
atp3190
sV2803
p3191
(VBanana Crumb Muffins
p3192
Vhttp://static.food2fork.com/124030cedd.jpg
p3193
Vhttp://allrecipes.com/Recipe/Banana-Crumb-Muffins/Detail.aspx
p3194
(lp3195
g10
aVbaking soda
p3196
aVbaking powder
p3197
aVsalt
p3198
ag83
ag7
ag6
ag17
aVcinnamon
p3199
atp3200
sV47804
p3201
(VCoconut Chocolate Pudding
p3202
Vhttp://static.food2fork.com/chocolatepuddingrecipe_072f91.jpg
p3203
Vhttp://www.101cookbooks.com/archives/coconut-chocolate-pudding-recipe.html
p3204
(lp3205
g39
ag7
aVscant salt
p3206
aVarrowroot powder
p3207
aNaVraz hanout spice blend
p3208
aVcurry powder
p3209
aValkalized dutch-cocoa powder
p3210
aV-ounce bar semi-sweet chocolate
p3211
aVvanilla extract
p3212
aVcoconut flake
p3213
atp3214
sVf742bd
p3215
(VSpiced toffee apple cake
p3216
Vhttp://static.food2fork.com/1758668_MEDIUM30ec.jpg
p3217
Vhttp://www.bbcgoodfood.com/recipes/1758668/spiced-toffee-apple-cake
p3218
(lp3219
Vdate
p3220
ag39
ag17
ag10
ag7
aVbaking powder
p3221
ag6
aVmixed spice
p3222
aVvanilla extract
p3223
ag625
ag51
aVtoffee
p3224
atp3225
sVabbdd1
p3226
(VPaleo Brownies
p3227
Vhttp://static.food2fork.com/PaleoBrownies082001f9.jpg
p3228
Vhttp://www.elanaspantry.com/paleo-brownies/
p3229
(lp3230
g10
aVceltic sea salt
p3231
aVbaking soda
p3232
aVbaking chocolate cacao
p3233
aVmedjool date removed
p3234
ag6
aVcoconut oil
p3235
aVvanilla stevia
p3236
atp3237
sV82cef6
p3238
(VChocolate Pomegranate Petit Fours
p3239
Vhttp://static.food2fork.com/IMG_5449180x18052a9.jpg
p3240
Vhttp://www.aspicyperspective.com/2012/01/chocolate-pomegranate-petit-fours.html
p3241
(lp3242
Nag7
ag10
aVcocoa powder
p3243
aVbaking powder
p3244
aVbaking soda
p3245
ag41
aVsalt
p3246
ag6
aVbuttermilk
p3247
aVvegetable oil
p3248
aVvanilla extract
p3249
aVscalding
p3250
ag17
aVpomegranate juice
p3251
ag39
aVdark chocolate
p3252
ag533
atp3253
sV3dfa41
p3254
(VBaked Steel Cut Oatmeal with Tart Cherries &amp; Pepitas
p3255
Vhttp://static.food2fork.com/BakedSteelCutOatmealTartCherriesSquare300x30054e2.jpg
p3256
Vhttp://www.cookincanuck.com/2015/01/baked-steel-cut-oatmeal-with-tart-cherries-pepitas/
p3257
(lp3258
Vsteel cut oat
p3259
aVpepitas
p3260
aVflax seed
p3261
aVbaking powder
p3262
aVkosher salt
p3263
aVcinnamon
p3264
aVnutmeg
p3265
aVginger
p3266
ag39
aVmaple syrup
p3267
aVmelted coconut oil
p3268
ag6
aVvanilla extract
p3269
aVtart cherry
p3270
atp3271
sV38799
p3272
(VYellow Cake With Strawberry Filling and Chocolate Sour Cream Frosting
p3273
Vhttp://static.food2fork.com/strawberrycake_3008d539318.jpg
p3274
Vhttp://www.realsimple.com/food-recipes/browse-all-recipes/yellow-cake-strawberry-filling-chocolate-frosting-00000000057755/index.html
p3275
(lp3276
g17
ag10
aVbaking powder
p3277
aVbaking soda
p3278
aVkosher salt
p3279
ag7
aVpure vanilla extract
p3280
ag6
ag39
aVrecipe strawberry filling
p3281
aVrecipe chocolate sour cream frosting
p3282
aVquart strawberry
p3283
aVseedless raspberry jam
p3284
atp3285
sV62dacc
p3286
(VWorld Peace Cookie
p3287
Vhttp://static.food2fork.com/360733e051.jpg
p3288
Vhttp://www.epicurious.com/recipes/food/views/World-Peace-Cookie-360733
p3289
(lp3290
g10
aVnatural unsweetened cocoa powder
p3291
aVbaking soda
p3292
ag17
ag7
aVvanilla extract
p3293
aVsea salt
p3294
aVextra-bittersweet chocolate not exceed cacao
p3295
atp3296
sV29396
p3297
(VSoft Sugar Cookies IV
p3298
Vhttp://static.food2fork.com/455784630.jpg
p3299
Vhttp://allrecipes.com/Recipe/Soft-Sugar-Cookies-Iv/Detail.aspx
p3300
(lp3301
g533
ag17
ag7
ag6
aVvanilla extract
p3302
ag10
aVbaking powder
p3303
aVsalt
p3304
atp3305
sV37152
p3306
(VZucchini Bread with Pineapple
p3307
Vhttp://static.food2fork.com/zucchinibreadpineapplea300x200a76d266a.jpg
p3308
Vhttp://www.simplyrecipes.com/recipes/zucchini_bread_with_pineapple/
p3309
(lp3310
g10
aVbaking soda
p3311
aVsalt
p3312
aVbaking powder
p3313
aVcinnamon
p3314
aVnutmeg
p3315
ag6
ag7
aVolive oil
p3316
aVvanilla
p3317
aVcoarsely zucchini
p3318
aVpineapple
p3319
aVwalnut
p3320
aVgolden raisin
p3321
atp3322
sV3feac0
p3323
(VChocolate Muffins
p3324
Vhttp://static.food2fork.com/ChocolateMuffins1of12629.jpg
p3325
Vhttp://www.mybakingaddiction.com/chocolate-muffins/
p3326
(lp3327
g10
aVbaking powder
p3328
aVbaking soda
p3329
aVdark unsweetened cocoa powder
p3330
ag7
ag90
ag39
aVvegetable oil
p3331
ag6
aVinstant espresso granule dissolved
p3332
atp3333
sV455b32
p3334
(VChocolate and Peanut Butter Lover's Brownies
p3335
Vhttp://static.food2fork.com/ChocolatePeanutButterBrownies8c426.jpg
p3336
Vhttp://www.twopeasandtheirpod.com/chocolate-and-peanut-butter-lovers-brownies/
p3337
(lp3338
Nag17
aVsemisweet chocolate
p3339
ag10
aVunsweetened cocoa powder
p3340
aVbaking soda
p3341
aVbaking powder
p3342
aVsalt
p3343
ag7
ag6
aVvanilla extract
p3344
ag90
ag82
aVcoconut oil
p3345
ag39
aVheavy cream
p3346
atp3347
sVad35ce
p3348
(VChocolate Chocolate White Chocolate Chip Cookies
p3349
Vhttp://static.food2fork.com/cookies218677.jpg
p3350
Vhttp://thepioneerwoman.com/cooking/2013/05/chocolate-chocolate-white-chocolate-chip-cookies/
p3351
(lp3352
g17
ag7
ag6
aVvanilla extract
p3353
ag10
aVcocoa powder
p3354
aVbaking soda
p3355
aVsalt
p3356
ag90
atp3357
sV47668
p3358
(VChocolate Cherry Brownies
p3359
Vhttp://static.food2fork.com/choco_cherry_browniesab24.jpg
p3360
Vhttp://www.101cookbooks.com/archives/chocolate-cherry-brownies-recipe.html
p3361
(lp3362
g17
aVcherry
p3363
ag1613
ag10
aVunsweetened cocoa powder
p3364
aVsea salt
p3365
aVbaking powder
p3366
ag90
ag7
ag6
aVscant creme fraiche sour cream
p3367
aVmore cocoa powder
p3368
atp3369
sV38592
p3370
(VGlazed Triple-Chocolate Pound Cake
p3371
Vhttp://static.food2fork.com/chocolatepoundcakeictcrop_3005fd7aedc.jpg
p3372
Vhttp://www.realsimple.com/food-recipes/browse-all-recipes/glazed-triple-chocolate-pound-cake-00100000089158/index.html
p3373
(lp3374
Nag17
ag10
aVunsweetened cocoa powder
p3375
aVkosher salt
p3376
aVbaking soda
p3377
aVbaking powder
p3378
ag7
aVpure vanilla extract
p3379
ag6
aVsemisweet chocolate
p3380
aVchocolate syrup
p3381
aVbuttermilk
p3382
atp3383
sV47667
p3384
(VQuinoa Skillet Bread
p3385
Vhttp://static.food2fork.com/quinoa_skillet_bread_recipe1340.jpg
p3386
Vhttp://www.101cookbooks.com/archives/quinoa-skillet-bread-recipe.html
p3387
(lp3388
g17
ag10
aVyellow cornmeal
p3389
aVbaking powder
p3390
aVbaking soda
p3391
aVmixed herb
p3392
ag6
ag432
ag7
aVsea salt
p3393
ag39
ag1613
aVheavy cream
p3394
atp3395
sV47661
p3396
(VWhole Wheat Oatmeal Chocolate Chip Cookies
p3397
Vhttp://static.food2fork.com/whole_wheat_oatmeal_cookiese15f.jpg
p3398
Vhttp://www.101cookbooks.com/archives/whole-wheat-oatmeal-chocolate-chip-cookies-recipe.html
p3399
(lp3400
Vrolled oat
p3401
ag10
aVwheat bran
p3402
aVbaking soda
p3403
aVbaking powder
p3404
aVsea salt
p3405
ag17
ag7
ag6
aVvanilla extract
p3406
aVsemi-sweet chocolate bar
p3407
atp3408
sV34a116
p3409
(VBest-ever chocolate layer cake
p3410
Vhttp://static.food2fork.com/1190635_MEDIUMcda4.jpg
p3411
Vhttp://www.bbcgoodfood.com/recipes/1190635/bestever-chocolate-layer-cake
p3412
(lp3413
g10
aVcocoa powder
p3414
ag41
ag17
ag7
aVbaking powder
p3415
ag6
ag39
aVdark chocolate
p3416
aVdouble cream
p3417
atp3418
sV38841
p3419
(VSugar-Crusted Raspberry Muffins
p3420
Vhttp://static.food2fork.com/raspberrymuffins_3007d342d6f.jpg
p3421
Vhttp://www.realsimple.com/food-recipes/browse-all-recipes/sugar-crusted-raspberry-muffins-10000001085085/index.html
p3422
(lp3423
g10
ag7
aVbaking powder
p3424
aVsalt
p3425
ag17
ag39
ag6
aVvanilla extract
p3426
aVraspberry
p3427
atp3428
sV961b64
p3429
(VWhole Wheat Oatmeal Chocolate Chip Cookies {Made with Coconut Oil}
p3430
Vhttp://static.food2fork.com/WholeWheatOatmealChocolateChipCookies1b3be.jpg
p3431
Vhttp://www.twopeasandtheirpod.com/whole-wheat-oatmeal-chocolate-chip-cookies-made-with-coconut-oil/
p3432
(lp3433
g10
aVbaking powder
p3434
aVbaking soda
p3435
aVsalt
p3436
aVcoconut oil
p3437
ag7
ag6
aVvanilla extract
p3438
aVold fashioned oat
p3439
ag90
aVsea salt
p3440
atp3441
sV11065
p3442
(VDark Chocolate Cake I
p3443
Vhttp://static.food2fork.com/119590ea2d.jpg
p3444
Vhttp://allrecipes.com/Recipe/Dark-Chocolate-Cake-I/Detail.aspx
p3445
(lp3446
Vboiling
p3447
aVunsweetened cocoa powder
p3448
ag10
aVbaking soda
p3449
aVbaking powder
p3450
aVsalt
p3451
ag17
ag7
ag6
aVvanilla extract
p3452
atp3453
sV11064
p3454
(VDark Chocolate Bacon Cupcakes
p3455
Vhttp://static.food2fork.com/4569806186.jpg
p3456
Vhttp://allrecipes.com/Recipe/Dark-Chocolate-Bacon-Cupcakes/Detail.aspx
p3457
(lp3458
g493
ag10
aVunsweetened cocoa powder
p3459
ag7
aVbaking soda
p3460
aVbaking powder
p3461
aVsea salt
p3462
ag6
aNaVbuttermilk
p3463
aVvegetable oil
p3464
atp3465
sV36700
p3466
(VPeanut Butter Cookies
p3467
Vhttp://static.food2fork.com/peanutbuttercookieweb285x200e296498b.jpg
p3468
Vhttp://www.simplyrecipes.com/recipes/peanut_butter_cookies/
p3469
(lp3470
g7
ag17
ag82
ag6
ag10
aVbaking soda
p3471
aVbaking powder
p3472
aVsalt
p3473
atp3474
sV8663
p3475
(VChunky Monkey Pancakes
p3476
Vhttp://static.food2fork.com/439294a9f3.jpg
p3477
Vhttp://allrecipes.com/Recipe/Chunky-Monkey-Pancakes/Detail.aspx
p3478
(lp3479
g10
aVbaking powder
p3480
aVbaking soda
p3481
aVsalt
p3482
ag39
ag17
ag6
ag7
aVvanilla extract
p3483
ag83
ag90
aVpecan
p3484
aVcooking spray
p3485
atp3486
sV4fb2e1
p3487
(VPeppermint Pattie Brownies
p3488
Vhttp://static.food2fork.com/PeppermintPattieBrownies10096d.jpg
p3489
Vhttp://www.twopeasandtheirpod.com/peppermint-pattie-brownies/
p3490
(lp3491
Nag17
ag7
aVdutch-process cocoa
p3492
aVbaking powder
p3493
aVsalt
p3494
aVvanilla extract
p3495
ag6
ag10
aVpeppermint patty
p3496
ag90
aVheavy cream
p3497
atp3498
sV54476
p3499
(VLime and Coconut Crumble Bars
p3500
Vhttp://static.food2fork.com/limecoconutcrumblebars35b0b.jpg
p3501
Vhttp://www.twopeasandtheirpod.com/lime-and-coconut-crumble-bars/
p3502
(lp3503
g17
ag7
ag10
aVbaking powder
p3504
aVsalt
p3505
aVold fashioned oat
p3506
aVsweetened coconut
p3507
ag39
aVvanilla extract
p3508
aVlime juice
p3509
aVlime zest
p3510
atp3511
sVc6e743
p3512
(VRhubarb crumble muffins
p3513
Vhttp://static.food2fork.com/1263686_MEDIUM6452.jpg
p3514
Vhttp://www.bbcgoodfood.com/recipes/1263686/rhubarb-crumble-muffins
p3515
(lp3516
g7
aVrhubarb
p3517
aVsunflower oil
p3518
ag6
aVvanilla extract
p3519
aVbuttermilk
p3520
ag10
aVbaking powder
p3521
aVbicarbonate soda
p3522
aVporridge oat
p3523
aVcinnamon
p3524
ag17
atp3525
sV43f8d0
p3526
(VSlutty Blondie Brownies
p3527
Vhttp://static.food2fork.com/IMG_80022ec3.jpg
p3528
Vhttp://whatsgabycooking.com/slutty-blondies/
p3529
(lp3530
g17
ag7
aVvanilla
p3531
ag6
ag10
aVbaking powder
p3532
aVsalt
p3533
aVbaking soda
p3534
ag90
ag25
aVvanilla extract
p3535
atp3536
sV50533
p3537
(VPumpkin-Walnut Flapjacks
p3538
Vhttp://static.food2fork.com/mare_pumpkin_walnut_flapjacks_v3fb2.jpg
p3539
Vhttp://www.bonappetit.com/recipes/2003/10/pumpkin_walnut_flapjacks
p3540
(lp3541
Vbuttermilk
p3542
aVcanned pure pumpkin
p3543
ag6
ag7
aVvanilla extract
p3544
ag17
ag360
aVpumpkin pie spice
p3545
aVbaking soda
p3546
aVbaking powder
p3547
aVsalt
p3548
aVnbsp
p3549
aVfinely walnut
p3550
aVpure maple syrup
p3551
atp3552
sV54408
p3553
(VPeanut Butter Oatmeal Sandwich Cookies
p3554
Vhttp://static.food2fork.com/peanutbutteroatmealsandwichcookies9764.jpg
p3555
Vhttp://www.twopeasandtheirpod.com/peanut-butter-oatmeal-sandwich-cookies/
p3556
(lp3557
g10
aVbaking soda
p3558
aVbaking powder
p3559
aVsalt
p3560
ag17
ag82
ag7
ag6
aVvanilla extract
p3561
aVquick-cooking oat
p3562
ag25
aVheavy cream
p3563
atp3564
sV617f30
p3565
(Vwhole wheat apple muffins
p3566
Vhttp://static.food2fork.com/2404920582_015ea206f807e2.jpg
p3567
Vhttp://smittenkitchen.com/blog/2008/04/whole-wheat-apple-muffins/
p3568
(lp3569
g10
aVbaking powder
p3570
aVbaking soda
p3571
aVsalt
p3572
aVcinnamon
p3573
aVstick
p3574
ag7
ag6
ag74
ag625
atp3575
sVce692f
p3576
(Vcarrot cake pancakes
p3577
Vhttp://static.food2fork.com/6851162576_162714aa171d7e.jpg
p3578
Vhttp://smittenkitchen.com/blog/2012/03/carrot-cake-pancakes/
p3579
(lp3580
g10
aVbaking powder
p3581
aVbaking soda
p3582
aVtable salt
p3583
aVcinnamon
p3584
aVnutmeg
p3585
aVginger
p3586
aVwalnut optional
p3587
aVgolden raisin optional
p3588
ag6
ag7
aVbuttermilk
p3589
aVpure vanilla extract
p3590
ag307
ag17
aVcream cheese
p3591
ag39
atp3592
sV54406
p3593
(VOrange Almond Scones
p3594
Vhttp://static.food2fork.com/orangealmondsconesd6d5.jpg
p3595
Vhttp://www.twopeasandtheirpod.com/orange-almond-scones/
p3596
(lp3597
g10
aVbaking powder
p3598
aVbaking soda
p3599
aVsalt
p3600
ag7
ag306
ag17
ag6
aVbuttermilk
p3601
aVvanilla extract
p3602
aValmond extract
p3603
aValmond
p3604
aNatp3605
sV47079
p3606
(VParker House Rolls
p3607
Vhttp://static.food2fork.com/5196434061_078ec77c90_od656.jpg
p3608
Vhttp://thepioneerwoman.com/cooking/2010/11/parker-house-rolls/
p3609
(lp3610
g39
ag360
ag7
aVactive dry yeast
p3611
ag10
aVbaking powder
p3612
aVbaking soda
p3613
aVsalt
p3614
ag17
atp3615
sV074759
p3616
(VVegan Banana Blueberry Muffins
p3617
Vhttp://static.food2fork.com/VeganBlueberryBananaMuffins177da.jpg
p3618
Vhttp://www.twopeasandtheirpod.com/vegan-banana-blueberry-muffins/
p3619
(lp3620
g10
aVbaking powder
p3621
aVbaking soda
p3622
aVsalt
p3623
aVcinnamon
p3624
ag83
ag7
aVcoconut oil
p3625
ag39
aVpure vanilla extract
p3626
aVblueberry
p3627
atp3628
sV35497
p3629
(VPumpkin Greek Yogurt Banana Bread
p3630
Vhttp://static.food2fork.com/Pumpkin2BGreek2BYogurt2BBanana2BBread2B5002B2307067174df.jpg
p3631
Vhttp://www.closetcooking.com/2012/10/pumpkin-greek-yogurt-banana-bread.html
p3632
(lp3633
g10
aVbaking powder
p3634
aVbaking soda
p3635
aVsalt
p3636
aVcinnamon
p3637
aVginger
p3638
aVnutmeg
p3639
aNag7
aVpumpkin puree
p3640
ag83
ag6
ag74
aVpecan
p3641
atp3642
sV06ab2e
p3643
(VLemon Almond Bread
p3644
Vhttp://static.food2fork.com/LemonAlmondBread463e6.jpg
p3645
Vhttp://www.twopeasandtheirpod.com/lemon-almond-bread/
p3646
(lp3647
Nag10
aVsalt
p3648
aVbaking powder
p3649
ag7
ag51
ag39
aVcanola vegetable oil
p3650
ag6
aVvanilla extract
p3651
aValmond extract
p3652
aVsliced almond
p3653
atp3654
sV35493
p3655
(VPumpkin Cinnamon Roll Pancakes with Caramel Cream Cheese Frosting
p3656
Vhttp://static.food2fork.com/Pumpkin2BCinnamon2BRole2BPancakes2B5002B6930b853ceaf.jpg
p3657
Vhttp://www.closetcooking.com/2012/10/pumpkin-cinnamon-role-pancakes-with.html
p3658
(lp3659
g17
ag7
aVcinnamon
p3660
ag10
aVbaking powder
p3661
aVbaking soda
p3662
aVnutmeg
p3663
aNaVginger
p3664
ag6
ag39
aVpumpkin puree
p3665
aVcaramel sauce
p3666
aVcream cheese
p3667
atp3668
sV47117
p3669
(VBlueberry Crumb Cake
p3670
Vhttp://static.food2fork.com/4833203984_4f06a7268f_b2910.jpg
p3671
Vhttp://thepioneerwoman.com/cooking/2010/07/blueberry-crumb-cake/
p3672
(lp3673
g17
ag7
ag6
aVvanilla extract
p3674
ag10
aVbaking powder
p3675
aVsalt
p3676
ag39
aVblueberry
p3677
aNaVcinnamon
p3678
atp3679
sV590442
p3680
(Vhomemade oreos
p3681
Vhttp://static.food2fork.com/oreostackedited0147.jpg
p3682
Vhttp://smittenkitchen.com/blog/2007/05/my-kingdom-for-a-glass-of-milk/
p3683
(lp3684
g10
aVgram
p3685
aVbaking soda
p3686
aVbaking powder
p3687
aVsalt
p3688
ag7
aVplus room-temperature
p3689
ag6
aVroom-temperature
p3690
ag533
aVvanilla extract
p3691
atp3692
sVd89a6f
p3693
(VDark chocolate &amp; orange cake
p3694
Vhttp://static.food2fork.com/1356_MEDIUM3254.jpg
p3695
Vhttp://www.bbcgoodfood.com/recipes/1356/dark-chocolate-and-orange-cake
p3696
(lp3697
g306
ag17
aVplain chocolate
p3698
ag6
ag7
aVsunflower oil
p3699
aVcocoa powder
p3700
ag10
aVbaking powder
p3701
aVdouble cream
p3702
atp3703
sV23350
p3704
(VMom's Zucchini Bread
p3705
Vhttp://static.food2fork.com/6878172e06.jpg
p3706
Vhttp://allrecipes.com/Recipe/Moms-Zucchini-Bread/Detail.aspx
p3707
(lp3708
g10
aVsalt
p3709
aVbaking soda
p3710
aVbaking powder
p3711
aVcinnamon
p3712
ag6
aVvegetable oil
p3713
ag7
aVvanilla extract
p3714
aVzucchini
p3715
aVwalnut
p3716
atp3717
sVffc273
p3718
(VLemon-Ricotta Pancakes Recipe
p3719
Vhttp://static.food2fork.com/28985_ricotta_pancakes_2_6205aac.jpg
p3720
Vhttp://www.chow.com/recipes/28985-lemon-ricotta-pancakes
p3721
(lp3722
g17
ag39
ag10
aVbaking powder
p3723
aVsalt
p3724
ag6
ag7
ag51
aVvanilla extract
p3725
atp3726
sVa06024
p3727
(VChocolate Stout Layer Cake with Chocolate Frosting
p3728
Vhttp://static.food2fork.com/355249a3ba.jpg
p3729
Vhttp://www.epicurious.com/recipes/food/views/Chocolate-Stout-Layer-Cake-with-Chocolate-Frosting-355249
p3730
(lp3731
Vunsweetened chocolate
p3732
ag10
aVbaking powder
p3733
aVbaking soda
p3734
aVsalt
p3735
ag17
ag7
ag6
aVchocolate stout
p3736
ag41
aVbittersweet chocolate cacao
p3737
aVheavy whipping cream
p3738
aVinstant espresso powder
p3739
atp3740
sVf1b0c0
p3741
(VSlutty Brownies
p3742
Vhttp://static.food2fork.com/BrownieFeature193f.jpg
p3743
Vhttp://whatsgabycooking.com/slutty-brownies/
p3744
(lp3745
g17
ag7
aVcocoa powder
p3746
aVsalt
p3747
aVvanilla extract
p3748
ag6
ag10
ag25
aVbaking soda
p3749
aVbaking powder
p3750
ag90
aNatp3751
sV26463
p3752
(VRed Velvet Cupcakes
p3753
Vhttp://static.food2fork.com/9795824c2a.jpg
p3754
Vhttp://allrecipes.com/Recipe/Red-Velvet-Cupcakes-3/Detail.aspx
p3755
(lp3756
g10
aVunsweetened cocoa powder
p3757
aVbaking soda
p3758
aVsalt
p3759
ag17
ag7
ag6
aVsour cream
p3760
ag39
aVbottle mccormick red food color
p3761
aVmccormick pure vanilla extract
p3762
aVnbsp
p3763
aNaVcream cheese
p3764
atp3765
sV26466
p3766
(VRed Velvet Pancakes
p3767
Vhttp://static.food2fork.com/8112453477.jpg
p3768
Vhttp://allrecipes.com/Recipe/Red-Velvet-Pancakes/Detail.aspx
p3769
(lp3770
Vmascarpone cheese
p3771
aVcreme fraiche
p3772
ag7
aVvanilla extract
p3773
ag51
aVnbsp
p3774
ag10
aVbaking powder
p3775
aVbaking soda
p3776
aVsalt
p3777
aVunsweetened cocoa powder
p3778
ag6
aVbuttermilk
p3779
aVred food coloring
p3780
ag17
atp3781
sV54576
p3782
(VPomegranate White Chocolate Chunk Cookies
p3783
Vhttp://static.food2fork.com/Pomegranate44c5.jpg
p3784
Vhttp://www.twopeasandtheirpod.com/pomegranate-white-chocolate-chunk-cookies/
p3785
(lp3786
g17
ag7
ag6
aVvanilla extract
p3787
ag10
aVbaking powder
p3788
aVbaking soda
p3789
aVsalt
p3790
aVold fashioned oat
p3791
aVwhite chocolate chunk
p3792
aVpomegranate aril
p3793
atp3794
sV72f3a8
p3795
(VSalty Chocolate Chunk Cookies
p3796
Vhttp://static.food2fork.com/511407202cc0.jpg
p3797
Vhttp://www.epicurious.com/recipes/food/views/Salty-Chocolate-Chunk-Cookies-51140720
p3798
(lp3799
g10
aVbaking powder
p3800
aVkosher salt
p3801
aVbaking soda
p3802
ag17
ag7
ag6
aVvanilla extract
p3803
aVsemisweet bittersweet chocolate not exceed cacao
p3804
aVmaldon flaky sea salt
p3805
atp3806
sV33756
p3807
(VVegan Chocolate Cake
p3808
Vhttp://static.food2fork.com/157887c37.jpg
p3809
Vhttp://allrecipes.com/Recipe/Vegan-Chocolate-Cake/Detail.aspx
p3810
(lp3811
g10
ag7
aVcocoa powder
p3812
aVbaking soda
p3813
aVsalt
p3814
aVvegetable oil
p3815
aVvanilla extract
p3816
aVdistilled white vinegar
p3817
aNatp3818
sV54274
p3819
(VBiscoff Banana Bread with Biscoff Cookie Streusel
p3820
Vhttp://static.food2fork.com/BiscoffCookieBananaBread32044.jpg
p3821
Vhttp://www.twopeasandtheirpod.com/biscoff-banana-bread-with-biscoff-cookie-streusel/
p3822
(lp3823
g10
aVbaking soda
p3824
aVbaking powder
p3825
aVcinnamon
p3826
aVsalt
p3827
ag83
aVbiscoff spread
p3828
aVcanola oil
p3829
ag6
aVvanilla extract
p3830
ag7
aNaVbiscoff cooky
p3831
ag17
atp3832
sV7e44b5
p3833
(VAll Recipes
p3834
Vhttp://static.food2fork.com/carrotmuffins270x372094b.jpg
p3835
Vhttp://cookieandkate.com/2015/healthy-carrot-muffins-recipe/
p3836
(lp3837
g10
aVbaking powder
p3838
aVcinnamon
p3839
aVbaking soda
p3840
aVsalt
p3841
aVginger
p3842
aVnutmeg
p3843
aVpeeled carrots* that potentially lot carrotsabout
p3844
aVroughly walnut
p3845
aVraisin
p3846
aVmelted coconut oil extra virgin olive oil
p3847
aVmaple syrup
p3848
ag6
ag74
aVvanilla extract
p3849
ag7
atp3850
sV3983
p3851
(VBlack Bottom Cupcakes I
p3852
Vhttp://static.food2fork.com/9859123dc9.jpg
p3853
Vhttp://allrecipes.com/Recipe/Black-Bottom-Cupcakes-I/Detail.aspx
p3854
(lp3855
Vcream cheese
p3856
ag6
ag7
aVsalt
p3857
ag90
ag10
aVunsweetened cocoa powder
p3858
aVbaking soda
p3859
aNaVvegetable oil
p3860
aVcider vinegar
p3861
aVvanilla extract
p3862
atp3863
sV2848
p3864
(VBanana Oat Muffins
p3865
Vhttp://static.food2fork.com/1187568039.jpg
p3866
Vhttp://allrecipes.com/Recipe/Banana-Oat-Muffins/Detail.aspx
p3867
(lp3868
g10
aVrolled oat
p3869
ag7
aVbaking powder
p3870
aVbaking soda
p3871
aVsalt
p3872
ag6
ag39
aVvegetable oil
p3873
aVvanilla extract
p3874
ag83
atp3875
sV12926
p3876
(VExtreme Chocolate Cake
p3877
Vhttp://static.food2fork.com/6934940a0f.jpg
p3878
Vhttp://allrecipes.com/Recipe/Extreme-Chocolate-Cake/Detail.aspx
p3879
(lp3880
g7
ag10
aVunsweetened cocoa powder
p3881
aVbaking soda
p3882
aVbaking powder
p3883
aVsalt
p3884
ag6
ag39
aVvegetable oil
p3885
aVvanilla extract
p3886
aVboiling
p3887
aVnbsp
p3888
ag17
atp3889
sVee0917
p3890
(VGiant Chocolate Cake with Bittersweet Chocolate Ganache and Edible Flowers
p3891
Vhttp://static.food2fork.com/3534213991.jpg
p3892
Vhttp://www.epicurious.com/recipes/food/views/Giant-Chocolate-Cake-with-Bittersweet-Chocolate-Ganache-and-Edible-Flowers-353421
p3893
(lp3894
Vnonstick vegetable oil spray
p3895
ag10
aVbaking soda
p3896
aVbaking powder
p3897
aVsalt
p3898
aVplus unsweetened cocoa powder
p3899
aVboiling
p3900
ag7
ag6
ag17
aVbuttermilk
p3901
aVvanilla extract
p3902
aVunsweetened chocolate
p3903
aVheavy whipping cream
p3904
aVedible flowers*
p3905
aS'round roast'
p3906
atp3907
sV56cfb4
p3908
(VAlfajores Recipe
p3909
Vhttp://static.food2fork.com/28373_alfajores_4_6200e9c.jpg
p3910
Vhttp://www.chow.com/recipes/28373-alfajores
p3911
(lp3912
Vcornstarch
p3913
ag10
aVbaking powder
p3914
aVbaking soda
p3915
aVsalt
p3916
ag17
ag7
ag6
aVpisco brandy
p3917
aVvanilla extract
p3918
aNag2752
atp3919
sV38943
p3920
(VSpiced Pumpkin Cake
p3921
Vhttp://static.food2fork.com/spicedpumpkincake_300b95ca1a3.jpg
p3922
Vhttp://www.realsimple.com/food-recipes/browse-all-recipes/spiced-pumpkin-cake-00000000044847/index.html
p3923
(lp3924
g17
ag10
aVpumpkin pie spice
p3925
aVbaking powder
p3926
aVbaking soda
p3927
aVkosher salt
p3928
ag7
ag6
aV-ounce pumpkin puree
p3929
ag39
aVmolasses
p3930
ag51
atp3931
sV7b4b66
p3932
(VAll Recipes
p3933
Vhttp://static.food2fork.com/healthygingerbreadcookies270x37294f3.jpg
p3934
Vhttp://cookieandkate.com/2015/healthy-gingerbread-cookies/
p3935
(lp3936
g10
aVginger
p3937
aVcinnamon
p3938
aVkosher salt
p3939
aNaVfinely black pepper
p3940
aVbaking soda
p3941
aVbaking powder
p3942
aVmelted coconut oil
p3943
aVunsulphured molasses use regular molasses lighter
p3944
ag7
aVegg*
p3945
ag51
atp3946
sV49465
p3947
(VAlmond-Cranberry Quinoa Cookies
p3948
Vhttp://static.food2fork.com/almondcranberryquinoacookies64683f6.jpg
p3949
Vhttp://www.bonappetit.com/recipes/2012/01/almond-cranberry-quinoa-cookies
p3950
(lp3951
g10
aVkosher salt
p3952
aVbaking powder
p3953
aVbaking soda
p3954
ag17
ag7
aVhoney
p3955
ag6
aVvanilla extract
p3956
aValmond extract
p3957
ag432
aVold-fashioned oat
p3958
aVcranberry
p3959
aVslivered unsalted almond
p3960
atp3961
sV9962d1
p3962
(VHoney Pear Muffins
p3963
Vhttp://static.food2fork.com/PearHoneyMuffins110c1b.jpg
p3964
Vhttp://www.twopeasandtheirpod.com/honey-pear-muffins/
p3965
(lp3966
g10
ag7
aVbaking powder
p3967
aVsalt
p3968
aVcinnamon
p3969
aVginger
p3970
aVnutmeg
p3971
aVbuttermilk
p3972
ag17
aVhoney
p3973
ag6
aVvanilla extract
p3974
ag1214
atp3975
sV5bd916
p3976
(VPumpkin Cinnamon Rolls
p3977
Vhttp://static.food2fork.com/pumpkinrolls796e.jpg
p3978
Vhttp://thepioneerwoman.com/cooking/2013/10/pumpkin-cinnamon-rolls/
p3979
(lp3980
Vdough
p3981
ag39
aVvegetable oil
p3982
ag7
aVactive dry yeast
p3983
aVpumpkin puree
p3984
ag10
aVcinnamon
p3985
aVnutmeg
p3986
aVginger
p3987
aVbaking soda
p3988
aVbaking powder
p3989
aVsalt
p3990
aVfilling
p3991
ag360
aVfinely pecan
p3992
aVfrosting
p3993
aNag17
atp3994
sV26365
p3995
(VReal Strawberry Cupcakes
p3996
Vhttp://static.food2fork.com/649190b687.jpg
p3997
Vhttp://allrecipes.com/Recipe/Real-Strawberry-Cupcakes/Detail.aspx
p3998
(lp3999
Vstrawberry
p4000
ag6
ag7
aVvegetable oil
p4001
aVvanilla extract
p4002
ag51
ag10
aVbaking powder
p4003
aVsalt
p4004
aVinstant vanilla pudding mix
p4005
aVdrop red food coloring
p4006
aVnbsp
p4007
aVcream cheese
p4008
ag17
atp4009
sV33983
p4010
(VVery Best Blueberry Cobbler!
p4011
Vhttp://static.food2fork.com/263847ec73.jpg
p4012
Vhttp://allrecipes.com/Recipe/Very-Best-Blueberry-Cobbler/Detail.aspx
p4013
(lp4014
Vblueberry
p4015
aVvanilla extract
p4016
ag51
ag7
ag10
ag17
aVbaking powder
p4017
ag39
aVcinnamon
p4018
atp4019
sV25770
p4020
(VPumpkin Whoopie Pies
p4021
Vhttp://static.food2fork.com/7327705849.jpg
p4022
Vhttp://allrecipes.com/Recipe/Pumpkin-Whoopie-Pies/Detail.aspx
p4023
(lp4024
g7
aVvegetable oil
p4025
aVsolid pack pumpkin puree
p4026
ag6
ag10
aVsalt
p4027
aVbaking powder
p4028
aVbaking soda
p4029
aVvanilla extract
p4030
aVcinnamon
p4031
aVginger
p4032
aNag39
ag533
atp4033
sV56f130
p4034
(VRainbow cake
p4035
Vhttp://static.food2fork.com/3028705_MEDIUM4504.jpg
p4036
Vhttp://www.bbcgoodfood.com/recipes/3028705/rainbow-cake
p4037
(lp4038
g17
ag10
ag7
ag6
aVbaking powder
p4039
aVsalt
p4040
aVvanilla extract
p4041
aVedible food colouring red
p4042
aVtub cream cheese mascarpone
p4043
atp4044
sV47238
p4045
(VPerfect Pancakes
p4046
Vhttp://static.food2fork.com/3498323787_4f66d4a4774718.jpg
p4047
Vhttp://thepioneerwoman.com/cooking/2009/05/perfect-pancakes/
p4048
(lp4049
g360
aVsalt
p4050
aVbaking powder
p4051
ag7
ag39
ag6
aVvanilla
p4052
ag17
aVmaple pancake syrup
p4053
atp4054
sV34400
p4055
(VWhite Chocolate Cake
p4056
Vhttp://static.food2fork.com/6026752a.jpg
p4057
Vhttp://allrecipes.com/Recipe/White-Chocolate-Cake/Detail.aspx
p4058
(lp4059
g10
aVbaking soda
p4060
aVbaking powder
p4061
aVsalt
p4062
aVsquare white chocolate
p4063
aNag17
ag7
ag6
aVbuttermilk
p4064
aVnbsp
p4065
ag39
aVvanilla extract
p4066
atp4067
sV17391
p4068
(VIrresistible Irish Soda Bread
p4069
Vhttp://static.food2fork.com/607564c552.jpg
p4070
Vhttp://allrecipes.com/Recipe/Irresistible-Irish-Soda-Bread/Detail.aspx
p4071
(lp4072
g10
aVbaking powder
p4073
ag7
aVsalt
p4074
aVbaking soda
p4075
ag6
aVbuttermilk
p4076
ag17
atp4077
sV9f20b6
p4078
(VClassic Victoria sandwich
p4079
Vhttp://static.food2fork.com/1997_MEDIUMfd58.jpg
p4080
Vhttp://www.bbcgoodfood.com/recipes/1997/classic-victoria-sandwich
p4081
(lp4082
g7
ag17
ag6
ag10
aVbaking powder
p4083
ag39
aVdrop vanilla extract
p4084
aVgood-quality strawberry jam
p4085
atp4086
sV035865
p4087
(VThe Best Chocolate Cake
p4088
Vhttp://static.food2fork.com/BlackMagicCakeSlice1of18c68.jpg
p4089
Vhttp://www.mybakingaddiction.com/the-best-chocolate-cake-recipe/
p4090
(lp4091
g7
ag10
aVunsweetened cocoa powder
p4092
aVbaking soda
p4093
aVbaking powder
p4094
aVkosher salt
p4095
ag6
aVbuttermilk
p4096
ag41
aVvegetable oil
p4097
atp4098
sV9a4dbe
p4099
(VBlack Tea Cake with Honey&nbsp;Buttercream - Home - Pastry Affair
p4100
Vhttp://static.food2fork.com/8490340733_91c07b6f0c_b149f.jpg
p4101
Vhttp://www.pastryaffair.com/blog/black-tea-cake-with-honey-buttercream.html
p4102
(lp4103
S'steak'
p4104
ag39
ag17
ag7
ag6
aVvegetable oil
p4105
aVvanilla extract
p4106
aNag360
aVbaking powder
p4107
aVbaking soda
p4108
aVsalt
p4109
atp4110
sV34088
p4111
(VWaffles I
p4112
Vhttp://static.food2fork.com/6614033123.jpg
p4113
Vhttp://allrecipes.com/Recipe/Waffles-I/Detail.aspx
p4114
(lp4115
g6
ag10
ag39
aVvegetable oil
p4116
ag7
aVbaking powder
p4117
aVsalt
p4118
aVvanilla extract
p4119
atp4120
sVb07b29
p4121
(VPancake Mini-Muffins
p4122
Vhttp://static.food2fork.com/pancakes34991.jpg
p4123
Vhttp://thepioneerwoman.com/cooking/2014/03/pancake-mini-muffins/
p4124
(lp4125
g10
aVbaking powder
p4126
ag7
aVsalt
p4127
ag39
aVwhite vinegar
p4128
ag6
aVvanilla extract
p4129
ag17
aVblueberry
p4130
aVsyrup
p4131
atp4132
sV25585
p4133
(VPumpkin Chocolate Chip Muffins
p4134
Vhttp://static.food2fork.com/194141fdf5.jpg
p4135
Vhttp://allrecipes.com/Recipe/Pumpkin-Chocolate-Chip-Muffins/Detail.aspx
p4136
(lp4137
g7
aVvegetable oil
p4138
ag6
aVcanned pumpkin
p4139
aNag10
aVbaking powder
p4140
aVbaking soda
p4141
aVcinnamon
p4142
aVsalt
p4143
aVnutmeg
p4144
ag90
atp4145
sV38f60b
p4146
(VPaleo Chocolate Cupcakes
p4147
Vhttp://static.food2fork.com/PaleoChocolateCupcakes587573af.jpg
p4148
Vhttp://www.elanaspantry.com/paleo-chocolate-cupcakes/
p4149
(lp4150
g10
aVcacao powder
p4151
aVceltic sea salt
p4152
aVbaking soda
p4153
ag6
aVcoconut oil
p4154
aVhoney
p4155
atp4156
sV3a137e
p4157
(VCherry Bakewell cake
p4158
Vhttp://static.food2fork.com/9074_MEDIUM0f18.jpg
p4159
Vhttp://www.bbcgoodfood.com/recipes/9074/cherry-bakewell-cake
p4160
(lp4161
g17
ag7
aValmond
p4162
ag10
aVbaking powder
p4163
aValmond extract essence
p4164
ag6
aVmorello cherry conserve
p4165
ag51
aVready-toasted flaked almond
p4166
atp4167
sV47656
p4168
(VWhole Wheat Chocolate Chip Skillet Cookies
p4169
Vhttp://static.food2fork.com/whole_wheat_chocolatechip_skillet_cookies2cab.jpg
p4170
Vhttp://www.101cookbooks.com/archives/whole-wheat-chocolate-chip-skillet-cookies-recipe.html
p4171
(lp4172
g10
aVbaking powder
p4173
aVbaking soda
p4174
aVsea salt
p4175
ag17
ag7
ag6
aVpure vanilla extract
p4176
aVbittersweet chocolate
p4177
atp4178
sVc84745
p4179
(VBeans and Cornbread
p4180
Vhttp://static.food2fork.com/1196981101_8b0c8afd948e61.jpg
p4181
Vhttp://thepioneerwoman.com/cooking/2007/08/beans_and_cornb/
p4182
(lp4183
Nag29
ag493
aVsalt
p4184
aVblack pepper
p4185
ag533
ag223
ag10
aVbuttermilk
p4186
ag39
ag6
aVbaking powder
p4187
aVbaking soda
p4188
atp4189
sV46926
p4190
(VCornmeal Pancakes (with Blackberry Syrup)
p4191
Vhttp://static.food2fork.com/cornmealpancakes22c31.jpg
p4192
Vhttp://thepioneerwoman.com/cooking/2012/05/cornmeal-pancakes-with-blackberry-syrup/
p4193
(lp4194
Vpancake
p4195
ag10
aVheaping yellow cornmeal
p4196
aVsalt
p4197
aVbaking powder
p4198
ag7
ag39
ag6
aVvanilla
p4199
ag17
aVblackberry syrup
p4200
aVpint blackberry
p4201
aNaVcornstarch
p4202
aVmaple pancake syrup serving
p4203
atp4204
sVb828f3
p4205
(VPumpkin Bars with Cream Cheese Frosting
p4206
Vhttp://static.food2fork.com/homemadepumpkinbars3e52.jpg
p4207
Vhttp://www.mybakingaddiction.com/pumpkin-bars-with-cream-cheese-frosting/
p4208
(lp4209
g25
ag6
ag7
aVvegetable oil
p4210
aV-ounce pumpkin puree
p4211
aVpure vanilla extract
p4212
ag10
aVbaking powder
p4213
aVbaking soda
p4214
aVhomemade pumpkin pie spice
p4215
atp4216
sV47714
p4217
(VHomemade and All-natural Thin Mint Recipe
p4218
Vhttp://static.food2fork.com/thinmintrecipe1a1ca.jpg
p4219
Vhttp://www.101cookbooks.com/archives/001370.html
p4220
(lp4221
Vchocolate wafer
p4222
aNag17
ag7
aVwholesome sweetener brand
p4223
aVnatural vanilla extract
p4224
aVcocoa powder use dagoba cacao powder
p4225
aVsea salt
p4226
ag10
aVchocolate peppermint coating
p4227
aVgood quality semi-sweet chocolate
p4228
aVnatural peppermint oil
p4229
atp4230
sV46887
p4231
(VPull-Apart Bread
p4232
Vhttp://static.food2fork.com/pullapartd86e.jpg
p4233
Vhttp://thepioneerwoman.com/cooking/2012/11/pull-apart-bread/
p4234
(lp4235
Vdough
p4236
ag39
aVcanaola oil
p4237
ag7
aVactive dry yeast
p4238
ag10
aVbaking powder
p4239
aVbaking soda
p4240
aVsalt
p4241
ag17
aVcinnamon
p4242
aVicing
p4243
aVmaple extract
p4244
atp4245
sV47309
p4246
(VYogurt-Marmalade Cake
p4247
Vhttp://static.food2fork.com/YogurtMarmaladeCakea273.jpg
p4248
Vhttp://thepioneerwoman.com/cooking/2008/07/yogurt-marmalade-cake-to-die-for/
p4249
(lp4250
g10
aVsalt
p4251
aVbaking powder
p4252
aVplain
p4253
ag7
ag6
aVvanilla
p4254
ag51
aVcanola oil
p4255
aNag306
ag74
atp4256
sV47713
p4257
(VTriple Chocolate Espresso Bean Cookies
p4258
Vhttp://static.food2fork.com/espresso_bean_cookie_recipe1e41f.jpg
p4259
Vhttp://www.101cookbooks.com/archives/001408.html
p4260
(lp4261
g10
aVespresso powder
p4262
aValuminum-free baking soda
p4263
aValuminum-free baking powder
p4264
aVfinely sea salt
p4265
aVnatural cocoa cacao powder
p4266
ag17
ag7
aNag6
aVvanilla extract
p4267
ag90
ag29
atp4268
sV38832
p4269
(VChocolate Stout Bundt Cake
p4270
Vhttp://static.food2fork.com/chocolatebundtcake_300ac2b9d00.jpg
p4271
Vhttp://www.realsimple.com/food-recipes/browse-all-recipes/chocolate-stout-bundt-cake-00000000047948/index.html
p4272
(lp4273
g17
aVunsweetened cocoa powder
p4274
ag10
aVbaking soda
p4275
aVkosher salt
p4276
aVstout beer
p4277
aVsemisweet chocolate
p4278
ag6
ag7
aVsour cream
p4279
atp4280
sV51452
p4281
(VChocolate Cake with Fleur de Sel Caramel Filling
p4282
Vhttp://static.food2fork.com/mare_chocolate_cake_with_fleur_de_sel_caramel_filling_vcb0f.jpg
p4283
Vhttp://www.bonappetit.com/recipes/2008/09/chocolate_cake_with_fleur_de_sel_caramel_filling
p4284
(lp4285
g7
aNag223
aVheavy whipping cream
p4286
ag17
aVfrache sour cream
p4287
ag51
aVfleur sel plus additional assembly
p4288
aVbittersweet chocolate
p4289
ag10
aVunsweetened cocoa powder
p4290
aVbaking powder
p4291
aVbaking soda
p4292
aVsalt
p4293
ag39
ag6
ag41
aValmond
p4294
atp4295
sVedc1de
p4296
(VChocolate owl cake
p4297
Vhttp://static.food2fork.com/2303680_MEDIUMcc9a.jpg
p4298
Vhttp://www.bbcgoodfood.com/recipes/2303680/chocolate-owl-cake
p4299
(lp4300
g17
aVplain chocolate
p4301
aVvanilla extract
p4302
ag10
aVbaking powder
p4303
aVbicarbonate soda
p4304
ag7
ag6
aVsoured cream
p4305
aVcocoa
p4306
ag39
aVgiant white chocolate button
p4307
aVchocolate flake bar
p4308
aVyellow marzipan
p4309
aVpack chocolate finger biscuit
p4310
aVcandle
p4311
aVwriting icing
p4312
atp4313
sV6cf322
p4314
(VPeanut Butter and Jelly Bars
p4315
Vhttp://static.food2fork.com/i2xZGFrpLba2b.jpg
p4316
Vhttp://www.framedcooks.com/2012/02/peanut-butter-and-jelly-bars.html
p4317
(lp4318
g17
ag7
aVvanilla
p4319
ag6
ag82
ag10
aVbaking powder
p4320
aVjam your choice flavor
p4321
atp4322
sV74280c
p4323
(VPeanut Butter and Jelly Muffins
p4324
Vhttp://static.food2fork.com/IMG_3431631c.jpg
p4325
Vhttp://www.twopeasandtheirpod.com/peanut-butter-and-jelly-muffins/
p4326
(lp4327
g10
ag7
aVbaking powder
p4328
aVsalt
p4329
ag39
ag82
aVcanola oil
p4330
ag6
aVvanilla extract
p4331
aVstrawberry jam your favorite jam
p4332
atp4333
sV36324
p4334
(VFlourless Lemon Almond Cake
p4335
Vhttp://static.food2fork.com/flourlesslemonalmondcakea11300x200fe83a8ec.jpg
p4336
Vhttp://www.simplyrecipes.com/recipes/flourless_lemon_almond_cake/
p4337
(lp4338
g6
ag51
aVcardamom
p4339
ag7
aVfinely almond flour*
p4340
aVbaking powder make sure your baking powder
p4341
aVwhite cider vinegar
p4342
aVsalt
p4343
atp4344
sV10113
p4345
(VCream Filled Cupcakes
p4346
Vhttp://static.food2fork.com/8215000de4.jpg
p4347
Vhttp://allrecipes.com/Recipe/Cream-Filled-Cupcakes/Detail.aspx
p4348
(lp4349
g10
ag7
aVunsweetened cocoa powder
p4350
aVbaking soda
p4351
aVsalt
p4352
ag6
ag39
aNaVvegetable oil
p4353
aVvanilla extract
p4354
aVnbsp
p4355
ag17
ag533
atp4356
sV35918
p4357
(VCheese Biscuits
p4358
Vhttp://static.food2fork.com/cheesebiscuitsa300x20003f919bc.jpg
p4359
Vhttp://www.simplyrecipes.com/recipes/cheese_biscuits/
p4360
(lp4361
g10
aVcayenne
p4362
aVsalt
p4363
aVblack pepper
p4364
aVbaking powder make sure your baking powder more than month old you may not get good rise
p4365
ag17
aVscallion
p4366
aVparmesan cheese
p4367
aVbuttermilk
p4368
aVkosher
p4369
atp4370
sV54511
p4371
(VDouble Chocolate Loaf
p4372
Vhttp://static.food2fork.com/doublechocolateloafd6be.jpg
p4373
Vhttp://www.twopeasandtheirpod.com/double-chocolate-loaf-cake/
p4374
(lp4375
g7
aVdark unsweetened cocoa powder
p4376
ag10
aVbaking soda
p4377
aVbaking powder
p4378
aVsalt
p4379
ag6
aVbuttermilk
p4380
aVvegetable oil
p4381
aVpure vanilla extract
p4382
aVgood-quality dark chocolate
p4383
aVwhipped cream strawberry
p4384
atp4385
sV3620
p4386
(VBest Brownies
p4387
Vhttp://static.food2fork.com/720553ee26.jpg
p4388
Vhttp://allrecipes.com/Recipe/Best-Brownies/Detail.aspx
p4389
(lp4390
g17
ag7
ag6
aVvanilla extract
p4391
aVunsweetened cocoa powder
p4392
ag10
aVsalt
p4393
aVbaking powder
p4394
aVnbsp
p4395
aVhoney
p4396
atp4397
sV54548
p4398
(VButtermilk Banana Bread
p4399
Vhttp://static.food2fork.com/buttermilkbananabread3085.jpg
p4400
Vhttp://www.twopeasandtheirpod.com/buttermilk-banana-bread/
p4401
(lp4402
g17
ag7
ag6
ag83
aVbuttermilk
p4403
aVvanilla extract
p4404
ag10
aVbaking powder
p4405
aVsalt
p4406
aVbaking soda
p4407
atp4408
sV54545
p4409
(VLemon Ricotta Pancakes with Blueberry Sauce
p4410
Vhttp://static.food2fork.com/lemonricottapancakerecipe6a37.jpg
p4411
Vhttp://www.twopeasandtheirpod.com/lemon-ricotta-pancakes-with-blueberry-sauce/
p4412
(lp4413
Nag51
aVcornstarch
p4414
aVblueberry
p4415
ag7
aVbowl
p4416
aVsaucepan
p4417
ag10
aVbaking powder
p4418
aVbaking soda
p4419
aVsalt
p4420
aVricotta cheese
p4421
ag6
aVcanola oil
p4422
atp4423
sV7e6994
p4424
(VBread 2.0
p4425
Vhttp://static.food2fork.com/glutenfreebreaddsc_9662bc71.jpg
p4426
Vhttp://www.elanaspantry.com/gluten-free-bread-20/
p4427
(lp4428
g10
aVarrowroot powder
p4429
aVgolden flaxmeal
p4430
aVceltic sea salt
p4431
aVbaking soda
p4432
ag6
aVagave nectar
p4433
ag625
atp4434
sV54541
p4435
(VPeanut Butter Snickers Cookies
p4436
Vhttp://static.food2fork.com/Snickersba33.jpg
p4437
Vhttp://www.twopeasandtheirpod.com/peanut-butter-snickers-cookies/
p4438
(lp4439
g10
aVbaking soda
p4440
aVbaking powder
p4441
aVsalt
p4442
ag17
ag82
ag7
ag6
ag39
aVvanilla extract
p4443
atp4444
sV6e1476
p4445
(VBrown Butter, Honey and Jalapeo Skillet Cornbread
p4446
Vhttp://static.food2fork.com/brownbutterpeppercornbread1270x3729657.jpg
p4447
Vhttp://cookieandkate.com/2014/brown-butter-honey-and-jalapeno-skillet-cornbread/
p4448
(lp4449
g17
aVgrind cornmeal
p4450
ag10
aVkosher salt
p4451
aVbaking powder
p4452
aVbaking soda
p4453
aVfew twist black pepper
p4454
ag1306
ag74
aVhoney
p4455
ag6
ag223
ag306
aVjalapeos
p4456
atp4457
sVc38f22
p4458
(VSigrid's Carrot Cake
p4459
Vhttp://static.food2fork.com/sloppyjoese759.jpg
p4460
Vhttp://thepioneerwoman.com/cooking/2012/09/i-love-ya-tomorrow/
p4461
(lp4462
g360
ag7
aVvegetable oil
p4463
ag6
ag10
aVbaking powder
p4464
aVbaking soda
p4465
aVcinnamon
p4466
aVsalt
p4467
ag307
ag17
aVicing
p4468
aVcream cheese
p4469
aVvanilla
p4470
aVpecan
p4471
ag432
ag1305
aVgreen bell pepper
p4472
aVgarlic
p4473
aVketchup
p4474
aNaVchili powder
p4475
aVdry mustard
p4476
aVred pepper flake
p4477
aVworcestershire sauce
p4478
aS'tomatoes'
p4479
aVtabasco sauce optional
p4480
aVblack pepper
p4481
ag2160
aVrolled oat
p4482
aVvegetable canola oil
p4483
aVhoney
p4484
ag625
aVmolasses
p4485
aVvanilla extract
p4486
ag544
aVwheat germ
p4487
aVfinely pecan
p4488
aVroughly almond
p4489
atp4490
sV46956
p4491
(VDeep Dish Fruit Pizza
p4492
Vhttp://static.food2fork.com/fruitpizza9a19.jpg
p4493
Vhttp://thepioneerwoman.com/cooking/2012/01/fruit-pizza/
p4494
(lp4495
g533
ag7
ag306
aVvanilla
p4496
ag6
ag39
ag10
aVbaking powder
p4497
aVsalt
p4498
aVmarshmallow creme
p4499
aVcream cheese
p4500
ag685
ag2410
aVblueberry
p4501
ag1214
aVraspberry
p4502
atp4503
sV961405
p4504
(VChocolatiest Chocolate Cake {with Eggnog Icing!}
p4505
Vhttp://static.food2fork.com/205xNxchocolatecakea2c4.jpg.pagespeed.ic.EXTWZ4VWZ.jpg
p4506
Vhttp://www.healthy-delicious.com/2013/12/chocolate-cake-with-eggnog-icing/
p4507
(lp4508
g10
ag7
aVunsweetened cocoa powder
p4509
aVbaking soda
p4510
aVbaking powder
p4511
aVsalt
p4512
ag74
aVolive oil
p4513
ag6
aVvanilla
p4514
ag41
aVlight eggnog
p4515
aVrum flavoring
p4516
ag17
atp4517
sV10034
p4518
(VCrazy Cake
p4519
Vhttp://static.food2fork.com/6997879c4.jpg
p4520
Vhttp://allrecipes.com/Recipe/Crazy-Cake/Detail.aspx
p4521
(lp4522
g10
ag7
aVsalt
p4523
aVbaking soda
p4524
aVunsweetened cocoa powder
p4525
aVvegetable oil
p4526
aVdistilled white vinegar
p4527
aVvanilla extract
p4528
aNatp4529
sV36110
p4530
(VCowboy Cookies
p4531
Vhttp://static.food2fork.com/cowboycookies300x20039279181.jpg
p4532
Vhttp://www.simplyrecipes.com/recipes/cowboy_cookies/
p4533
(lp4534
g10
aVbaking powder
p4535
aVbaking soda
p4536
aVcinnamon
p4537
aVsalt
p4538
ag17
ag7
aVeggs*
p4539
aVvanilla extract
p4540
ag90
aVold fashioned rolled oat
p4541
aVsweetened flaked coconut
p4542
aVpecan
p4543
atp4544
sV54342
p4545
(VBrown Butter Banana Waffles
p4546
Vhttp://static.food2fork.com/BrownButterBananaWaffles3d26b.jpg
p4547
Vhttp://www.twopeasandtheirpod.com/brown-butter-banana-waffles/
p4548
(lp4549
g10
ag7
aVbaking powder
p4550
aVsalt
p4551
aVcinnamon
p4552
aVnutmeg
p4553
ag17
ag6
aVbuttermilk
p4554
aVhoney
p4555
aVpure vanilla extract
p4556
ag83
atp4557
sV7cfa2d
p4558
(VTres Leches de Ron con Chocolate (Chocolate Rum Tres Leches Cake) Recipe
p4559
Vhttp://static.food2fork.com/29006_tres_leches_cake_62021a1.jpg
p4560
Vhttp://www.chow.com/recipes/29006-tres-leches-de-ron-con-chocolate-chocolate-rum-tres-leches-cake
p4561
(lp4562
g17
aNag41
aVunsweetened cocoa powder
p4563
ag360
aVbaking powder
p4564
aVbaking soda
p4565
aVplus salt
p4566
ag7
ag6
aVvegetable oil
p4567
aVvanilla extract
p4568
aVcream tartar
p4569
aVsemisweet chocolate
p4570
aVhalf-and-half
p4571
ag39
aVdark rum
p4572
aVsalt
p4573
aVvery heavy cream
p4574
aV-ounce piece semisweet chocolate
p4575
atp4576
sV50692
p4577
(VPumpkin Whoopie Pies with Maple-Marshmallow Cream Filling
p4578
Vhttp://static.food2fork.com/mare_pumpkin_whoopie_pies_with_maple_marshmallow_cream_filling_hb247.jpg
p4579
Vhttp://www.bonappetit.com/recipes/2009/10/pumpkin_whoopie_pies_with_maple_marshmallow_cream_filling
p4580
(lp4581
g7
ag17
aV-ounce marshmallow creme
p4582
aVmaple extract
p4583
ag10
aVcinnamon
p4584
aVbaking powder
p4585
aVbaking soda
p4586
aVsalt
p4587
aVnutmeg
p4588
aNaVvegetable oil
p4589
ag6
aV-ounce pure pumpkin
p4590
ag39
aVnonstick vegetable oil spray
p4591
atp4592
sV28657
p4593
(VSimple White Cake
p4594
Vhttp://static.food2fork.com/6361109735.jpg
p4595
Vhttp://allrecipes.com/Recipe/Simple-White-Cake/Detail.aspx
p4596
(lp4597
g7
ag17
ag6
aVvanilla extract
p4598
ag10
aVbaking powder
p4599
ag39
atp4600
sV5c75fd
p4601
(VMini Birthday Layer Cake on a Panini Press
p4602
Vhttp://static.food2fork.com/MiniBirthdayLayerCakeonaPaniniPress400197c5.jpg
p4603
Vhttp://paninihappy.com/mini-birthday-layer-cake-on-a-panini-press/
p4604
(lp4605
g6
ag7
ag17
aVvanilla extract
p4606
ag10
aVheaping baking powder
p4607
aVsalt
p4608
ag39
aVcocoa
p4609
atp4610
sV54533
p4611
(VLemon Ricotta Blackberry Muffins
p4612
Vhttp://static.food2fork.com/lemonricottablackberrymuffinac00.jpg
p4613
Vhttp://www.twopeasandtheirpod.com/lemon-ricotta-blackberry-muffins/
p4614
(lp4615
g10
aVbaking powder
p4616
aVbaking soda
p4617
aVsalt
p4618
ag7
ag51
ag17
aVricotta cheese low-fat
p4619
ag6
aVvanilla extract
p4620
aVblackberry
p4621
aVturbinado sugar-for sprinkling muffin top
p4622
atp4623
sV54534
p4624
(VToasted Coconut, Toffee, & Chocolate Chip Cookies
p4625
Vhttp://static.food2fork.com/toastedcoconuttoffeechocolatechipcookies11cd.jpg
p4626
Vhttp://www.twopeasandtheirpod.com/toasted-coconut-toffee-chocolate-chip-cookies/
p4627
(lp4628
Vflaked sweetened coconut
p4629
ag10
aVbaking powder
p4630
aVbaking soda
p4631
aVsalt
p4632
ag7
ag17
aVvanilla extract
p4633
aVcoconut extract
p4634
ag6
aVheath toffee bit
p4635
ag90
atp4636
sV22257
p4637
(VLow-Fat Blueberry Bran Muffins
p4638
Vhttp://static.food2fork.com/3311724701.jpg
p4639
Vhttp://allrecipes.com/Recipe/Low-Fat-Blueberry-Bran-Muffins/Detail.aspx
p4640
(lp4641
Vwheat bran
p4642
ag39
aVunsweetened applesauce
p4643
ag6
ag7
aVvanilla extract
p4644
ag10
aVbaking soda
p4645
aVbaking powder
p4646
aVsalt
p4647
aVblueberry
p4648
atp4649
sV54312
p4650
(VNutella Drop Biscuits
p4651
Vhttp://static.food2fork.com/NutellaDropBiscuits1f025.jpg
p4652
Vhttp://www.twopeasandtheirpod.com/nutella-drop-biscuits/
p4653
(lp4654
g10
aVbaking powder
p4655
ag7
aVbaking soda
p4656
aVsalt
p4657
ag17
aVbuttermilk
p4658
aVnutella
p4659
aVsea salt
p4660
atp4661
sV54314
p4662
(VChocolate Peanut Butter Cup Cupcakes
p4663
Vhttp://static.food2fork.com/ChocolatePeanutButterCupCupcakese47b.jpg
p4664
Vhttp://www.twopeasandtheirpod.com/chocolate-peanut-butter-cup-cupcakes/
p4665
(lp4666
Nag17
aVbittersweet chocolate
p4667
aVdutch-processed cocoa
p4668
ag10
aVbaking soda
p4669
aVbaking powder
p4670
ag6
ag7
aVvanilla extract
p4671
aVsalt
p4672
ag74
ag82
aVheavy cream
p4673
atp4674
sV79da2c
p4675
(Vintensely chocolate sables
p4676
Vhttp://static.food2fork.com/8412290271_761f2076a6fd33.jpg
p4677
Vhttp://smittenkitchen.com/blog/2013/01/intensely-chocolate-sables/
p4678
(lp4679
g10
aVdutched cocoa powder
p4680
aVbaking soda
p4681
aVstick
p4682
ag7
aVsea salt
p4683
ag6
aVvanilla extract
p4684
aVsemi- bittersweet chocolate
p4685
atp4686
sV54318
p4687
(VDark Chocolate Cupcakes with Raspberry Buttercream Frosting
p4688
Vhttp://static.food2fork.com/darkchocolatecupcakeswithraspberrybuttercream3a6e3.jpg
p4689
Vhttp://www.twopeasandtheirpod.com/dark-chocolate-cupcakes-with-raspberry-buttercream-frosting/
p4690
(lp4691
Nag17
aVbittersweet chocolate
p4692
aVdutch-processed cocoa
p4693
ag10
aVbaking soda
p4694
aVbaking powder
p4695
ag6
ag7
aVvanilla extract
p4696
aVsalt
p4697
ag74
aVraspberry
p4698
aVpure vanilla extract
p4699
aVadditional raspberry
p4700
atp4701
sV33bf5e
p4702
(VRoasted Peach Muffins with Cinnamon Streusel
p4703
Vhttp://static.food2fork.com/roastedpeachmuffinscinnamonstreusel499f0.jpg
p4704
Vhttp://www.healthy-delicious.com/2013/07/roasted-peach-muffins-with-cinnamon-struesel/
p4705
(lp4706
g685
ag10
ag7
aVbaking powder
p4707
aVcinnamon
p4708
aVbaking soda
p4709
aVsalt
p4710
ag74
ag17
ag6
aVvanilla
p4711
aVwalnut
p4712
atp4713
sV3713d0
p4714
(VChai Spiced Sugar Cookies
p4715
Vhttp://static.food2fork.com/ChaiSugarCookiesStack2ae7.jpg
p4716
Vhttp://www.mybakingaddiction.com/chai-cookies/
p4717
(lp4718
g10
aVbaking soda
p4719
aVbaking powder
p4720
aVsalt
p4721
ag7
aVcinnamon
p4722
aVginger
p4723
aVcardamom
p4724
aVallspice
p4725
aVfinely black pepper
p4726
ag17
ag6
atp4727
sV34963
p4728
(VZucchini Brownies
p4729
Vhttp://static.food2fork.com/6955440c44.jpg
p4730
Vhttp://allrecipes.com/Recipe/Zucchini-Brownies/Detail.aspx
p4731
(lp4732
Vvegetable oil
p4733
ag7
aVvanilla extract
p4734
ag10
aVunsweetened cocoa powder
p4735
aVbaking soda
p4736
aVsalt
p4737
aVzucchini
p4738
aVwalnut
p4739
aVnbsp
p4740
ag470
ag39
atp4741
sV46888
p4742
(VSilver Dollar Pumpkin Pancakes
p4743
Vhttp://static.food2fork.com/pumpkinpancakes32a8.jpg
p4744
Vhttp://thepioneerwoman.com/cooking/2012/10/silver-dollar-pumpkin-pancakes/
p4745
(lp4746
g360
aVsalt
p4747
aVbaking powder
p4748
ag7
aVcanned pumpkin puree
p4749
ag6
aVvanilla
p4750
ag39
aVpumpkin pie spice
p4751
aVheavy cream
p4752
aVmaple syrup
p4753
ag17
aVfinely pecan
p4754
aVcaramel sauce
p4755
atp4756
sV61866e
p4757
(VBlueberry Buckle
p4758
Vhttp://static.food2fork.com/2BlueberryBuckle42ed.jpg
p4759
Vhttp://www.mybakingaddiction.com/blueberry-buckle-recipe/
p4760
(lp4761
g10
aVbaking powder
p4762
aVsalt
p4763
ag360
ag7
ag533
ag6
aVpure vanilla extract
p4764
ag39
atp4765
sV35501
p4766
(VPumpkin Pie Pancakes (with Caramel Sauce)
p4767
Vhttp://static.food2fork.com/Pumpkin2BPie2BPancakes2B5002B5013c570fcdd.jpg
p4768
Vhttp://www.closetcooking.com/2008/11/pumpkin-pie-pancakes.html
p4769
(lp4770
g10
aVbaking powder
p4771
aVbaking soda
p4772
aVcinnamon
p4773
aVnutmeg
p4774
aVginger
p4775
aNag6
ag39
aVpumpkin puree
p4776
ag17
ag7
ag2048
atp4777
sV656109
p4778
(VThe Very Best Brownies.
p4779
Vhttp://static.food2fork.com/theverybestbrownies8723.jpg
p4780
Vhttp://cookieandkate.com/2014/the-very-best-brownies/
p4781
(lp4782
g17
ag7
aVnatural unsweetened cocoa powder
p4783
aVfine-grain sea salt
p4784
aVbaking powder
p4785
ag41
ag6
aVvanilla extract
p4786
ag10
aVdark semi-sweet chocolate
p4787
atp4788
sV2475a5
p4789
(Vtriple berry summer buttermilk bundt
p4790
Vhttp://static.food2fork.com/7442411844_e30a61888738db.jpg
p4791
Vhttp://smittenkitchen.com/blog/2012/06/triple-berry-summer-buttermilk-bundt/
p4792
(lp4793
g10
aVbaking powder
p4794
aVsea salt table salt
p4795
ag17
ag7
ag51
ag6
aVvanilla extract
p4796
aVbuttermilk
p4797
aVmixed berry
p4798
atp4799
sV8952dd
p4800
(VWhole Wheat Zucchini Pancakes
p4801
Vhttp://static.food2fork.com/ZucchiniPancakes5a722.jpg
p4802
Vhttp://www.twopeasandtheirpod.com/whole-wheat-zucchini-pancakes/
p4803
(lp4804
g10
aVbaking powder
p4805
aVbaking soda
p4806
aVcoarse salt
p4807
aVcinnamon
p4808
aVnutmeg
p4809
ag7
aVbuttermilk
p4810
ag17
ag6
aVvanilla extract
p4811
aVzucchini
p4812
atp4813
sV46883
p4814
(VBlueberry Lemon Sweet Rolls
p4815
Vhttp://static.food2fork.com/blueberrysweetd356.jpg
p4816
Vhttp://thepioneerwoman.com/cooking/2012/11/blueberry-lemon-sweet-rolls/
p4817
(lp4818
Nag39
ag7
aVcanola oil
p4819
aVactive dry yeast
p4820
ag10
aVall-purpose four
p4821
aVsalt
p4822
aVbaking soda
p4823
aVbaking powder
p4824
ag17
ag51
aVblueberry
p4825
atp4826
sV54389
p4827
(VStrawberry Ricotta Scones
p4828
Vhttp://static.food2fork.com/strawberryricottascones5179d7.jpg
p4829
Vhttp://www.twopeasandtheirpod.com/strawberry-ricotta-scones/
p4830
(lp4831
g6
aVbuttermilk
p4832
ag51
aVvanilla extract
p4833
aVricotta cheese use low-fat
p4834
ag7
ag10
aVbaking powder
p4835
aVbaking soda
p4836
aVsalt
p4837
ag17
aVstrawberry
p4838
ag39
atp4839
sV46890
p4840
(VCorn Dog Muffins
p4841
Vhttp://static.food2fork.com/corndogmuffins4747.jpg
p4842
Vhttp://thepioneerwoman.com/cooking/2012/10/corn-dog-muffins/
p4843
(lp4844
g533
aVyellow cornmeal
p4845
ag10
aVsalt
p4846
aVbuttermilk
p4847
ag39
ag6
aVbaking powder
p4848
aVbaking soda
p4849
aNatp4850
sVbbc743
p4851
(VAll Recipes
p4852
Vhttp://static.food2fork.com/appleoatmealpancakes270x3729216.jpg
p4853
Vhttp://cookieandkate.com/2015/apple-oatmeal-pancakes-recipe/
p4854
(lp4855
g625
aVold-fashioned oat
p4856
ag6
ag17
aVbaking powder
p4857
aVmaple syrup honey
p4858
aVvanilla extract
p4859
aVcinnamon
p4860
aVsalt
p4861
atp4862
sV54382
p4863
(VYogurt Coffee Cake
p4864
Vhttp://static.food2fork.com/yogurtcoffeecakecake6367a.jpg
p4865
Vhttp://www.twopeasandtheirpod.com/yogurt-coffee-cake/
p4866
(lp4867
g17
ag7
ag6
aVpure vanilla extract
p4868
ag74
ag360
aVbaking powder
p4869
aVbaking soda
p4870
aVsalt
p4871
aNag10
aVcinnamon
p4872
aVsoftened cream cheese
p4873
aVvanilla
p4874
ag39
atp4875
sVa41e4d
p4876
(VChocolate Cupcakes with Peppermint Frosting
p4877
Vhttp://static.food2fork.com/peppermintd366.jpg
p4878
Vhttp://thepioneerwoman.com/cooking/2013/12/chocolate-cupcakes-with-peppermint-frosting/
p4879
(lp4880
g360
ag17
aVcocoa powder
p4881
aVboiling
p4882
ag10
ag7
aVsalt
p4883
aVbuttermilk
p4884
ag6
aVvanilla
p4885
aVbaking soda
p4886
aVfrosting
p4887
ag268
aVheavy cream
p4888
atp4889
sV123bd5
p4890
(VLemon Sugar Cookie Bars
p4891
Vhttp://static.food2fork.com/LemonSugarCookieBars53c90.jpg
p4892
Vhttp://www.twopeasandtheirpod.com/lemon-sugar-cookie-bars/
p4893
(lp4894
Nag10
aVbaking powder
p4895
aVsalt
p4896
ag7
ag51
ag17
ag6
aVvanilla extract
p4897
aVcream cheese
p4898
atp4899
sV8b3c91
p4900
(VPeanut Butter Oatmeal Bars with Chocolate Frosting
p4901
Vhttp://static.food2fork.com/PeanutButterOatmealBarswithChocolateFrosting52169.jpg
p4902
Vhttp://www.twopeasandtheirpod.com/peanut-butter-oatmeal-bars-with-chocolate-frosting/
p4903
(lp4904
Nag10
aVbaking soda
p4905
aVsalt
p4906
ag17
ag82
ag7
ag6
aVvanilla extract
p4907
aVold fashioned oat
p4908
aVunsweetened cocoa powder
p4909
ag39
atp4910
sV54366
p4911
(VBlueberry Yogurt Waffles
p4912
Vhttp://static.food2fork.com/BlueberryYogurtWaffles3a02e.jpg
p4913
Vhttp://www.twopeasandtheirpod.com/blueberry-yogurt-waffles/
p4914
(lp4915
g10
aVbaking powder
p4916
aVbaking soda
p4917
aVcinnamon
p4918
ag7
ag74
ag39
ag6
aVvanilla extract
p4919
ag17
aVblueberry using
p4920
aNaVstrawberry
p4921
aVblueberry
p4922
aVwhipped cream
p4923
atp4924
sV46885
p4925
(VWild Rice Pancakes
p4926
Vhttp://static.food2fork.com/wildrice802d.jpg
p4927
Vhttp://thepioneerwoman.com/cooking/2012/11/wild-rice-pancakes/
p4928
(lp4929
g544
ag360
aVsalt
p4930
aVbaking powder
p4931
ag7
ag39
ag6
aVvanilla
p4932
ag17
aVmaple pancake syrup
p4933
atp4934
sV54363
p4935
(VChocolate Sheet Cake with Peanut Butter Frosting
p4936
Vhttp://static.food2fork.com/chocolatesheetcakewithpeanutbutterfrosting3a2ac.jpg
p4937
Vhttp://www.twopeasandtheirpod.com/chocolate-sheet-cake-with-peanut-butter-frosting/
p4938
(lp4939
Nag7
ag10
aVbaking soda
p4940
aVsalt
p4941
ag6
aVbuttermilk
p4942
aVpure vanilla extract
p4943
ag17
aVcocoa powder
p4944
ag39
ag82
aVvanilla extract
p4945
atp4946
sV59d307
p4947
(VPeanut Butter Cake with Chocolate Icing
p4948
Vhttp://static.food2fork.com/cakeb4c7.jpg
p4949
Vhttp://thepioneerwoman.com/cooking/2013/11/peanut-butter-cake-with-chocolate-icing/
p4950
(lp4951
g360
ag10
ag7
aVsalt
p4952
aVbuttermilk
p4953
ag6
aVbaking soda
p4954
aVvanilla
p4955
ag17
ag82
aVboiling
p4956
aVicing
p4957
aVcocoa powder
p4958
ag39
aNaVcocoa
p4959
aVfinely pecan
p4960
atp4961
sV44e4c1
p4962
(VSour Cream Coffee Cake  Recipe
p4963
Vhttp://static.food2fork.com/30339_RecipeImage_620x413_sour_cream_coffee_cake_32ee3.jpg
p4964
Vhttp://www.chow.com/recipes/30339-sour-cream-coffee-cake
p4965
(lp4966
g402
ag7
aVcinnamon
p4967
aVsalt
p4968
ag10
aVbaking powder
p4969
aVbaking soda
p4970
ag17
ag6
aVsour cream
p4971
aVvanilla extract
p4972
atp4973
sV4d1b20
p4974
(VCinnamon-Chipotle Crinkles
p4975
Vhttp://static.food2fork.com/11316502876_81965b2a78_z5da6.jpg
p4976
Vhttp://www.healthy-delicious.com/2013/12/cinnamon-chipotle-chocolate-crinkle-cookies/
p4977
(lp4978
g90
ag17
aVvanilla extract
p4979
ag7
ag6
ag10
aVcocoa powder
p4980
aVcinnamon
p4981
aVchipotle chile powder
p4982
aVbaking powder
p4983
aVsalt
p4984
atp4985
sV32745
p4986
(VTo Die For Blueberry Muffins
p4987
Vhttp://static.food2fork.com/6629086e7e.jpg
p4988
Vhttp://allrecipes.com/Recipe/To-Die-For-Blueberry-Muffins/Detail.aspx
p4989
(lp4990
g10
ag7
aVsalt
p4991
aVbaking powder
p4992
aVvegetable oil
p4993
ag6
ag39
aVblueberry
p4994
ag17
aVcinnamon
p4995
atp4996
sV37888
p4997
(VZucchini Spice Bread
p4998
Vhttp://static.food2fork.com/zucchinibread_300f78683d8.jpg
p4999
Vhttp://www.realsimple.com/food-recipes/browse-all-recipes/zucchini-spice-bread-00000000059655/index.html
p5000
(lp5001
Vcanola oil
p5002
ag10
aVbaking powder
p5003
aVcinnamon
p5004
aVginger
p5005
aVkosher salt
p5006
aVbaking soda
p5007
aVnutmeg
p5008
aNag7
ag6
aVpure vanilla extract
p5009
atp5010
sV6695
p5011
(VHow to Make Pumpkin Pancakes
p5012
Vhttp://static.food2fork.com/1000432aa20.jpg
p5013
Vhttp://allrecipes.com/Recipe/Chef-Johns-Pumpkin-Pancakes/Detail.aspx
p5014
(lp5015
g10
ag7
aVbaking powder
p5016
aVbaking soda
p5017
aVsalt
p5018
aVnbsp
p5019
aVpumpkin puree
p5020
aVcinnamon
p5021
aVginger
p5022
aVallspice
p5023
ag6
ag39
aVvegetable oil
p5024
ag51
atp5025
sV8170
p5026
(VChocolate Cupcakes
p5027
Vhttp://static.food2fork.com/1007622def7.jpg
p5028
Vhttp://allrecipes.com/Recipe/Chocolate-Cupcakes/Detail.aspx
p5029
(lp5030
g10
aVbaking soda
p5031
aVbaking powder
p5032
aVunsweetened cocoa powder
p5033
aVsalt
p5034
ag17
ag7
ag6
aVvanilla extract
p5035
ag39
atp5036
sVecf513
p5037
(VSweet Corn Waffles with Blueberry-Bourbon Syrup
p5038
Vhttp://static.food2fork.com/13612430123_dcfe6f44bc_ob0d4.png
p5039
Vhttp://www.healthy-delicious.com/2014/04/sweet-corn-waffles-blueberry-bourbon-sauce/
p5040
(lp5041
g1214
ag39
ag6
aVvanilla extract
p5042
ag17
ag10
aVbaking powder
p5043
aVsalt
p5044
ag223
aVsteel cut oat
p5045
aVblueberry
p5046
aVmaple syrup
p5047
ag2048
atp5048
sV555d64
p5049
(VBloomin' brilliant brownies
p5050
Vhttp://static.food2fork.com/88_1_1349871216_lrg3198.jpg
p5051
Vhttp://www.jamieoliver.com/recipes/chocolate-recipes/bloomin-brilliant-brownies
p5052
(lp5053
g17
aVgood-quality dark chocolate cocoa solid
p5054
aVsour cherry
p5055
ag82
aVcocoa powder
p5056
ag10
aVbaking powder
p5057
ag7
ag6
ag306
aVcrme frache
p5058
atp5059
sV7262d7
p5060
(VBlueberry Cream Cheese&nbsp;Cupcakes - Home - Pastry Affair
p5061
Vhttp://static.food2fork.com/7681394728_b63c873a75_b4181.jpg
p5062
Vhttp://www.pastryaffair.com/blog/blueberry-cream-cheese-cupcakes.html
p5063
(lp5064
g360
ag17
ag7
ag6
aVsour cream plain
p5065
aVvegetable oil
p5066
aVvanilla extract
p5067
aNaVbaking powder
p5068
aVbaking soda
p5069
aVsalt
p5070
ag39
aVblueberry
p5071
atp5072
sVda145c
p5073
(VLemon Poppy Seed Muffins
p5074
Vhttp://static.food2fork.com/LemonPoppySeedMuffins428ae.jpg
p5075
Vhttp://www.twopeasandtheirpod.com/lemon-poppy-seed-muffins/
p5076
(lp5077
Nag7
ag51
ag10
aVbaking powder
p5078
aVbaking soda
p5079
aVsalt
p5080
ag74
ag6
aVpure vanilla extract
p5081
ag17
aVpoppy seed
p5082
atp5083
sV713d4a
p5084
(VRaspberry Lemon Cream Cheese&nbsp;Cupcakes - Home - Pastry Affair
p5085
Vhttp://static.food2fork.com/8588306972_428759c620_be101.jpg
p5086
Vhttp://www.pastryaffair.com/blog/raspberry-lemon-cream-cheese-cupcakes.html
p5087
(lp5088
g51
ag7
ag17
ag6
aVsour cream plain
p5089
aVvegetable oil
p5090
aVvanilla extract
p5091
aNag360
aVbaking powder
p5092
aVbaking soda
p5093
aVsalt
p5094
ag39
aVraspberry
p5095
atp5096
sV13464
p5097
(VFluffy Pancakes
p5098
Vhttp://static.food2fork.com/842371eb16.jpg
p5099
Vhttp://allrecipes.com/Recipe/Fluffy-Pancakes-2/Detail.aspx
p5100
(lp5101
g39
aVwhite vinegar
p5102
ag10
ag7
aVbaking powder
p5103
aVbaking soda
p5104
aVsalt
p5105
ag6
ag17
aVcooking spray
p5106
atp5107
sV41fd92
p5108
(VBlitz-and-bake beetroot &amp; chocolate cake
p5109
Vhttp://static.food2fork.com/7663_MEDIUM4574.jpg
p5110
Vhttp://www.bbcgoodfood.com/recipes/7663/blitzandbake-beetroot-and-chocolate-cake
p5111
(lp5112
g432
ag10
aVcocoa powder
p5113
aVbaking powder
p5114
ag7
ag6
aVvanilla extract
p5115
aVsunflower oil
p5116
aVdark chocolate
p5117
aVcrme frache clotted cream
p5118
atp5119
sV49014
p5120
(VDevil
p5121
Vhttp://static.food2fork.com/devilsfoodcakewithhazelnutcrunch646a674.jpg
p5122
Vhttp://www.bonappetit.com/recipes/2012/09/devils-food-cake-with-hazelnut-crunch
p5123
(lp5124
Vnonstick vegetable oil spray
p5125
ag360
aVnatural unsweetened cocoa powder
p5126
aVbaking soda
p5127
aVkosher salt
p5128
aVbaking powder
p5129
aVinstant espresso powder
p5130
ag41
aVbuttermilk
p5131
ag7
ag17
ag6
aVvanilla extract
p5132
aVsemisweet bittersweet chocolate not exceed
p5133
aVhazelnut
p5134
aVnutella
p5135
ag544
ag39
ag223
aVheavy cream
p5136
atp5137
sVec0dc8
p5138
(VAll Recipes
p5139
Vhttp://static.food2fork.com/maplesweetenedpeanutbutterchocolatechipoatmealcookiesc411.jpg
p5140
Vhttp://cookieandkate.com/2014/maple-sweetened-peanut-butter-chocolate-chip-oatmeal-cookies/
p5141
(lp5142
g82
aVreal maple syrup
p5143
ag17
ag6
aVvanilla extract
p5144
aVbaking soda
p5145
aVbaking powder
p5146
aVfine-grain sea salt
p5147
aVold-fashioned rolled oat
p5148
ag90
atp5149
sV02c4a7
p5150
(VDouble-Chocolate Loaf with Peanut Butter Cream Cheese Spread Recipe
p5151
Vhttp://static.food2fork.com/5964465073_7be71459551a83.jpg
p5152
Vhttp://www.cookincanuck.com/2011/08/double-chocolate-loaf-with-peanut-butter-cream-cheese-spread-recipe/
p5153
(lp5154
Nag7
aVdark unsweetened cocoa powder
p5155
ag10
aVbaking soda
p5156
aVbaking powder
p5157
aVsalt
p5158
ag6
aVbuttermilk
p5159
aVvegetable oil
p5160
aVvanilla extract
p5161
aVdark chocolate
p5162
aVcream cheese
p5163
ag82
atp5164
sV88dba3
p5165
(VChocolate Strawberry Shortcake
p5166
Vhttp://static.food2fork.com/chocolatestrawberryshortcakeglutenfreerecipe27f4.jpg
p5167
Vhttp://www.elanaspantry.com/chocolate-strawberry-shortcake/
p5168
(lp5169
g10
aVcacao powder
p5170
aVceltic sea salt
p5171
aVbaking soda
p5172
ag6
aVagave nectar
p5173
aVheavy cream
p5174
aVvanilla extract
p5175
aVstrawberry
p5176
atp5177
sV47051
p5178
(VDevil Dogs
p5179
Vhttp://static.food2fork.com/5471010984_60c9544d59_o24c7.jpg
p5180
Vhttp://thepioneerwoman.com/cooking/2011/02/devil-dogs/
p5181
(lp5182
g360
ag25
aVmaraschino cherry
p5183
aNag10
ag7
aVsalt
p5184
aVcocoa
p5185
ag17
aVboiling
p5186
aVbuttermilk
p5187
ag6
aVbaking soda
p5188
aVvanilla
p5189
aVfinely pecan
p5190
ag39
atp5191
sV54466
p5192
(VPumpkin Cinnamon Streusel Pancakes
p5193
Vhttp://static.food2fork.com/pumpkincinnamonstreuselpancakes1bc7b.jpg
p5194
Vhttp://www.twopeasandtheirpod.com/pumpkin-cinnamon-streusel-pancakes/
p5195
(lp5196
Nag10
ag7
aVcinnamon
p5197
ag17
aVbaking powder
p5198
aVsalt
p5199
aVnutmeg
p5200
aVginger
p5201
ag39
aVcanned pumpkin
p5202
ag6
aVcanola oil
p5203
aVvanilla extract
p5204
atp5205
sV47197
p5206
(VMoist Pumpkin Spice Muffins (With Cream Cheese Frosting)
p5207
Vhttp://static.food2fork.com/3981628811_088e669ab63cd3.jpg
p5208
Vhttp://thepioneerwoman.com/cooking/2009/10/moist-pumpkin-spice-muffins-with-cream-cheese-frosting/
p5209
(lp5210
Nag10
ag7
aVbaking powder
p5211
aVcinnamon
p5212
aVginger
p5213
aVnutmeg
p5214
aVsalt
p5215
ag17
aVpumpkin puree
p5216
ag39
ag6
aVvanilla
p5217
aVgolden raisin optional
p5218
aVtopping
p5219
atp5220
sVdecb63
p5221
(VBacon Banana Cookies
p5222
Vhttp://static.food2fork.com/3692524651.jpg
p5223
Vhttp://www.epicurious.com/recipes/food/views/Bacon-Banana-Cookies-369252
p5224
(lp5225
g10
aVbaking powder
p5226
aVbaking soda
p5227
aVcinnamon
p5228
aVkosher salt
p5229
ag17
ag7
ag6
aVvanilla extract
p5230
ag83
ag493
atp5231
sV54461
p5232
(VPeanut Butter Apple Bars
p5233
Vhttp://static.food2fork.com/peanutbutterappleblondies8024.jpg
p5234
Vhttp://www.twopeasandtheirpod.com/peanut-butter-apple-bars/
p5235
(lp5236
Nag17
ag7
ag82
ag6
aVvanilla extract
p5237
ag10
aVbaking powder
p5238
aVbaking soda
p5239
aVsalt
p5240
ag625
ag39
atp5241
sV1dc820
p5242
(VNutty Bread
p5243
Vhttp://static.food2fork.com/grainfreesevengrainnuttybread3fce.jpg
p5244
Vhttp://www.elanaspantry.com/nutty-bread/
p5245
(lp5246
g10
aVarrowroot powder
p5247
aVgolden flaxmeal
p5248
aVceltic sea salt
p5249
aVbaking soda
p5250
ag6
aVagave nectar
p5251
ag625
aVwalnut
p5252
aVhazelnut
p5253
aVpistachio
p5254
aVpumpkin seed
p5255
aVsunflower seed
p5256
aVsesame seed
p5257
atp5258
sVf3db8f
p5259
(VBlueberry Coconut Muffins
p5260
Vhttp://static.food2fork.com/BlueberryCoconutMuffins1f654.jpg
p5261
Vhttp://www.twopeasandtheirpod.com/blueberry-coconut-muffins/
p5262
(lp5263
g10
ag7
aVsalt
p5264
aVbaking powder
p5265
aVcoconut oil
p5266
ag6
ag39
aVvanilla extract
p5267
aVsweetened coconut
p5268
aVblueberry
p5269
atp5270
sVaa7a22
p5271
(VLighter spiced carrot cake
p5272
Vhttp://static.food2fork.com/2624636_MEDIUM64fc.jpg
p5273
Vhttp://www.bbcgoodfood.com/recipes/2624636/lighter-spiced-carrot-cake
p5274
(lp5275
Vrapeseed oil
p5276
ag10
aVbaking powder
p5277
aVbicarbonate soda
p5278
aVmixed spice
p5279
ag7
ag307
ag1370
aVsultana
p5280
ag6
aVagave syrup
p5281
ag306
aVquark
p5282
aVfromage frais
p5283
atp5284
sV19fed5
p5285
(VTriple Malt Chocolate Cake Recipe
p5286
Vhttp://static.food2fork.com/12230_triple_malt_chocolate_cakef7fb.jpg
p5287
Vhttp://www.chow.com/recipes/12230-triple-malt-chocolate-cake
p5288
(lp5289
g39
ag10
aVunsweetened cocoa powder
p5290
aVsalt
p5291
aVbaking soda
p5292
ag6
ag7
aVvegetable oil
p5293
aVvanilla extract
p5294
aVrecipe
p5295
atp5296
sV49234
p5297
(VFrench Yogurt Cake
p5298
Vhttp://static.food2fork.com/frenchyogurtcake6460a77.jpg
p5299
Vhttp://www.bonappetit.com/recipes/2012/05/french-yogurt-cake
p5300
(lp5301
Vnonstick vegetable oil spray
p5302
ag10
aVbaking powder
p5303
aVkosher salt
p5304
ag7
ag51
ag74
aVvegetable oil
p5305
ag6
aVvanilla extract
p5306
atp5307
sV47352
p5308
(VDinner Rolls
p5309
Vhttp://static.food2fork.com/2035567395_95d5d714db58c1.jpg
p5310
Vhttp://thepioneerwoman.com/cooking/2007/11/pw_dinner_rolls_-_no_kneading_required/
p5311
(lp5312
g39
ag7
aVvegetable oil
p5313
ag10
aVactive dry yeast
p5314
aVbaking powder
p5315
aVbaking soda
p5316
aVsalt
p5317
atp5318
sV8996
p5319
(VClassic Waffles
p5320
Vhttp://static.food2fork.com/347614970.jpg
p5321
Vhttp://allrecipes.com/Recipe/Classic-Waffles/Detail.aspx
p5322
(lp5323
g10
aVsalt
p5324
aVbaking powder
p5325
ag7
ag6
ag39
ag17
aVvanilla extract
p5326
atp5327
sV25834
p5328
(VQuick and Easy Brownies
p5329
Vhttp://static.food2fork.com/4870076f25.jpg
p5330
Vhttp://allrecipes.com/Recipe/Quick-And-Easy-Brownies/Detail.aspx
p5331
(lp5332
g7
ag17
aVcocoa powder
p5333
aVvanilla extract
p5334
ag6
ag10
aVbaking powder
p5335
aVsalt
p5336
aVwalnut
p5337
atp5338
sVfbc7af
p5339
(VThe Best Chocolate Sheet Cake. Ever.
p5340
Vhttp://static.food2fork.com/388604527_5e6812454fc6f7.jpg
p5341
Vhttp://thepioneerwoman.com/cooking/2007/06/the_best_chocol/
p5342
(lp5343
Nag10
ag7
aVsalt
p5344
aVcocoa
p5345
ag17
aVboiling
p5346
aVbuttermilk
p5347
ag6
aVbaking soda
p5348
aVvanilla
p5349
aVfinely pecan
p5350
ag39
atp5351
sV36819
p5352
(VRed Velvet Cupcakes with Cream Cheese Frosting
p5353
Vhttp://static.food2fork.com/redvelvetcupcakes_photo300x200b7c6f909.jpg
p5354
Vhttp://www.simplyrecipes.com/recipes/red_velvet_cupcakes_with_cream_cheese_frosting/
p5355
(lp5356
g7
ag17
ag6
ag360
aVdutch-processed cocoa powder
p5357
aVbaking soda
p5358
aVbaking powder
p5359
aVsalt
p5360
aVbuttermilk*
p5361
aVred food coloring
p5362
aVvanilla extract
p5363
aVdistilled white vinegar
p5364
aVphilly cream cheese
p5365
atp5366
sV12397
p5367
(VEasy Sugar Cookies
p5368
Vhttp://static.food2fork.com/403497f9fa.jpg
p5369
Vhttp://allrecipes.com/Recipe/Easy-Sugar-Cookies/Detail.aspx
p5370
(lp5371
g10
aVbaking soda
p5372
aVbaking powder
p5373
ag17
ag7
ag6
aVvanilla extract
p5374
atp5375
sV3987d5
p5376
(Vmy favorite buttermilk biscuits
p5377
Vhttp://static.food2fork.com/8538746952_3887aaabc8441a.jpg
p5378
Vhttp://smittenkitchen.com/blog/2013/03/my-favorite-buttermilk-biscuits/
p5379
(lp5380
g10
ag7
aVbaking powder
p5381
aVtable salt
p5382
aVbaking soda
p5383
ag17
aVbuttermilk
p5384
atp5385
s.