(dp0
V40f097
p1
(Vdijon-braised brussels sprouts
p2
Vhttp://static.food2fork.com/6421044781_e0f473f53d76f8.jpg
p3
Vhttp://smittenkitchen.com/blog/2011/11/dijon-braised-brussels-sprouts/
p4
(lp5
Vbrussels sprout
p6
aS'butter'
p7
aVolive oil
p8
aVsalt
p9
aVblack pepper
p10
aS'wine'
p11
aVbroth
p12
aVshallot
p13
aVheavy cream
p14
aVsmooth dijon mustard
p15
aVflat-leaf parsley
p16
atp17
sV6132fc
p18
(VFalafel burgers
p19
Vhttp://static.food2fork.com/5605_MEDIUMe040.jpg
p20
Vhttp://www.bbcgoodfood.com/recipes/5605/falafel-burgers
p21
(lp22
Vchickpea
p23
aVgarlic
p24
aVflat-leaf parsley curly parsley
p25
aVcumin
p26
aVcoriander
p27
aVharissa paste chilli powder
p28
aS'flour'
p29
aVsunflower oil
p30
aS'bread'
p31
aS'tomatoes'
p32
aVgreen salad
p33
aS'onions'
p34
atp35
sV49537
p36
(VCrispy Cauliflower with Capers, Raisins, and Breadcrumbs
p37
Vhttp://static.food2fork.com/crispycauliflowerwithcapersraisinsandbreadcrumbs326496d.jpg
p38
Vhttp://www.bonappetit.com/recipes/2011/11/crispy-cauliflower-with-capers-raisins-and-breadcrumbs
p39
(lp40
Vcauliflower
p41
aVolive oil
p42
aVkosher salt black pepper
p43
aVgarlic
p44
aVsalt-packed caper
p45
aVcoarse breadcrumb
p46
aS'chicken'
p47
aVanchovy paste
p48
aVgolden raisin
p49
ag11
aVflat-leaf parsley
p50
atp51
sVbebbba
p52
(VSummertime tagliarini
p53
Vhttp://static.food2fork.com/575_1_1349092341_lrgcfbc.jpg
p54
Vhttp://www.jamieoliver.com/recipes/pasta-recipes/summertime-tagliarini
p55
(lp56
S'peanut butter'
p57
aVjuice
p58
aVzest of lemons
p59
aVbunch flat-leaf parsley
p60
aVextra virgin olive oil
p61
aVparmesan cheese
p62
aVpecorino cheese
p63
aVsea salt
p64
aVblack pepper
p65
aVgood-quality tagliarini tagliatelle
p66
atp67
sVde8d71
p68
(Vchopped salad with feta, lime and mint
p69
Vhttp://static.food2fork.com/7463002884_c89697043a282a.jpg
p70
Vhttp://smittenkitchen.com/blog/2012/06/chopped-salad-with-feta-lime-and-mint/
p71
(lp72
NaVcrumbled feta
p73
aVscallion
p74
aVwell-toasted sunflower seed
p75
aVlime juice
p76
aVolive oil
p77
aVcoarse kosher salt
p78
aS'peaches'
p79
aVblack pepper
p80
aVthinly sliced mint leaf
p81
atp82
sV6bf716
p83
(VPesto, Tomato, and Mozzarella Sandwich
p84
Vhttp://static.food2fork.com/DSC_41290959.jpg
p85
Vhttp://thepioneerwoman.com/cooking/2014/08/pesto-tomato-and-mozzarella-sandwich/
p86
(lp87
Vbasil leaf more
p88
aS'strawberries'
p89
aVparmesan cheese
p90
aVsalt
p91
aVgarlic
p92
aVolive oil
p93
aS'rolls'
p94
ag32
aNatp95
sV20840
p96
(VPesto Chicken Florentine
p97
Vhttp://static.food2fork.com/18742d5b.jpg
p98
Vhttp://allrecipes.com/Recipe/Pesto-Chicken-Florentine/Detail.aspx
p99
(lp100
Volive oil
p101
aVgarlic
p102
aNaVspinach leaf
p103
aVdry alfredo sauce mix
p104
aVpesto
p105
aVdry penne pasta
p106
aVromano cheese
p107
atp108
sV39080
p109
(VHerb Potato Salad
p110
Vhttp://static.food2fork.com/herbpotatosalad_30009c16680.jpg
p111
Vhttp://www.realsimple.com/food-recipes/browse-all-recipes/potato-salad-recipe-00100000079226/index.html
p112
(lp113
S'potatoes'
p114
aVherb such flat-leaf parsley
p115
aVscallion
p116
aVolive oil
p117
aVwhole-grain mustard
p118
ag11
atp119
sVf2f479
p120
(VCreamy pesto chicken with roasted tomatoes
p121
Vhttp://static.food2fork.com/10416_MEDIUMf8ce.jpg
p122
Vhttp://www.bbcgoodfood.com/recipes/10416/creamy-pesto-chicken-with-roasted-tomatoes
p123
(lp124
NaVhomemade pesto
p125
aVmascarpone
p126
aVolive oil
p127
aVbreadcrumb
p128
ag32
ag57
aVbasil leaf
p129
atp130
sVf66332
p131
(VSweet Potato and Kale Grilled Cheese
p132
Vhttp://static.food2fork.com/SweetPotatoKaleGrilledCheese55a59.jpg
p133
Vhttp://www.twopeasandtheirpod.com/sweet-potato-and-kale-grilled-cheese/
p134
(lp135
g114
aVolive oil
p136
aVsalt
p137
aVblack pepper
p138
ag34
ag7
ag31
aVharvarti cheese
p139
aVleaf lacinato kale
p140
aVrosemary
p141
aVbalsamic glaze reduction
p142
atp143
sV7bbe66
p144
(VMaple-Mustard Grilled Salmon Recipe
p145
Vhttp://static.food2fork.com/29867_maple_grilled_salmon_6208d50.jpg
p146
Vhttp://www.chow.com/recipes/29867-maple-mustard-grilled-salmon
p147
(lp148
Vmaple syrup
p149
aVwhole-grain mustard
p150
aVcider vinegar
p151
aVfinely thyme leaf
p152
aVkosher salt
p153
aVblack pepper
p154
aV-ounce salmon fillet
p155
aVvegetable oil
p156
atp157
sV1bf3de
p158
(VProsciutto-Stuffed Chicken with Mushroom Sauce
p159
Vhttp://static.food2fork.com/51122430adaf.jpg
p160
Vhttp://www.epicurious.com/recipes/food/views/Prosciutto-Stuffed-Chicken-with-Mushroom-Sauce-51122430
p161
(lp162
NaVkosher salt
p163
aVthin prosciutto
p164
aVthin provolone cheese
p165
aVbasil leaf
p166
ag7
aVvegetable oil
p167
aS'mushrooms '
p168
ag47
ag11
aVmixed herb such basil
p169
atp170
sV54293
p171
(VSpaghetti with Sun Dried Tomatoes & Spinach
p172
Vhttp://static.food2fork.com/spaghettiwithsundriedtomatoesandspinach35022.jpg
p173
Vhttp://www.twopeasandtheirpod.com/spaghetti-with-sun-dried-tomatoes-spinach/
p174
(lp175
S'spaghetti and macaroni'
p176
aVextra virgin olive oil
p177
aVgarlic
p178
ag32
aVwashed spinach leaf
p179
aVbalsamic vinegar
p180
aVcrumbled feta cheese
p181
aVsalt
p182
aVblack pepper
p183
atp184
sV97486e
p185
(Vpancetta, white bean and chard pot pies
p186
Vhttp://static.food2fork.com/8090478286_32b131d5595814.jpg
p187
Vhttp://smittenkitchen.com/blog/2012/10/pancetta-white-bean-and-swiss-chard-pot-pies/
p188
(lp189
g29
aVtable salt
p190
ag7
aS'yogurt'
p191
ag11
aS'rice'
p192
aS'eggs'
p193
aVolive oil
p194
aV-inch-diced pancetta
p195
ag34
aS'carrots'
p196
aS'celery'
p197
aVred pepper flake
p198
aVsalt
p199
aVfreshly ground black pepper
p200
aVgarlic
p201
aVthinly sliced swiss chard leaf from -ounce -gram
p202
aVbundle leaf are very wide
p203
ag47
aS'beans'
p204
aV-gram
p205
atp206
sV36347
p207
(VFrutti di Mare Seafood Salad
p208
Vhttp://static.food2fork.com/fruttidimarea297x2009cea66cc.jpg
p209
Vhttp://www.simplyrecipes.com/recipes/frutti_di_mare_seafood_salad/
p210
(lp211
Nag11
aVsalt
p212
aVbay leaf
p213
aVcracked black pepper
p214
ag34
ag197
aS'oranges'
p215
ag32
aVchive
p216
aVcocktail shrimp
p217
aVclam shell
p218
aVbay scallop
p219
aVcalamari
p220
aVhigh-quality olive oil
p221
aS'lemons'
p222
aVblack pepper
p223
atp224
sV54357
p225
(VGrilled Pesto Potatoes
p226
Vhttp://static.food2fork.com/grilledpestopotatoes30266.jpg
p227
Vhttp://www.twopeasandtheirpod.com/grilled-pesto-potatoes/
p228
(lp229
NaVbasil leaf
p230
aVparmesan-reggiano cheese
p231
aVextra virgin olive oil
p232
ag57
aVgarlic
p233
aVsalt
p234
aVfreshly ground black pepper
p235
ag114
aVcooking spray
p236
aValuminum foil
p237
atp238
sV788d47
p239
(VGreen Goddess Pasta
p240
Vhttp://static.food2fork.com/205xNxGreenGoddessPasta1286f.jpg.pagespeed.ic.ASR44MZ0Q.jpg
p241
Vhttp://www.healthy-delicious.com/2014/03/green-goddess-pasta-recipe/
p242
(lp243
g176
aVbunch asparagus
p244
aVavocado
p245
aVgarlic
p246
ag222
aVlime
p247
ag79
aVbasil leaf
p248
aVreduced fat sour cream
p249
aVolive oil
p250
aVshallot
p251
aVarugula
p252
aVsalt
p253
aVpepper
p254
atp255
sV35788
p256
(VBeer Can Chicken
p257
Vhttp://static.food2fork.com/beercanchickena300x2001d673ef8.jpg
p258
Vhttp://www.simplyrecipes.com/recipes/beer_can_chicken/
p259
(lp260
g47
aVolive oil vegetable oil
p261
aVopened
p262
aVkosher salt
p263
aVthyme leaf
p264
aVblack pepper
p265
atp266
sV48688
p267
(VSpring Vegetable Risotto with Poached Eggs
p268
Vhttp://static.food2fork.com/springvegetablerisottowithpoachedeggs646d18a.jpg
p269
Vhttp://www.bonappetit.com/recipes/2013/04/spring-vegetable-risotto-with-poached-eggs
p270
(lp271
Vshelled
p272
aVkosher salt
p273
aVdistilled white vinegar
p274
ag193
ag47
ag7
ag168
aVolive oil
p275
aVleek
p276
aVfennel bulb
p277
aVgarlic
p278
ag192
ag11
aVbunch flat-leaf spinach
p279
aS'frankfurters'
p280
aVfinely pecorino parmesan plus more shaving
p281
aVchive plus more serving
p282
aVblack pepper
p283
atp284
sV47849
p285
(VMarjoram Sauce with Capers & Green Olives
p286
Vhttp://static.food2fork.com/marjoram_sauce7858.jpg
p287
Vhttp://www.101cookbooks.com/archives/marjoram-sauce-with-capers-green-olives-recipe.html
p288
(lp289
g31
aVaged red vine vinegar
p290
aVgarlic
p291
aVsea salt
p292
aVmarjoram leaf
p293
aVcaper
p294
ag57
aVfinely parsley
p295
aVgreen olive
p296
aVolive oil
p297
atp298
sV39584
p299
(VSlow-Cooker Creamy Chicken and Mushroom Potpie
p300
Vhttp://static.food2fork.com/chickenpotpie_300000da17e.jpg
p301
Vhttp://www.realsimple.com/food-recipes/browse-all-recipes/chicken-mushroom-pot-pie-00100000074128/index.html
p302
(lp303
g168
ag196
ag34
ag29
aVsprig thyme
p304
aVbay leaf
p305
aNaVkosher salt black pepper
p306
aVsheet puff pastry -ounce
p307
ag79
ag204
atp308
sV6edcb5
p309
(VOnion, Mushroom, and Goat Cheese Mini Frittatas Recipe
p310
Vhttp://static.food2fork.com/30110_onion_mushroom_mini_frittatas_2_620dd4b.jpg
p311
Vhttp://www.chow.com/recipes/30110-onion-mushroom-and-goat-cheese-mini-frittatas
p312
(lp313
Volive oil
p314
ag7
ag34
aVblack pepper
p315
aVfinely thyme leaf
p316
ag168
aVchvre
p317
ag193
aS'milk'
p318
aVkosher salt
p319
atp320
sV8c5278
p321
(VAll Recipes
p322
Vhttp://static.food2fork.com/lentilchickpeaveggieburgerswithavocadogreenharissa0d635.jpg
p323
Vhttp://cookieandkate.com/2014/lentil-chickpea-veggie-burgers-with-avocado-green-harissa/
p324
(lp325
g196
ag34
aVgarlic
p326
aS'uncooked beef roasts'
p327
ag193
aVold-fashioned rolled oat
p328
aVcilantro parsley leaf
p329
aVchili powder
p330
aVsmoked paprika
p331
aVgarlic chili sauce
p332
aVfine-grain sea salt
p333
aVblack pepper
p334
ag29
aVhigh quality vegetable oil extra virgin olive oil
p335
aVavocado
p336
aVlightly packed mint leaf
p337
aVlightly packed cilantro leaf stem
p338
aVjalapeos
p339
ag222
aVcumin
p340
aVcoriander
p341
aVextra virgin olive oil
p342
aVbun choice english muffin
p343
aVadd some crunch dill pickle
p344
aVgreen
p345
ag32
aVwhatever else strike your fancy
p346
atp347
sV252cb1
p348
(VAll Recipes
p349
Vhttp://static.food2fork.com/lentilandmushroommeatballs14147.jpg
p350
Vhttp://cookieandkate.com/2013/lentil-and-mushroom-meatballs/
p351
(lp352
Vbrown lentil
p353
aVbay leaf
p354
aVvegetable broth
p355
ag168
aVold-fashioned oat
p356
aVflat-leaf parsley leaf
p357
aVoregano
p358
aVred pepper flake
p359
aVthyme
p360
aVterragon
p361
aVolive oil
p362
ag34
aVgarlic
p363
ag11
aVtamari soy sauce
p364
ag193
aVsea salt pepper
p365
atp366
sVf8da4a
p367
(VOne-pan summer eggs
p368
Vhttp://static.food2fork.com/7013_MEDIUMd940.jpg
p369
Vhttp://www.bbcgoodfood.com/recipes/7013/onepan-summer-eggs
p370
(lp371
Volive oil
p372
aVcourgette
p373
ag32
aVgarlic
p374
ag193
aVfew basil leaf
p375
atp376
sV2480
p377
(VBaked Garlic Parmesan Chicken
p378
Vhttp://static.food2fork.com/6184894a21.jpg
p379
Vhttp://allrecipes.com/Recipe/Baked-Garlic-Parmesan-Chicken/Detail.aspx
p380
(lp381
Volive oil
p382
aVgarlic
p383
ag31
aVparmesan cheese
p384
aVbasil leaf
p385
aVblack pepper
p386
aNatp387
sV2776bb
p388
(VGoat's cheese &amp; thyme stuffed chicken
p389
Vhttp://static.food2fork.com/3925_MEDIUM30a4.jpg
p390
Vhttp://www.bbcgoodfood.com/recipes/3925/goats-cheese-and-thyme-stuffed-chicken
p391
(lp392
NaVfirm goat cheese
p393
aVthyme leaf
p394
aS'bacon'
p395
aVcourgette
p396
aVolive oil
p397
ag32
atp398
sV640fbe
p399
(VRoast Chickens with Pistachio Salsa, Peppers, and Corn
p400
Vhttp://static.food2fork.com/3959417810.jpg
p401
Vhttp://www.epicurious.com/recipes/food/views/Roast-Chickens-with-Pistachio-Salsa-Peppers-and-Corn-395941
p402
(lp403
g222
aVolive oil
p404
aVgarlic
p405
aVthyme leaf plus sprig stuffing
p406
aVrosemary
p407
aS'sausage'
p408
ag47
aVkosher salt
p409
aVblack pepper
p410
ag34
aVcaper plus caper brine
p411
aVred pepper flake
p412
aVthinly sliced yellow
p413
aVred fresno chile
p414
aS'corn'
p415
aVflat-leaf parsley
p416
ag11
aVunsalted shelled pistachio
p417
aVthinly sliced chive
p418
aVextra virgin olive oil
p419
atp420
sVf1898b
p421
(VAll Recipes
p422
Vhttp://static.food2fork.com/vegetarianbutternutsquashchilirecipe1b9b1.jpg
p423
Vhttp://cookieandkate.com/2012/butternut-squash-chipotle-chili-with-avocado/
p424
(lp425
Volive oil
p426
ag34
aVred bell pepper
p427
aVbutternut squash
p428
aVgarlic
p429
aVchili powder
p430
aVchipotle pepper adobo* start with add more
p431
aVcumin
p432
aVcinnamon
p433
aVbay leaf
p434
ag204
ag32
aVvegetable broth one -ounce
p435
aVsalt
p436
aVavocado from mexico
p437
ag415
aVoptional additional garnish cilantro red pepper flake
p438
atp439
sVc1dfd7
p440
(VChunky sausage &amp; tomato pasta
p441
Vhttp://static.food2fork.com/2625_MEDIUM589c.jpg
p442
Vhttp://www.bbcgoodfood.com/recipes/2625/chunky-sausage-and-tomato-pasta
p443
(lp444
Volive oil
p445
aS'pork chops'
p446
aVgarlic
p447
ag11
ag32
aVpack rigatoni penne
p448
aVbasil leaf
p449
aVparmesan
p450
atp451
sV36100
p452
(VCorn Chowder
p453
Vhttp://static.food2fork.com/cornchowder520280x200027b3aa2.jpg
p454
Vhttp://www.simplyrecipes.com/recipes/corn_chowder/
p455
(lp456
g7
ag395
ag34
ag196
ag197
aS'pears'
p457
aVbay leaf
p458
ag318
ag114
aVred bell pepper
p459
aVkosher salt pepper
p460
aVthyme leaf
p461
atp462
sV1fc839
p463
(VCrispy Baked Chicken Breasts Recipe
p464
Vhttp://static.food2fork.com/30399_RecipeImage_620x413_crispy_baked_chicken_breasts_3a61e.jpg
p465
Vhttp://www.chow.com/recipes/30399-crispy-baked-chicken-breasts
p466
(lp467
Vpanko
p468
aVemmentaler gruyre cheese
p469
aVolive oil
p470
aVkosher salt
p471
aVblack pepper
p472
aVmayonnaise
p473
ag318
aVfinely thyme leaf
p474
aNatp475
sV35769
p476
(VBasil Hummus
p477
Vhttp://static.food2fork.com/basilhummus300x200e69b407a.jpg
p478
Vhttp://www.simplyrecipes.com/recipes/basil_hummus/
p479
(lp480
g57
aVsweet basil leaf
p481
aVgarlic
p482
ag204
aVolive oil
p483
aNag222
aVsalt
p484
aVseveral tabasco
p485
ag32
atp486
sV188cf8
p487
(VThe nicest tray-baked lemon sole
p488
Vhttp://static.food2fork.com/616_1_1350913246_lrg3f66.jpg
p489
Vhttp://www.jamieoliver.com/recipes/fish-recipes/the-nicest-tray-baked-lemon-sole
p490
(lp491
g222
aNag32
aVgarlic
p492
aVoregano basil
p493
ag34
aVbalsamic vinegar
p494
aVsea salt
p495
aVblack pepper
p496
aVextra virgin olive oil
p497
aVblack olive
p498
aVflat-leaf parsley
p499
atp500
sV46932
p501
(VBruschetta Chicken
p502
Vhttp://static.food2fork.com/bruschafa5.jpg
p503
Vhttp://thepioneerwoman.com/cooking/2012/04/bruschetta-chicken/
p504
(lp505
Volive oil
p506
aVgarlic
p507
aS'grapefruit'
p508
aVbalsamic vinegar
p509
aVbasil leaf
p510
aVsalt
p511
aVblack pepper to taste (don't oversalt)
p512
aNaVpepper
p513
aVshaved parmesan
p514
aVpepper to taste (don't oversalt!)
p515
aVbaguette
p516
ag7
atp517
sV49210
p518
(VQuinoa Tabbouleh
p519
Vhttp://static.food2fork.com/quinoa_tabbouleh_6463cd2.jpg
p520
Vhttp://www.bonappetit.com/recipes/2012/06/quinoa-tabbouleh
p521
(lp522
Vquinoa
p523
aVkosher salt plus more
p524
ag222
aVgarlic
p525
aVextra virgin olive oil
p526
aVblack pepper
p527
aS'cucumbers'
p528
ag32
aVflat-leaf parsley
p529
aVmint
p530
aVscallion
p531
atp532
sVbb8eef
p533
(VCreamy mussels with smoky bacon &amp; cider
p534
Vhttp://static.food2fork.com/159_1_1349864177_lrg73f6.jpg
p535
Vhttp://www.jamieoliver.com/recipes/seafood-recipes/creamy-mussels-with-smoky-bacon-cider
p536
(lp537
Volive oil
p538
ag395
aVmussel
p539
aNaVgarlic
p540
aVgood-quality cider
p541
aVfat-free natural yoghurt
p542
aVbunch tarragon
p543
aVbunch flat-leaf parsley
p544
ag31
aVextra virgin olive oil
p545
atp546
sV9a88d4
p547
(VTomato Salad with Shallot Vinaigrette, Capers, and Basil
p548
Vhttp://static.food2fork.com/395510f3b6.jpg
p549
Vhttp://www.epicurious.com/recipes/food/views/Tomato-Salad-with-Shallot-Vinaigrette-Capers-and-Basil-395510
p550
(lp551
Vshallot
p552
ag11
aVkosher salt plus more
p553
aS'sugar'
p554
aVextra virgin olive oil
p555
ag32
aVrinsed salt-packed caper
p556
aVblack pepper
p557
aVbasil leaf
p558
atp559
sV38958
p560
(VRosemary-Garlic Chicken
p561
Vhttp://static.food2fork.com/rosegarlicchicken_300deef8626.jpg
p562
Vhttp://www.realsimple.com/food-recipes/browse-all-recipes/rosemary-garlic-chicken-10000000524333/index.html
p563
(lp564
NaVolive oil
p565
aVgarlic
p566
aVkosher salt black pepper
p567
aVsherry vinegar
p568
ag47
aVrosemary leaf rosemary
p569
atp570
sV28579
p571
(VSimple Garlic Shrimp
p572
Vhttp://static.food2fork.com/1004713a15b.jpg
p573
Vhttp://allrecipes.com/Recipe/Simple-Garlic-Shrimp/Detail.aspx
p574
(lp575
Volive oil
p576
aVshrimp
p577
aVsalt
p578
aVgarlic
p579
aVred pepper flake
p580
ag222
aVcaper brine
p581
ag7
aVitalian flat leaf parsley
p582
aNatp583
sV49053
p584
(VChicken with Herb-Roasted Tomatoes and Pan Sauce
p585
Vhttp://static.food2fork.com/chickenwithherbroastedtomatoesandpansauce6468750.jpg
p586
Vhttp://www.bonappetit.com/recipes/quick-recipes/2012/08/chicken-with-herb-roasted-tomatoes-and-pan-sauce
p587
(lp588
g32
aVolive oil
p589
aVherbes provence
p590
aVkosher salt plus more
p591
aVblack pepper
p592
aVworcestershire sauce
p593
aNaVshallot
p594
ag11
aVflat-leaf parsley leaf
p595
aVtarragon leaf
p596
atp597
sV47234
p598
(VBaked Lemon Pasta
p599
Vhttp://static.food2fork.com/3529272690_08cfa6a74d3a0a.jpg
p600
Vhttp://thepioneerwoman.com/cooking/2009/05/baked-lemon-pasta/
p601
(lp602
g176
ag7
aVolive oil
p603
aVgarlic
p604
ag222
aVsour cream
p605
aVkosher salt
p606
aVplenty parmesan cheese
p607
aVflat-leaf parsley
p608
atp609
sV54329
p610
(VSmashed Chickpea Greek Salad Sandwich
p611
Vhttp://static.food2fork.com/smashedchickpeaGreeksaladsandwich3b395.jpg
p612
Vhttp://www.twopeasandtheirpod.com/smashed-chickpea-greek-salad-sandwich/
p613
(lp614
g204
ag191
aVfeta cheese
p615
ag222
ag11
ag34
aVdiced kalamata olive
p616
ag528
aVoregano
p617
aVsalt
p618
aVpepper
p619
ag31
aVspinach leaf
p620
ag508
atp621
sV493588
p622
(VChicken salad
p623
Vhttp://static.food2fork.com/129_1_1349862166_lrgedf7.jpg
p624
Vhttp://www.jamieoliver.com/recipes/chicken-recipes/chicken-salad
p625
(lp626
g47
aVfew black peppercorn
p627
aVfew bay leaf
p628
aVcumin seed
p629
aValmond
p630
aVfat-free natural yoghurt
p631
aVlow-fat mayonnaise
p632
aVjuice
p633
aVzest of lemons
p634
ag528
aVbunch basil
p635
aVbig mixed salad leaf
p636
atp637
sV38243
p638
(VSpiced Chicken With Chickpea and Cucumber Salad
p639
Vhttp://static.food2fork.com/chickencucumberschickpea_300367ae456.jpg
p640
Vhttp://www.realsimple.com/food-recipes/browse-all-recipes/spiced-chicken-chickpea-salad-00100000081152/index.html
p641
(lp642
V-ounce chickpea
p643
ag528
aVtorn basil leaf
p644
aVshallot
p645
aVolive oil
p646
ag11
aVkosher salt black pepper
p647
aVsesame seed
p648
aVpaprika
p649
atp650
sV1cea66
p651
(VPoached Eggs in Tomato Sauce with Chickpeas and Feta
p652
Vhttp://static.food2fork.com/3689636539.jpg
p653
Vhttp://www.epicurious.com/recipes/food/views/Poached-Eggs-in-Tomato-Sauce-with-Chickpeas-and-Feta-368963
p654
(lp655
Volive oil
p656
ag34
aVgarlic
p657
aVjalapeos
p658
aV-ounce chickpea
p659
aVhungarian sweet paprika
p660
aVcumin
p661
ag32
aVkosher salt black pepper
p662
aVcoarsely crumbled feta
p663
ag193
aVflat-leaf parsley
p664
aVcilantro
p665
ag31
atp666
sV14322e
p667
(VHealthy egg &amp; chips
p668
Vhttp://static.food2fork.com/5588_MEDIUM25f4.jpg
p669
Vhttp://www.bbcgoodfood.com/recipes/5588/healthy-egg-and-chips
p670
(lp671
g114
aVshallot
p672
aVolive oil
p673
aVoregano leaf
p674
ag168
ag193
atp675
sV38eaa8
p676
(VSauteed Eggplant with Honey and Thyme
p677
Vhttp://static.food2fork.com/IMG_5141180x1803a40.jpg
p678
Vhttp://www.aspicyperspective.com/2012/08/how-to-cook-eggplant.html
p679
(lp680
Veggplant
p681
ag318
ag29
aVolive oil
p682
aVhoney
p683
aVthyme leaf
p684
aVsea salt
p685
atp686
sV48943
p687
(VBraised Lamb Shanks with Gremolata and Baked Polenta
p688
Vhttp://static.food2fork.com/braisedlambshankswithgremolataandbakedpolenta646739f.jpg
p689
Vhttp://www.bonappetit.com/recipes/2012/10/braised-lamb-shanks-with-gremolata-and-baked-polenta
p690
(lp691
S'lamb and mutton'
p692
aVkosher salt plus more
p693
aVblack pepper
p694
aVrosemary
p695
aVcoarsely fennel seed
p696
aVgarlic
p697
aVolive oil
p698
ag34
ag29
aVpaprika
p699
aVred pepper flake
p700
ag32
ag11
ag47
aVpolenta
p701
aVkosher salt
p702
aVfinely parmesan
p703
ag7
aVflat-leaf parsley leaf
p704
ag222
atp705
sV9b0e8c
p706
(VOne-pan salmon with roast asparagus
p707
Vhttp://static.food2fork.com/5925_MEDIUM39fc.jpg
p708
Vhttp://www.bbcgoodfood.com/recipes/5925/onepan-salmon-with-roast-asparagus
p709
(lp710
g114
aVolive oil
p711
aVasparagus spear
p712
ag32
aVbalsamic vinegar
p713
aVsalmon fillet
p714
aVbasil leaf
p715
atp716
sVa35ad3
p717
(VChicken &amp; red wine casserole with herby dumplings
p718
Vhttp://static.food2fork.com/2637_MEDIUM9f24.jpg
p719
Vhttp://www.bbcgoodfood.com/recipes/2637/chicken-and-red-wine-casserole-with-herby-dumpling
p720
(lp721
g47
ag29
aVolive oil
p722
ag34
ag395
aVgarlic
p723
ag168
aVbay leaf
p724
aVredcurrant sauce
p725
ag215
ag11
aVwhite breadcrumb
p726
aVwholegrain mustard
p727
ag7
aVthyme leaf
p728
aVparsley
p729
ag193
atp730
sVb19170
p731
(Vspicy squash salad with lentils and goat cheese
p732
Vhttp://static.food2fork.com/5120172811_f70641f1e9bdcb.jpg
p733
Vhttp://smittenkitchen.com/blog/2010/10/spicy-squash-salad-with-lentils-and-goat-cheese/
p734
(lp735
Vblack green lentil
p736
aVpeeled
p737
aVolive oil
p738
aVcumin
p739
aVsmoked spanish paprika*
p740
aVcoarse salt
p741
aVarugula
p742
aVsoft crumbled goat cheese
p743
aVthinly sliced mint leaf optional used this
p744
ag11
aVroasted seed from your butternut squash optional see note above
p745
atp746
sVcb13dd
p747
(VPizza margherita in 4 easy steps
p748
Vhttp://static.food2fork.com/4683_MEDIUM544c.jpg
p749
Vhttp://www.bbcgoodfood.com/recipes/4683/pizza-margherita-in-4-easy-steps
p750
(lp751
g31
aVinstant yeast
p752
aVsalt
p753
aVolive oil
p754
aVpassata
p755
aVbasil
p756
aVgarlic
p757
aVball mozzarella
p758
aVshaved parmesan
p759
ag32
aVbasil leaf
p760
atp761
sVf823b2
p762
(VMichael Romano's Secret-Ingredient Soup
p763
Vhttp://static.food2fork.com/51156400cbea.jpg
p764
Vhttp://www.epicurious.com/recipes/food/views/Michael-Romanos-Secret-Ingredient-Soup-51156400
p765
(lp766
Volive oil
p767
ag34
ag196
aVwell-washed thinly sliced leek
p768
aVfinely garlic
p769
aVkosher salt
p770
aVblack pepper
p771
aValeppo pepper red pepper flake
p772
ag408
aVmedium-grind cornmeal
p773
aNaVvegetable stock
p774
aVpacked stemmed coarsely kale chard leaf
p775
aVparmigiano-reggiano serving
p776
atp777
sV072cd0
p778
(VQuinoa Chowder with Spinach, Feta, and Scallions Recipe
p779
Vhttp://static.food2fork.com/29401_quinoa_chowder_62034d0.jpg
p780
Vhttp://www.chow.com/recipes/29401-quinoa-chowder-with-spinach-feta-and-scallions
p781
(lp782
Vquinoa
p783
aNaVolive oil
p784
aVgarlic
p785
aVjalapeo
p786
ag114
aVcumin
p787
aVkosher salt
p788
aVbunch scallion
p789
aVthinly sliced spinach leaf
p790
aVfeta cheese
p791
aVcoarsely cilantro leaf
p792
aVblack pepper
p793
aVpeeled
p794
aVfinely chopped
p795
atp796
sV4b7d80
p797
(VPasta peperonata
p798
Vhttp://static.food2fork.com/382_1_1350903523_lrg922d.jpg
p799
Vhttp://www.jamieoliver.com/recipes/pasta-recipes/pasta-peperonata
p800
(lp801
Vred pepper
p802
aVyellow pepper
p803
aVextra virgin olive oil
p804
aVsea salt
p805
aVblack pepper
p806
ag34
aVgarlic
p807
aVflat-leaf parsley
p808
ag11
aVparmesan cheese
p809
aVheaped mascarpone cheese crme frache
p810
aVrigatoni
p811
atp812
sV36520
p813
(VKale and Roasted Vegetable Soup
p814
Vhttp://static.food2fork.com/kalewhitebeansoup300x20052e63a6f.jpg
p815
Vhttp://www.simplyrecipes.com/recipes/kale_and_roasted_vegetable_soup/
p816
(lp817
g196
ag32
ag34
aVbutternut squash
p818
aVgarlic
p819
aVolive oil
p820
aVmore vegetable broth*
p821
aVfinely kale
p822
aVthyme sprig
p823
aVbay leaf
p824
ag204
atp825
sV5ac110
p826
(VSlow Cooker Minestrone Soup
p827
Vhttp://static.food2fork.com/SlowCookerMinestroneSoup1238da.jpg
p828
Vhttp://www.twopeasandtheirpod.com/slow-cooker-minestrone-soup/
p829
(lp830
g34
ag196
ag197
aVgarlic
p831
ag204
ag32
aVvegetable broth
p832
aVbay leaf
p833
aVoregano
p834
aVbasil
p835
aVrosemary
p836
aVred pepper flake
p837
aVzucchini
p838
aVwheat elbow pasta use gluten-free pasta
p839
aVspinach
p840
aVsalt
p841
aVblack pepper
p842
aVfreshly-grated parmesan cheese
p843
atp844
sV3043b7
p845
(VAll Recipes
p846
Vhttp://static.food2fork.com/quinoavegetablesoup270x37279f7.jpg
p847
Vhttp://cookieandkate.com/2015/quinoa-vegetable-soup-recipe/
p848
(lp849
Vextra virgin olive oil
p850
ag34
ag196
ag197
aVseasonal vegetable
p851
aVgarlic
p852
aVthyme
p853
ag32
aVscant quinoa
p854
aVvegetable broth
p855
aNaVsalt
p856
aVbay leaf
p857
aVred pepper flake
p858
aVblack pepper
p859
ag204
aVmore kale collard green
p860
ag222
aVoptional garnish parmesan cheese
p861
atp862
sV184663
p863
(VMushroom Quinoa Soup
p864
Vhttp://static.food2fork.com/MushroomQuinoaSoup29447.jpg
p865
Vhttp://www.twopeasandtheirpod.com/mushroom-quinoa-soup/
p866
(lp867
Volive oil
p868
ag34
ag196
ag197
aVgarlic
p869
aVbay leaf
p870
aVthyme
p871
ag168
aVquart low sodium vegetable broth
p872
aVrinsed quinoa
p873
aVsalt
p874
aVblack pepper
p875
atp876
sV1e7474
p877
(VPaella
p878
Vhttp://static.food2fork.com/372_1_1350308873_lrg4687.jpg
p879
Vhttp://www.jamieoliver.com/recipes/seafood-recipes/paella
p880
(lp881
g47
aVsea salt
p882
aVblack pepper
p883
ag29
aVolive oil
p884
aViberico chorizo
p885
ag395
ag34
aVgarlic
p886
aVsaffron
p887
aVheaped smoked paprika
p888
ag192
aVbunch flat-leaf parsley
p889
ag79
aVking prawn
p890
aNaVmussel
p891
aVsquid
p892
atp893
sVe30215
p894
(VFully loaded Cajun chicken burgers
p895
Vhttp://static.food2fork.com/9092_MEDIUM51a8.jpg
p896
Vhttp://www.bbcgoodfood.com/recipes/9092/fully-loaded-cajun-chicken-burgers
p897
(lp898
g47
aVolive oil
p899
ag395
aVavocado
p900
ag94
aVthin your favourite cheese
p901
aVspinach leaf
p902
aVmayonnaise
p903
aVcumin
p904
aVcoriander
p905
aVpaprika
p906
atp907
sVc17ff0
p908
(VCauliflower Soup with Sharp Cheddar &amp; ThymeCauliflower Soup with Sharp Cheddar. Cauliflower Soup with Sharp Cheddar and ThymeThe Sensitive Epicure:Haute Apple Pie:CIA Dropout:Daily*Dishin:Virtually Homemade:Whats Gaby Cooking:Thursday Night Dinner:Cooking Channel:Napa Farmhouse 1885:FN Dish:
p909
Vhttp://static.food2fork.com/IMG_85135faa.jpg
p910
Vhttp://www.biggirlssmallkitchen.com/2011/11/cauliflower-soup-with-sharp-cheddar-and-thyme.html
p911
(lp912
g7
aVolive oil
p913
ag34
ag114
aVsalt
p914
aVgarlic
p915
aVthyme leaf
p916
ag47
aVcauliflower floret
p917
aS'cheddar cheese'
p918
aVdijon mustard
p919
atp920
sV47903
p921
(VGreen Pea Soup
p922
Vhttp://static.food2fork.com/pea_soup_recipe2523.jpg
p923
Vhttp://www.101cookbooks.com/archives/green-pea-soup-recipe.html
p924
(lp925
Vginger
p926
aVsm-med garlic
p927
aVserrano chile
p928
aVcumin
p929
aVghee sunflower oil
p930
aVbay leaf
p931
ag34
aVgood-tasting vegetable stock
p932
ag79
aVsea salt
p933
ag222
aVmint leaf
p934
aVpan-fried paneed
p935
atp936
sV49288a
p937
(VVegetable Shepherd's Pie
p938
Vhttp://static.food2fork.com/5111725036a0.jpg
p939
Vhttp://www.epicurious.com/recipes/food/views/Vegetable-Shepherds-Pie-51117250
p940
(lp941
g114
ag7
ag318
aVkosher salt
p942
ag168
aVbrown french green lentil
p943
aVgarlic
p944
aVkosher salt plus more
p945
aVolive oil
p946
ag34
ag32
aVbay leaf
p947
ag11
aVvegetable broth
p948
aVcornstarch
p949
aVgluten-free white miso gluten-free tamari soy sauce
p950
aVblack pepper
p951
aVpiece peeled fall vegetable such squash
p952
aVrosemary sprig
p953
aVmixed herb such parsley
p954
atp955
sVb65637
p956
(VSpinach &amp; pine nut lasagne
p957
Vhttp://static.food2fork.com/2985679_MEDIUM9d7e.jpg
p958
Vhttp://www.bbcgoodfood.com/recipes/2985679/spinach-and-pine-nut-lasagne
p959
(lp960
Vparmesan
p961
aVlasagne sheet
p962
ag57
ag7
ag29
aVbay leaf
p963
ag318
aVgood grating nutmeg
p964
ag34
aVolive oil
p965
aVspinach leaf
p966
aVricotta
p967
atp968
sV0b6493
p969
(VEasy Baked Pork Chops with White WineMustard Sauce Recipe
p970
Vhttp://static.food2fork.com/30331_RecipeImage_620x413_easy_pork_chops3cfb.jpg
p971
Vhttp://www.chow.com/recipes/30331-easy-baked-pork-chops-with-white-winemustard-sauce
p972
(lp973
g446
aVolive oil
p974
aVkosher salt
p975
aVblack pepper
p976
ag11
ag7
aVfinely italian parsley leaf
p977
aVdijon mustard
p978
atp979
sV22d0a2
p980
(VBasil Vinaigrette
p981
Vhttp://static.food2fork.com/SimpleBasilVinaigrette15812.jpg
p982
Vhttp://whatsgabycooking.com/basil-vinaigrette/
p983
(lp984
Vshallot
p985
aVtightly packed basil leaf
p986
aVgarlic
p987
aVred pepper flake
p988
aVolive oil
p989
ag11
aVsalt
p990
aS'corn on the cob'
p991
atp992
sV36618
p993
(VMoroccan Chicken with Lemon and Olives
p994
Vhttp://static.food2fork.com/moroccanchickenlemonolivesa300x2001c551ee5.jpg
p995
Vhttp://www.simplyrecipes.com/recipes/moroccan_chicken_with_lemon_and_olives/
p996
(lp997
Vpaprika
p998
aVcumin
p999
aVginger
p1000
aVturmeric
p1001
aVcinnamon
p1002
aVpepper
p1003
aVolive oil
p1004
ag47
aVsalt
p1005
aVgarlic
p1006
ag34
ag991
aVgreen olive
p1007
aNaVraisin
p1008
aVcilantro
p1009
aVflat-leaf parsley
p1010
atp1011
sV46920
p1012
(VCreamy Lemon Basil Potato Salad
p1013
Vhttp://static.food2fork.com/potatosalade8ab.jpg
p1014
Vhttp://thepioneerwoman.com/cooking/2012/06/creamy-lemon-basil-potato-salad/
p1015
(lp1016
S'cabbage'
p1017
ag222
aVolive oil
p1018
aVmayonnaise
p1019
aVsalt
p1020
aVpepper
p1021
aVprepared pesto
p1022
ag57
aVbasil leaf
p1023
atp1024
sV32496
p1025
(VThe Best Vegetarian Chili in the World
p1026
Vhttp://static.food2fork.com/1765412971.jpg
p1027
Vhttp://allrecipes.com/Recipe/The-Best-Vegetarian-Chili-In-The-World/Detail.aspx
p1028
(lp1029
Volive oil
p1030
ag34
aVbay leaf
p1031
aVcumin
p1032
aVoregano
p1033
aVsalt
p1034
ag197
aVgreen bell pepper
p1035
aVjalapeno pepper
p1036
aVgarlic
p1037
aVgreen chile pepper
p1038
aVvegetarian burger crumbles
p1039
ag32
aVchili powder
p1040
aVblack pepper
p1041
ag204
ag415
atp1042
sV35602
p1043
(VSpinach, White Bean and Turkey Sausage Soup
p1044
Vhttp://static.food2fork.com/Spinach,WhiteBeanandTurkeySausageSoup5009653d3cd.jpg
p1045
Vhttp://www.closetcooking.com/2009/01/spinach-white-bean-and-turkey-sausage.html
p1046
(lp1047
S'turkey'
p1048
aVolive oil
p1049
aVgarlic
p1050
aVred pepper flake
p1051
ag47
ag204
aVoregano
p1052
aVbay leaf
p1053
aVpiece parmesan rind
p1054
aVbunch spinach kale swiss chard
p1055
aVsalt
p1056
aVpepper
p1057
ag222
atp1058
sV06aa0d
p1059
(VSuper tasty Spanish roast chicken
p1060
Vhttp://static.food2fork.com/577_1_1350912080_lrg9b99.jpg
p1061
Vhttp://www.jamieoliver.com/recipes/chicken-recipes/super-tasty-spanish-roast-chicken
p1062
(lp1063
g114
ag222
aVflat-leaf parsley
p1064
ag47
aVsea salt
p1065
aVblack pepper
p1066
ag408
aVolive oil
p1067
aVgarlic
p1068
atp1069
sV69664d
p1070
(VRed Wine-Braised Shortribs
p1071
Vhttp://static.food2fork.com/3677367a4e.jpg
p1072
Vhttp://www.epicurious.com/recipes/food/views/Red-Wine-Braised-Shortribs-367736
p1073
(lp1074
g327
aVkosher salt black pepper
p1075
aVvegetable oil
p1076
ag34
ag196
ag197
ag29
ag32
ag11
aVsprig flat-leaf parsley
p1077
aVsprig thyme
p1078
aVsprig oregano
p1079
aVsprig rosemary
p1080
aVbay leaf
p1081
aVgarlic
p1082
atp1083
sV20e69d
p1084
(VQuick-time sausage cassoulet
p1085
Vhttp://static.food2fork.com/434_1_1350905132_lrg7827.jpg
p1086
Vhttp://www.jamieoliver.com/recipes/pork-recipes/quick-time-sausage-cassoulet
p1087
(lp1088
g168
ag395
aVextra virgin olive oil
p1089
aVbunch mixed rosemary
p1090
ag34
aVgarlic
p1091
ag196
ag197
aVbay leaf
p1092
ag11
ag32
ag204
aVsea salt
p1093
aVblack pepper
p1094
ag408
aVstale loaf
p1095
aVthyme
p1096
atp1097
sV8b79bd
p1098
(VCacciatore chicken
p1099
Vhttp://static.food2fork.com/2865685_MEDIUM54ca.jpg
p1100
Vhttp://www.bbcgoodfood.com/recipes/2865685/cacciatore-chicken
p1101
(lp1102
g34
aVgarlic
p1103
aVolive oil
p1104
ag32
aVrosemary leaf
p1105
ag47
aVbasil leaf
p1106
aVfavourite seasonal vegetable
p1107
atp1108
sV44a90d
p1109
(VCauliflower in Puttanesca Sauce Recipe
p1110
Vhttp://static.food2fork.com/CauliflowerPuttanescafc98.jpg
p1111
Vhttp://www.cookincanuck.com/2014/10/cauliflower-in-puttanesca-sauce-recipe/
p1112
(lp1113
Volive oil
p1114
aVgarlic
p1115
aVoregano
p1116
aVred pepper flake
p1117
ag32
aVquartered kalamata olive
p1118
aVcaper
p1119
aVcauliflower
p1120
aVflat-leaf parsley
p1121
aVsalt
p1122
aVpepper
p1123
atp1124
sV47025
p1125
(VPasta with Pesto Cream Sauce
p1126
Vhttp://static.food2fork.com/pestoa0e7.jpg
p1127
Vhttp://thepioneerwoman.com/cooking/2011/06/pasta-with-pesto-cream-sauce/
p1128
(lp1129
Vbasil leaf
p1130
aVparmesan cheese
p1131
ag57
aVgarlic
p1132
aVsalt
p1133
aVpepper
p1134
aVextra virgin olive oil
p1135
aVheavy cream
p1136
ag7
aVparmesan
p1137
aNag32
atp1138
sV8f6e5a
p1139
(VCheese &amp; bacon lasagne
p1140
Vhttp://static.food2fork.com/13383_MEDIUMd15a.jpg
p1141
Vhttp://www.bbcgoodfood.com/recipes/13383/cheese-and-bacon-lasagne
p1142
(lp1143
g34
aVolive oil
p1144
aVoregano
p1145
ag395
ag32
aVbasil leaf
p1146
ag193
ag318
ag79
aVgenerous grating nutmeg
p1147
aVparmesan
p1148
atp1149
sV38773
p1150
(VSlow-Cooker Classic Beef Stew
p1151
Vhttp://static.food2fork.com/beef_3004a58b171.jpg
p1152
Vhttp://www.realsimple.com/food-recipes/browse-all-recipes/slow-cooker-recipe-classic-beef-stew-10000000614077/index.html
p1153
(lp1154
S'round roast'
p1155
ag29
aVolive oil
p1156
ag34
ag32
ag11
ag114
ag196
ag327
aVkosher salt
p1157
aVthyme leaf
p1158
aVbay leaf
p1159
ag79
atp1160
sV48074
p1161
(VSummer Squash Gratin
p1162
Vhttp://static.food2fork.com/summer_squash_gratin7ef0.jpg
p1163
Vhttp://www.101cookbooks.com/archives/summer-squash-gratin-recipe.html
p1164
(lp1165
g222
aVsummer squash zucchini
p1166
aVsea salt
p1167
aVoregano leaf
p1168
aVitalian parsley
p1169
aVgarlic
p1170
aVred pepper flake
p1171
aVextra virgin olive oil
p1172
ag7
ag31
ag114
aVgruyere cheese
p1173
atp1174
sVbf9f2c
p1175
(VRoasted Chicken Recipe with Deep Onion-Garlic Gravy
p1176
Vhttp://static.food2fork.com/RoastedChickenADAce19.jpg
p1177
Vhttp://www.cookincanuck.com/2013/09/roasted-chicken-recipe-with-deep-onion-garlic-gravy/
p1178
(lp1179
g34
aVgarlic
p1180
aVpaprika
p1181
aVthyme leaf
p1182
aVrosemary
p1183
aVblack pepper
p1184
ag47
aVcanola oil
p1185
aNaVcornstarch
p1186
aVsalt
p1187
atp1188
sV0aed39
p1189
(VSlow-Cooked Ratatouille Over Goat Cheese Polenta
p1190
Vhttp://static.food2fork.com/511522104ff4.jpg
p1191
Vhttp://www.epicurious.com/recipes/food/views/Slow-Cooked-Ratatouille-Over-Goat-Cheese-Polenta-51152210
p1192
(lp1193
Vcooking spray
p1194
aVeggplant
p1195
aVzucchini yellow summer squash
p1196
aVcoarse salt
p1197
ag7
ag34
aVred bell pepper
p1198
aVfinely garlic
p1199
ag29
ag32
aVfinely thyme leaf
p1200
aVgrind black pepper
p1201
aVpacked parmigiano-reggiano
p1202
aVcoarsely basil leaf
p1203
ag47
aVpolenta coarse-ground cornmeal
p1204
aVgoat cheese
p1205
atp1206
sVd16604
p1207
(VSag aloo
p1208
Vhttp://static.food2fork.com/2063642_MEDIUM2f80.jpg
p1209
Vhttp://www.bbcgoodfood.com/recipes/2063642/sag-aloo
p1210
(lp1211
Vsunflower oil
p1212
ag34
aVgarlic
p1213
aVginger
p1214
ag114
aVred chilli
p1215
ag79
aVspinach leaf
p1216
atp1217
sVf20341
p1218
(VHome
p1219
Vhttp://static.food2fork.com/Mediterranean7LayerDip2cce.jpg
p1220
Vhttp://www.cookincanuck.com/2014/01/healthy-mediterranean-7-layer-dip-recipe/
p1221
(lp1222
Vhummus
p1223
ag32
ag528
ag191
aVsalt
p1224
aVpaprika
p1225
aVcanned artichoke heart
p1226
aVroasted red pepper
p1227
aVcrumbled feta cheese
p1228
aVflat-leaf parsley
p1229
aVkalamata olive
p1230
atp1231
sVf943c2
p1232
(VTomato soup
p1233
Vhttp://static.food2fork.com/2075_MEDIUM659c.jpg
p1234
Vhttp://www.bbcgoodfood.com/recipes/2075/tomato-soup
p1235
(lp1236
g32
ag34
ag196
ag197
aVolive oil
p1237
ag554
aVbay leaf
p1238
aVlitre pint vegetable stock
p1239
atp1240
sV48914
p1241
(VProsciutto-Stuffed Chicken with Mushroom Sauce
p1242
Vhttp://static.food2fork.com/prosciuttostuffedchickenwithmushroomsauce646d406.jpg
p1243
Vhttp://www.bonappetit.com/recipes/quick-recipes/2012/11/prosciutto-stuffed-chicken-with-mushroom-sauce
p1244
(lp1245
NaVkosher salt
p1246
aVthin prosciutto
p1247
aVthin provolone cheese
p1248
aVbasil leaf
p1249
ag7
aVvegetable oil
p1250
ag168
ag47
ag11
aVmixed herb such basil
p1251
atp1252
sV6cde1a
p1253
(VPuffed salmon &amp; spinach fish pie
p1254
Vhttp://static.food2fork.com/2877661_MEDIUM989c.jpg
p1255
Vhttp://www.bbcgoodfood.com/recipes/2877661/puffed-salmon-and-spinach-fish-pie
p1256
(lp1257
g114
ag193
aVwhole-leaf spinach
p1258
ag918
aVnutmeg
p1259
aVfish mix white salmon good used salmon fillet cod
p1260
ag34
aVfew
p1261
aVbay leaf
p1262
ag318
aVfish stock
p1263
ag7
aVextra virgin olive oil
p1264
ag29
aVwholegrain mustard
p1265
atp1266
sVc6fc03
p1267
(Vpasta and white beans with garlic-rosemary oil
p1268
Vhttp://static.food2fork.com/8429127498_571a2722278371.jpg
p1269
Vhttp://smittenkitchen.com/blog/2013/01/pasta-and-white-beans-with-garlic-rosemary-oil/
p1270
(lp1271
g34
ag196
ag197
aVgarlic
p1272
aVflat-leaf parsley leaf
p1273
aVred pepper flake
p1274
aVolive oil
p1275
aVcoarse kosh salt
p1276
ag32
ag327
aS'short ribs'
p1277
aVrosemary
p1278
atp1279
sV7fdcb0
p1280
(VAll Recipes
p1281
Vhttp://static.food2fork.com/roastedcauliflowerfreekehtahinisauce270x372e5ee.jpg
p1282
Vhttp://cookieandkate.com/2014/roasted-cauliflower-freekeh-tahini-sauce/
p1283
(lp1284
NaVextra virgin olive oil
p1285
aVsalt
p1286
aVfreshly ground black pepper
p1287
aVslivered sliced almond
p1288
aVcracked freekeh*
p1289
aVgarlic
p1290
aVcumin
p1291
aVcoriander
p1292
aVplus vegetable stock
p1293
aVtahini
p1294
ag222
aVgenerous red pepper flake
p1295
aVscant
p1296
aVparsley cilantro leaf
p1297
aVcrumbled feta optional
p1298
aVraisin
p1299
aVsprinkling sesame seed
p1300
atp1301
sVdc15fb
p1302
(VLentils folded into Yogurt, Spinach, and Basil
p1303
Vhttp://static.food2fork.com/lentil_crostini85f2.jpg
p1304
Vhttp://www.101cookbooks.com/archives/lentils-folded-into-yogurt-spinach-and-basil-recipe.html
p1305
(lp1306
g57
aVspinach arugula
p1307
aVbasil leaf
p1308
ag327
aVflat-leaf parsley
p1309
aVgarlic
p1310
ag222
ag191
aVextra virgin olive oil
p1311
aVsea salt
p1312
aVpepper
p1313
aVparmesan cheese
p1314
ag31
atp1315
sVe02c92
p1316
(VMy favourite paella
p1317
Vhttp://static.food2fork.com/355_1_1349693792_lrgc48b.jpg
p1318
Vhttp://www.jamieoliver.com/recipes/seafood-recipes/my-favourite-paella
p1319
(lp1320
Volive oil
p1321
ag89
ag446
aVgreen pepper
p1322
aVred pepper
p1323
aVgarlic
p1324
ag34
aVbunch flat-leaf parsley
p1325
aVsea salt
p1326
aVblack pepper
p1327
aVgood saffron
p1328
aVclam mussel
p1329
aNag192
aVjarred red pepper oil
p1330
ag32
ag47
aVprawn
p1331
aVsquid
p1332
ag204
ag222
atp1333
sV36680
p1334
(VPasta with Artichoke Hearts, Sun Dried Tomatoes, and Toasted Almonds
p1335
Vhttp://static.food2fork.com/pastaartichokesundriedtomatoalmonds300x20068a238ac.jpg
p1336
Vhttp://www.simplyrecipes.com/recipes/pasta_with_artichoke_hearts_sun_dried_tomatoes_and_toasted_almonds/
p1337
(lp1338
Vfusilli pasta use gluten-free pasta gluten-free version
p1339
aVsalt
p1340
aV-ounce marinated artichoke heart
p1341
ag32
aVtoasted almond
p1342
ag222
aVblack pepper
p1343
aVparsley leaf
p1344
aVolive oil
p1345
atp1346
sVde5eb9
p1347
(VRed Flannel Hash Recipe
p1348
Vhttp://static.food2fork.com/11443_red_flannel_hash_600fa0c.jpg
p1349
Vhttp://www.chow.com/recipes/11443-red-flannel-hash
p1350
(lp1351
Vvegetable oil
p1352
ag114
aVred beet
p1353
ag34
aVgarlic
p1354
aVkosher salt
p1355
aVblack pepper
p1356
aVfinely italian parsley leaf
p1357
ag193
atp1358
sV7b468a
p1359
(VChicken Parmesan Recipe
p1360
Vhttp://static.food2fork.com/10954_RecipeImag_620x413_chicken_parmesan_20e1a.jpg
p1361
Vhttp://www.chow.com/recipes/10954-chicken-parmesan
p1362
(lp1363
V-ounce
p1364
aVsalt
p1365
aVblack pepper
p1366
ag29
ag318
ag193
aVpanko
p1367
aVfinely parmesan cheese
p1368
aVolive oil
p1369
aNaVthinly sliced basil leaf
p1370
aVmozzarella
p1371
atp1372
sV35929
p1373
(VChicken and Dumplings
p1374
Vhttp://static.food2fork.com/chickendumplingsa300x20099af82d6.jpg
p1375
Vhttp://www.simplyrecipes.com/recipes/chicken_and_dumplings/
p1376
(lp1377
g47
ag7
aVsalt
p1378
ag197
ag196
ag34
ag29
aVthyme
p1379
aVdry sherry vermouth
p1380
aVheavy cream
p1381
ag79
aVparsley leaf
p1382
aVblack white pepper
p1383
aS'cupcakes'
p1384
aVbaking powder
p1385
ag318
aVherb leaf such parsley
p1386
atp1387
sV35852
p1388
(VBruschetta with Tomato and Basil
p1389
Vhttp://static.food2fork.com/bruschetta266x200addfba9a.jpg
p1390
Vhttp://www.simplyrecipes.com/recipes/bruschetta_with_tomato_and_basil/
p1391
(lp1392
g32
aVgarlic
p1393
aVextra virgin olive oil
p1394
aVbalsamic vinegar
p1395
aVbasil leaf
p1396
aVsalt
p1397
aVfreshly ground black pepper
p1398
ag31
aVolive oil
p1399
atp1400
sV49299
p1401
(VParsley, Kale, and Berry Smoothie
p1402
Vhttp://static.food2fork.com/parsleykaleandberrysmoothie4598521.jpg
p1403
Vhttp://www.bonappetit.com/recipes/2012/04/parsley-kale-and-berry-smoothie
p1404
(lp1405
Vflat-leaf parsley
p1406
aVkale leaf
p1407
aVorganic berry
p1408
aS'bananas'
p1409
aVflaxseed
p1410
atp1411
sV47092
p1412
(VChicken Cacciatore
p1413
Vhttp://static.food2fork.com/5091364415_b1058dec47_o78aa.jpg
p1414
Vhttp://thepioneerwoman.com/cooking/2010/10/chicken-cacciatore/
p1415
(lp1416
g193
ag47
aVsalt
p1417
aVfreshly ground black pepper
p1418
ag29
aVolive oil
p1419
ag7
ag34
aVred bell pepper
p1420
aVgreen bell pepper
p1421
aVgarlic
p1422
aNaVthyme
p1423
aVturmeric
p1424
aVkosher salt
p1425
aVred pepper flake
p1426
ag11
ag32
aVflat leaf parsley
p1427
aVparmesan cheese
p1428
atp1429
sV710633
p1430
(VKale-Apple Coleslaw with Poppy Seed Dressing Recipe
p1431
Vhttp://static.food2fork.com/30354_RecipeImage_620x413_kale_apple_coleslawd72d.jpg
p1432
Vhttp://www.chow.com/recipes/30354-kale-apple-coleslaw-with-poppy-seed-dressing
p1433
(lp1434
Vcider vinegar
p1435
aVhoney
p1436
aVdijon mustard
p1437
aVpoppy seed
p1438
aVkosher salt
p1439
aVblack pepper
p1440
aVvegetable oil
p1441
ag34
aVflat-leaf kale
p1442
aS'apple sauce'
p1443
atp1444
sV36515
p1445
(VJerk Chicken
p1446
Vhttp://static.food2fork.com/jerkchicken300x2009059199a.jpg
p1447
Vhttp://www.simplyrecipes.com/recipes/jerk_chicken/
p1448
(lp1449
S'malt beverages'
p1450
aVdark rum
p1451
aVscotch bonnet pepper
p1452
ag34
aVthyme thyme leaf
p1453
aVolive oil
p1454
aVsalt
p1455
aVblack pepper
p1456
aVallspice
p1457
aVcinnamon
p1458
aVnutmeg
p1459
aVginger
p1460
aVmolasses
p1461
ag47
aVlime juice
p1462
aVpepper\u000a
p1463
atp1464
sVe2f9f2
p1465
(Vchicken and dumplings
p1466
Vhttp://static.food2fork.com/2102751976_05db8aae1d7b6c.jpg
p1467
Vhttp://smittenkitchen.com/blog/2007/12/chicken-and-dumplings/
p1468
(lp1469
Vbone-in
p1470
aVtable salt black pepper
p1471
aVvegetable oil
p1472
ag7
aVleek
p1473
ag34
ag29
aVdry sherry
p1474
ag47
ag318
aVthyme leaf
p1475
aVbay leaf
p1476
ag79
aVtarragon leaf
p1477
aVbaking powder
p1478
aVtable salt
p1479
atp1480
sVf090d1
p1481
(VAll Recipes
p1482
Vhttp://static.food2fork.com/bakedeggsonroastedcherrytomatoes270x372e000.jpg
p1483
Vhttp://cookieandkate.com/2014/baked-eggs-on-roasted-cherry-tomatoes/
p1484
(lp1485
g32
aVparmesan
p1486
aVolive oil
p1487
aVplus basil leaf
p1488
aVgarlic
p1489
aVsea salt
p1490
aVblack pepper
p1491
ag193
atp1492
sV968923
p1493
(VProper blokes' sausage fusilli
p1494
Vhttp://static.food2fork.com/422_1_1349093406_lrgf4b0.jpg
p1495
Vhttp://www.jamieoliver.com/recipes/pasta-recipes/proper-blokes-sausage-fusilli
p1496
(lp1497
Vheaped fennel seed
p1498
aVred chilli
p1499
aVolive oil
p1500
ag408
aVoregano
p1501
ag11
aVzest
p1502
aVjuice of lemon
p1503
aVgood-quality fusilli penne
p1504
aVsea salt
p1505
aVblack pepper
p1506
aVparmesan cheese
p1507
aVbunch flat-leaf parsley
p1508
atp1509
sV47769
p1510
(VBlood Orange Gin Sparkler
p1511
Vhttp://static.food2fork.com/gin_sparkler7d1c.jpg
p1512
Vhttp://www.101cookbooks.com/archives/blood-orange-gin-sparkler-recipe.html
p1513
(lp1514
Nag554
aVsprigs-worth rosemary leaf
p1515
aVbay leaf
p1516
ag215
aVgin
p1517
ag192
aVtonic
p1518
atp1519
sVb123e2
p1520
(Vtomato and sausage risotto
p1521
Vhttp://static.food2fork.com/297556880_82756ea1fbadfb.jpg
p1522
Vhttp://smittenkitchen.com/blog/2006/11/alexs-restaurant/
p1523
(lp1524
g32
aVolive oil
p1525
ag408
ag34
aVcoarse salt pepper
p1526
ag192
ag11
aVbunch flat-leaf spinach
p1527
aVparmesan cheese
p1528
ag7
atp1529
sV2ff45a
p1530
(VKale and Parmesan Egg Drop Soup (Stracciatella) Recipe
p1531
Vhttp://static.food2fork.com/30659_RecipeImage_620x413_kale_egg_drop_soup4151.jpg
p1532
Vhttp://www.chow.com/recipes/30659-kale-and-parmesan-egg-drop-soup-stracciatella
p1533
(lp1534
Vflat-leaf kale
p1535
aVolive oil
p1536
ag47
aVkosher salt
p1537
aVblack pepper
p1538
ag193
aVfinely parmesan cheese
p1539
atp1540
sV49abaa
p1541
(VLentils with Wine-Glazed Vegetables
p1542
Vhttp://static.food2fork.com/deborah_madison_lentils1119.jpg
p1543
Vhttp://www.101cookbooks.com/archives/lentils-with-wineglazed-vegetables-recipe.html
p1544
(lp1545
Vumbrian lentil lentil puy
p1546
aVsalt
p1547
aVfreshly ground pepper
p1548
aVbay leaf
p1549
aVextra virgin olive oil
p1550
ag34
ag196
ag197
aVgarlic
p1551
ag32
ag11
aVdijon mustard
p1552
ag7
aVserve tarragon
p1553
atp1554
sV9cf486
p1555
(Vcarrot soup with tahini and crisped chickpeas
p1556
Vhttp://static.food2fork.com/8339826009_36377776f160dc.jpg
p1557
Vhttp://smittenkitchen.com/blog/2013/01/carrot-soup-with-tahini-and-crisped-chickpeas/
p1558
(lp1559
Volive oil
p1560
ag196
ag34
aVregular garlic
p1561
aVcoriander
p1562
aVcumin
p1563
aVtable salt
p1564
aValeppo pepper red pepper flake
p1565
aVvegetable broth
p1566
ag327
aVgenerous olive oil
p1567
aVcoarse salt
p1568
aVtahini paste
p1569
ag222
aVtwo salt
p1570
aNaVfew pita
p1571
aVzaatar middle eastern
p1572
aVsesame seed sea salt sprinkle
p1573
aVflat-leaf parsley
p1574
atp1575
sV0c799a
p1576
(VGnocchi &amp; tomato bake
p1577
Vhttp://static.food2fork.com/7192_MEDIUM5b60.jpg
p1578
Vhttp://www.bbcgoodfood.com/recipes/7192/gnocchi-and-tomato-bake
p1579
(lp1580
Volive oil
p1581
ag34
aVred pepper
p1582
aVgarlic
p1583
ag32
aVpack gnocchi
p1584
aVbasil leaf
p1585
aVball mozzarella
p1586
atp1587
sV35261
p1588
(VCreamy Cabbage and Double Smoked Bacon Soup
p1589
Vhttp://static.food2fork.com/Creamy2BCabbage2Band2BDouble2BSmoked2BBacon2BSoup2B22B50023c59535.jpg
p1590
Vhttp://www.closetcooking.com/2011/02/creamy-cabbage-and-double-smoked-bacon.html
p1591
(lp1592
Volive oil
p1593
ag408
ag395
ag34
ag196
ag197
aVgarlic
p1594
ag204
ag47
ag1017
aVoregano
p1595
aVbay leaf
p1596
aVsalt
p1597
aVpepper
p1598
aVheavy cream
p1599
aVparsley
p1600
aVgrainy mustard
p1601
atp1602
sV47606
p1603
(VMast-o-Khiar Yogurt Dip
p1604
Vhttp://static.food2fork.com/mastokhiar_yogurt_dip_recipec230.jpg
p1605
Vhttp://www.101cookbooks.com/archives/mastokhiar-yogurt-dip-recipe.html
p1606
(lp1607
Vgarlic
p1608
aVsea salt
p1609
ag191
aVdill
p1610
aVdozen mint leaf
p1611
ag528
aVgreat quality extra virgin olive oil
p1612
aVwalnut
p1613
aVrose petal
p1614
aVcranberry
p1615
atp1616
sV49071
p1617
(VGrilled Citrus Chicken Breasts
p1618
Vhttp://static.food2fork.com/grilledcitruschickenbreasts6464463.jpeg
p1619
Vhttp://www.bonappetit.com/recipes/2012/08/grilled-citrus-chicken-breasts
p1620
(lp1621
Vextra virgin olive oil plus more brushing
p1622
ag215
ag222
aVgarlic
p1623
aVrosemary
p1624
aVkosher salt plus more seasoning
p1625
aVskin-on
p1626
aVparsley leaf
p1627
atp1628
sV43f196
p1629
(VMake-Ahead Baked Egg Recipe with Turkey Sausage, Mushrooms & Tomatoes
p1630
Vhttp://static.food2fork.com/BakedEggsTurkey655c.jpg
p1631
Vhttp://www.cookincanuck.com/2013/08/make-ahead-baked-egg-recipe-with-turkey-sausage-mushrooms-tomatoes/
p1632
(lp1633
g1048
aVolive oil
p1634
ag168
aVblack pepper
p1635
aVsalt
p1636
ag508
ag193
aNaVbasil leaf
p1637
aVparmesan cheese
p1638
atp1639
sV716387
p1640
(VHearty Lentil & Black Bean Soup with Smoked Paprika
p1641
Vhttp://static.food2fork.com/6421836429_0b43977f6cfbe6.jpg
p1642
Vhttp://www.cookincanuck.com/2011/11/hearty-lentil-black-bean-soup-with-smoked-paprika-recipe/
p1643
(lp1644
Volive oil
p1645
ag34
ag197
aVgarlic
p1646
aVsmoked paprika
p1647
aVbay leaf
p1648
ag32
aVbrown lentil
p1649
ag47
aNag204
aVparsley
p1650
aVsalt
p1651
aVpepper.
p1652
atp1653
sV47096
p1654
(VThree Cheese-Stuffed Shells with Meaty Tomato Sauce
p1655
Vhttp://static.food2fork.com/5053124762_fe7f70b1f1_o7fab.jpg
p1656
Vhttp://thepioneerwoman.com/cooking/2010/10/three-cheese-stuffed-shells-with-meaty-tomato-sauce/
p1657
(lp1658
NaVromano cheese
p1659
ag193
aVleaf basil
p1660
aVparsley
p1661
aVsalt
p1662
aVpepper
p1663
aVolive oil
p1664
ag34
aVgarlic
p1665
ag408
ag11
ag32
ag554
atp1666
sV1689a6
p1667
(VPuffed Pastry Pizza
p1668
Vhttp://static.food2fork.com/pizzasb1df.jpg
p1669
Vhttp://thepioneerwoman.com/cooking/2014/02/puffed-pastry-pizza/
p1670
(lp1671
Vsheet puffed pastry
p1672
aVolive oil brushing
p1673
aVmozzarella
p1674
ag7
aNaVgarlic
p1675
aVwhite whine
p1676
aVsalt
p1677
aVpepper
p1678
ag508
aVgoat cheese
p1679
aVbasil leaf
p1680
atp1681
sV48009
p1682
(VRichard Olney
p1683
Vhttp://static.food2fork.com/garlic_soup_recipeb3b2.jpg
p1684
Vhttp://www.101cookbooks.com/archives/richard-olneys-garlic-soup-recipe.html
p1685
(lp1686
Vquart
p1687
aVbay leaf
p1688
ag408
aVthyme
p1689
aVdozen garlic
p1690
aVsea salt
p1691
aNag193
aVparmesan cheese
p1692
aVblack pepper
p1693
aVextra virgin olive oil
p1694
ag31
atp1695
sV1dd176
p1696
(VThe ultimate makeover: Chicken pie
p1697
Vhttp://static.food2fork.com/1112644_MEDIUM6818.jpg
p1698
Vhttp://www.bbcgoodfood.com/recipes/1112644/the-ultimate-makeover-chicken-pie
p1699
(lp1700
g47
ag11
aVgarlic
p1701
aVthyme sprig
p1702
aVtarragon sprig
p1703
ag196
aVleek
p1704
aVcornflour
p1705
aVcrme frache
p1706
aVheaped dijon mustard
p1707
aVheaped flat-leaf curly parsley
p1708
aVfilo pastry
p1709
aVrapeseed oil
p1710
atp1711
sV47017
p1712
(VMissy\u2019s Marinated Tomatoes
p1713
Vhttp://static.food2fork.com/5910226276_bc9dd0dabb_o3281.jpg
p1714
Vhttp://thepioneerwoman.com/cooking/2011/07/missys-marinated-tomatoes/
p1715
(lp1716
Vcanola oil
p1717
aVbalsamic vinegar
p1718
ag554
aVsalt
p1719
aVblack pepper
p1720
ag34
aVparsley
p1721
aVbasil leaf
p1722
aVthyme
p1723
aVgarlic
p1724
ag32
aVbaguette
p1725
atp1726
sV55babf
p1727
(VGarlic and Cheese Crostini
p1728
Vhttp://static.food2fork.com/3554716e1d.jpg
p1729
Vhttp://www.epicurious.com/recipes/food/views/Garlic-and-Cheese-Crostini-355471
p1730
(lp1731
V-inch-thick baguette from baguette least
p1732
aVolive oil
p1733
aVfinely pecorino romano
p1734
aVgarlic
p1735
aVkosher salt
p1736
aVfinely flat-leaf parsley
p1737
atp1738
sV0c147f
p1739
(VFish pie
p1740
Vhttp://static.food2fork.com/209_1_1350317581_lrgf56c.jpg
p1741
Vhttp://www.jamieoliver.com/recipes/fish-recipes/fish-pie
p1742
(lp1743
Vsea salt
p1744
aVblack pepper
p1745
ag114
ag196
ag197
ag918
ag222
aVred chilli
p1746
aVsprig flat-leaf parsley
p1747
aVsalmon fillet
p1748
aNaVundyed smoked haddock fillet
p1749
ag89
aVolive oil
p1750
aVgood spinach
p1751
ag32
atp1752
sV47019
p1753
(VCaprese Salad
p1754
Vhttp://static.food2fork.com/capresefc49.jpg
p1755
Vhttp://thepioneerwoman.com/cooking/2011/06/caprese-salad/
p1756
(lp1757
Vbalsamic vinegar
p1758
ag32
aNaVbasil leaf
p1759
aVolive oil
p1760
aVkosher salt black pepper
p1761
atp1762
sV1f44f6
p1763
(Vleek, chard and corn flatbread
p1764
Vhttp://static.food2fork.com/7881109718_976f2986e562cc.jpg
p1765
Vhttp://smittenkitchen.com/blog/2012/08/leek-chard-and-corn-flatbread/
p1766
(lp1767
Vvegetable olive oil
p1768
ag7
aVleek
p1769
aV-ounce bundle chard about leaf
p1770
aVtable salt
p1771
aVblack pepper
p1772
ag415
aVcornmeal
p1773
aS'bologna'
p1774
atp1775
sVc205fd
p1776
(VQuinoa with Tomato, Basil, and Mozzarella
p1777
Vhttp://static.food2fork.com/quinoa301e.jpg
p1778
Vhttp://thepioneerwoman.com/cooking/2014/05/quinoa-with-tomato-basil-and-mozzarella/
p1779
(lp1780
Volive oil
p1781
aVbalsamic vinegar
p1782
aVsalt
p1783
aVblack pepper
p1784
aVred quinoa
p1785
aNag508
ag32
aVbasil leaf
p1786
atp1787
sV219937
p1788
(VAll Recipes
p1789
Vhttp://static.food2fork.com/healthyquinoasaladrecipe1270x372ab4d.jpg
p1790
Vhttp://cookieandkate.com/2015/mediterranean-quinoa-salad-recipe/
p1791
(lp1792
g327
aVeggplant about
p1793
aVzucchini
p1794
aVyellow squash
p1795
aVolive oil
p1796
aVsalt
p1797
aVfreshly ground black pepper
p1798
ag222
aVgarlic
p1799
ag508
aVbasil leaf
p1800
aVmint leaf
p1801
ag57
aVgarnish crumbled feta
p1802
atp1803
sV1a0158
p1804
(VSummer Harvest Naan Pizza Recipe with Corn, Tomatoes & Jalapeo
p1805
Vhttp://static.food2fork.com/SummerHarvestNaanPizza65e9.jpg
p1806
Vhttp://www.cookincanuck.com/2014/08/summer-harvest-naan-pizza-recipe-with-corn-tomatoes-jalapeno/
p1807
(lp1808
g31
aVolive oil
p1809
aVoregano
p1810
aVparmesan cheese
p1811
ag457
ag32
aVjalapeno
p1812
aVleaf basil
p1813
atp1814
sVf9c25b
p1815
(VZucchini Noodles
p1816
Vhttp://static.food2fork.com/DSC_17085699.jpg
p1817
Vhttp://thepioneerwoman.com/cooking/2015/03/zucchini-noodles/
p1818
(lp1819
Vzucchini
p1820
ag7
aVolive oil
p1821
aVgarlic
p1822
ag32
aVparmesan
p1823
aVbasil leaf
p1824
aVsalt
p1825
aVpepper
p1826
atp1827
sV5a68e5
p1828
(VChickpeas with tomatoes &amp; spinach
p1829
Vhttp://static.food2fork.com/72617_MEDIUM2e7c.jpg
p1830
Vhttp://www.bbcgoodfood.com/recipes/72617/chickpeas-with-tomatoes-and-spinach
p1831
(lp1832
Vvegetable oil
p1833
ag34
aVgarlic
p1834
aVfinger length piece root ginger
p1835
aVmild red chilli
p1836
aVturmeric
p1837
aVgaram masala
p1838
aVcumin
p1839
ag32
aVchickpea
p1840
aVspinach leaf
p1841
ag192
atp1842
sVed141a
p1843
(VHome
p1844
Vhttp://static.food2fork.com/ButternutQuinoaStewSquareSmallbe3b.jpg
p1845
Vhttp://www.cookincanuck.com/2011/11/hearty-chicken-stew-with-butternut-squash-quinoa-recipe/
p1846
(lp1847
Vbutternut squash
p1848
ag47
aNaVolive oil
p1849
ag34
aVkosher salt
p1850
aVgarlic
p1851
aVoregano
p1852
ag32
ag327
aVquartered kalamata olive
p1853
aVblack pepper
p1854
aVflat-leaf parsley
p1855
atp1856
sV36506
p1857
(VItalian Sausage and Cabbage Stew
p1858
Vhttp://static.food2fork.com/cabbagestewa300x200e64136e4.jpg
p1859
Vhttp://www.simplyrecipes.com/recipes/italian_sausage_and_cabbage_stew/
p1860
(lp1861
Volive oil
p1862
ag408
ag34
aVgarlic
p1863
ag11
ag204
ag47
aVquart
p1864
aVsalt
p1865
ag1017
aVbay leaf
p1866
aVparsley
p1867
aVparmesan pecorino cheese garnish
p1868
atp1869
sVc21098
p1870
(VHearty Chicken Sausage, Roasted Pepper and Whole Wheat Orzo Soup Recipe
p1871
Vhttp://static.food2fork.com/SausageOrzoSoupSquare6ff2.jpg
p1872
Vhttp://www.cookincanuck.com/2013/02/chicken-sausage-roasted-pepper-whole-wheat-orzo-soup-recipe/
p1873
(lp1874
g47
aVolive oil
p1875
ag34
aVgarlic
p1876
aVroasted red pepper
p1877
aVbay leaf
p1878
aVwheat orzo pasta
p1879
aVparsley
p1880
aVbasil leaf
p1881
aVsalt
p1882
aVpepper
p1883
atp1884
sV36339
p1885
(VFresh Basil Pesto
p1886
Vhttp://static.food2fork.com/basilpesto266x200571ec1ba.jpg
p1887
Vhttp://www.simplyrecipes.com/recipes/fresh_basil_pesto/
p1888
(lp1889
Vbasil leaf
p1890
aVparmesan-reggiano romano cheese
p1891
aVextra virgin olive oil
p1892
ag57
aVsized garlic
p1893
aVsalt
p1894
aVfreshly ground black pepper
p1895
aVspecial equipment food processor check amazon.com sale cuisinart food processor
p1896
atp1897
sVdc5c52
p1898
(VFall Vegetable Quinoa Soup
p1899
Vhttp://static.food2fork.com/FallVegetableQuinoaSoup1c442.jpg
p1900
Vhttp://www.twopeasandtheirpod.com/fall-vegetable-quinoa-soup/
p1901
(lp1902
Volive oil
p1903
ag34
ag196
ag197
aVgarlic
p1904
ag114
aVbutternut squash
p1905
aVbay leaf
p1906
aVreduced-sodium vegetable broth
p1907
ag32
aVchickpea
p1908
aVquinoa
p1909
aVrosemary
p1910
aVthyme
p1911
aVkale
p1912
aVsalt
p1913
aVblack pepper
p1914
atp1915
sV7951a3
p1916
(VRed onion marmalade
p1917
Vhttp://static.food2fork.com/1404_MEDIUM81dc.jpg
p1918
Vhttp://www.bbcgoodfood.com/recipes/1404/red-onion-marmalade
p1919
(lp1920
g34
aVgarlic
p1921
ag7
aVolive oil
p1922
ag554
aVthyme leaf
p1923
aVchilli flake
p1924
ag11
aVport
p1925
atp1926
sV37683
p1927
(VMacaroni and Cheese With Cauliflower
p1928
Vhttp://static.food2fork.com/maccheesebowl_30042b17203.jpg
p1929
Vhttp://www.realsimple.com/food-recipes/browse-all-recipes/macaroni-cheese-cauliflower-00000000008063/index.html
p1930
(lp1931
g176
aVcauliflower
p1932
ag31
aVflat-leaf parsley
p1933
aVolive oil
p1934
aVkosher salt black pepper
p1935
ag34
ag918
aVreduced-fat sour cream
p1936
ag318
atp1937
sV35724
p1938
(VArugula Pesto
p1939
Vhttp://static.food2fork.com/arugulapesto520300x200669b48a4.jpg
p1940
Vhttp://www.simplyrecipes.com/recipes/arugula_pesto/
p1941
(lp1942
Vpacked arugula leaf
p1943
aVshelled walnut
p1944
aVparmesan cheese
p1945
aVextra virgin olive oil
p1946
aVgarlic
p1947
aVsalt
p1948
atp1949
sV35771
p1950
(VBasque Lamb Stew
p1951
Vhttp://static.food2fork.com/basquelambstewa300x20001c71152.jpg
p1952
Vhttp://www.simplyrecipes.com/recipes/basque_lamb_stew/
p1953
(lp1954
g692
aVgarlic
p1955
aVsprig rosemary
p1956
ag11
aVextra virgin olive oil
p1957
ag34
aVsalt
p1958
aVsweet paprika
p1959
aV-ounce roasted red bell pepper
p1960
ag32
aVparsley
p1961
aVbay leaf
p1962
aVdry
p1963
ag47
aVblack pepper
p1964
atp1965
sV47220
p1966
(VSundried Tomato Pasta Salad
p1967
Vhttp://static.food2fork.com/3673433059_6b22c2887147bf.jpg
p1968
Vhttp://thepioneerwoman.com/cooking/2009/06/fourth-of-july-week-sundried-tomato-pasta-salad/
p1969
(lp1970
Vdressing ingredient
p1971
ag32
aVgarlic
p1972
ag11
aVextra virgin olive oil
p1973
aVsalt
p1974
aVpepper
p1975
aNaVkalamata assorted olive
p1976
aVleaf basil leaf
p1977
aVparmesan cheese
p1978
atp1979
sV47899
p1980
(VMagic Sauce
p1981
Vhttp://static.food2fork.com/magic_sauce_recipeece9.jpg
p1982
Vhttp://www.101cookbooks.com/archives/magic-sauce-recipe.html
p1983
(lp1984
Vextra virgin olive oil
p1985
aVrosemary leaf
p1986
aVthyme leaf
p1987
aVoregano leaf
p1988
aVsweet paprika
p1989
aVgarlic
p1990
aVwell-crumbled bay leaf
p1991
aVred pepper flake
p1992
aVsea salt
p1993
ag222
atp1994
sVe4878e
p1995
(VOne-Pot Chicken, Quinoa, Mushrooms &amp; Spinach Recipe
p1996
Vhttp://static.food2fork.com/OnePotChickenQuinoaMushroomFinal200x300e65a.jpg
p1997
Vhttp://www.cookincanuck.com/2015/09/one-pot-chicken-quinoa-mushrooms-spinach-recipe/
p1998
(lp1999
NaVsmoked paprika
p2000
aVsalt
p2001
aVpepper
p2002
aVolive oil
p2003
ag34
ag168
aVquinoa
p2004
ag47
aVsliced spinach leaf
p2005
atp2006
sVf771d3
p2007
(Vgarlic butter roasted mushrooms
p2008
Vhttp://static.food2fork.com/5248534315_8ea3d1753eaaf1.jpg
p2009
Vhttp://smittenkitchen.com/blog/2010/12/garlic-butter-roasted-mushrooms/
p2010
(lp2011
g168
aVcaper
p2012
aVgarlic
p2013
aVvegetable oil
p2014
ag7
ag222
aVflat-leaf parsley
p2015
atp2016
sV296eca
p2017
(VSkillet Whole Wheat Pasta with Chicken &amp; Tomato Sauce
p2018
Vhttp://static.food2fork.com/SkilletWWPastaChickenTomatoSauceFinal200x300021a.jpg
p2019
Vhttp://www.cookincanuck.com/2015/08/skillet-whole-wheat-pasta-chicken-tomato-sauce-recipe/
p2020
(lp2021
Volive oil
p2022
aNaVsalt
p2023
aVpepper
p2024
aVwheat penne
p2025
ag34
ag196
aVgarlic
p2026
aVoregano
p2027
aVred pepper flake
p2028
ag32
aVflat-leaf parsley
p2029
aVbasil leaf
p2030
aVparmesan cheese
p2031
atp2032
sV327fc4
p2033
(VEasy Marinara Sauce
p2034
Vhttp://static.food2fork.com/EasyMarinaraSauce13ff6.jpg
p2035
Vhttp://www.twopeasandtheirpod.com/easy-marinara-sauce/
p2036
(lp2037
Volive oil
p2038
ag34
aVgarlic
p2039
ag196
ag197
aVfennel seed
p2040
aVred pepper
p2041
aVbay leaf
p2042
ag32
ag554
aVsalt
p2043
aVblack pepper
p2044
aVoregano
p2045
aVbasil
p2046
atp2047
sV40c212
p2048
(VHerb Roasted Lamb Chops
p2049
Vhttp://static.food2fork.com/3512537a64.jpg
p2050
Vhttp://www.epicurious.com/recipes/food/views/Herb-Roasted-Lamb-Chops-351253
p2051
(lp2052
Vgarlic
p2053
aVthyme leaf
p2054
aVrosemary leaf
p2055
aVcoarse kosher salt
p2056
aVextra virgin olive oil
p2057
ag692
atp2058
sVfe4aaa
p2059
(VMy Moorish pork chops
p2060
Vhttp://static.food2fork.com/357_1_1349694258_lrga1b9.jpg
p2061
Vhttp://www.jamieoliver.com/recipes/pork-recipes/my-moorish-pork-chops
p2062
(lp2063
Vfew sprig oregano marjoram
p2064
aVsea salt
p2065
aVblack pepper
p2066
aVraisin
p2067
aVgood-quality dry sherry
p2068
aVspanish extra virgin olive oil
p2069
aNaVfew pata negra
p2070
aVolive oil
p2071
ag34
aVred pepper
p2072
aVfew sprig rosemary
p2073
aVfew bay leaf
p2074
ag204
aVswiss chard
p2075
atp2076
sV47110
p2077
(VPortobello-Prosciutto Burgers
p2078
Vhttp://static.food2fork.com/4896232820_f0f8ef5934_ocdf2.jpg
p2079
Vhttp://thepioneerwoman.com/cooking/2010/08/portobello-prosciutto-burgers/
p2080
(lp2081
Vmayonnaise
p2082
aVbasil leaf
p2083
ag168
ag11
aVolive oil brushing
p2084
aVsalt
p2085
aVpepper
p2086
aVprovolone cheese
p2087
aVprosciutto
p2088
ag94
aVextra basil leaf
p2089
atp2090
sVe9e277
p2091
(Vshakshuka
p2092
Vhttp://static.food2fork.com/4502340031_7179576398eeb7.jpg
p2093
Vhttp://smittenkitchen.com/blog/2010/04/shakshuka/
p2094
(lp2095
Volive oil
p2096
aVanaheim chile jalapeos
p2097
ag34
aVgarlic
p2098
aVcumin
p2099
aVpaprika
p2100
ag32
aVkosher salt
p2101
ag193
aVfeta cheese
p2102
aVflat-leaf parsley
p2103
aVpita
p2104
atp2105
sV823aa7
p2106
(VMelty mushroom Wellingtons
p2107
Vhttp://static.food2fork.com/12804_MEDIUM9bcc.jpg
p2108
Vhttp://www.bbcgoodfood.com/recipes/12804/melty-mushroom-wellingtons
p2109
(lp2110
g168
aVolive oil
p2111
aVgarlic
p2112
aVabout spinach leaf
p2113
ag29
aVpicked thyme leaf
p2114
aVblock all-butter puff pastry
p2115
aVstilton
p2116
ag193
atp2117
sV46944
p2118
(VNew York Style Chopped Salad
p2119
Vhttp://static.food2fork.com/choppedsalad7709.jpg
p2120
Vhttp://thepioneerwoman.com/cooking/2012/03/new-york-style-chopped-salad/
p2121
(lp2122
Vgreen
p2123
aVmixed salad green
p2124
aS'lettuce'
p2125
aVromaine leaf
p2126
aVfixins
p2127
ag508
ag204
aVmixed olive
p2128
aVsliced diced bell pepper
p2129
aS'hard candy'
p2130
aVavocado
p2131
ag168
aVcheese
p2132
aVmozzarella
p2133
ag528
aVasparagus
p2134
aVsunflower seed
p2135
aVsliced almond
p2136
aNaVdressing your choice
p2137
atp2138
sV48019
p2139
(VGiant Chipotle White Beans
p2140
Vhttp://static.food2fork.com/giant_chipotle_baked_beans8c91.jpg
p2141
Vhttp://www.101cookbooks.com/archives/giant-chipotle-white-beans-recipe.html
p2142
(lp2143
NaVchipotle-
p2144
aVextra virgin olive oil
p2145
aVbig red pepper flake
p2146
aVsalt
p2147
aVgarlic
p2148
ag32
aVoregano leaf
p2149
aVadobo sauce from chipotle pepper
p2150
aVcilantro
p2151
aVbig salt
p2152
aVkale chard
p2153
aVqueso fresco feta cheese
p2154
aVwhole-grain breadcrumb
p2155
atp2156
sV35508
p2157
(VQuinoa Cakes with Roasted Red Pepper and Walnut Pesto, Goat Cheese and a Poached Egg
p2158
Vhttp://static.food2fork.com/Quinoa2BCakes2Bwith2BRoasted2BRed2BPepper2Band2BWalnut2BPesto252C2BGoat2BCheese2Band2Ba2BPoached2BEgg2B5002B4103475a885a.jpg
p2159
Vhttp://www.closetcooking.com/2012/01/quinoa-cakes-with-roasted-red-pepper.html
p2160
(lp2161
Vspinach leaf
p2162
ag1384
aVbatch roasted red pepper toasted walnut pesto see below
p2163
aVgoat cheese
p2164
ag193
aVsalt
p2165
aVpepper
p2166
aVchive
p2167
aVquinoa
p2168
aVbroth
p2169
ag34
aVgarlic
p2170
ag29
aVparmigiano reggiano
p2171
aVoil frying
p2172
aVroasted red pepper
p2173
aVbasil leaf
p2174
aVwalnut
p2175
aVolive oil
p2176
atp2177
sV46943
p2178
(VSeafood Pasta
p2179
Vhttp://static.food2fork.com/seafoodpasta5075.jpg
p2180
Vhttp://thepioneerwoman.com/cooking/2012/03/seafood-pasta/
p2181
(lp2182
Volive oil
p2183
ag7
aVscallop
p2184
aVshrimp
p2185
aVgarlic
p2186
ag11
aNaVsalt
p2187
aVpepper
p2188
aVred pepper
p2189
aVheavy cream
p2190
aVbasil leaf torn
p2191
ag47
atp2192
sV7a92e8
p2193
(VPimm's, lemon &amp; mint jelly
p2194
Vhttp://static.food2fork.com/1288634_MEDIUM8666.jpg
p2195
Vhttp://www.bbcgoodfood.com/recipes/1288634/pimms-lemon-and-mint-jelly
p2196
(lp2197
Vgelatine leaf
p2198
aVbunch mint leaf
p2199
aVpimm
p2200
aVsparkling lemonade
p2201
ag528
atp2202
sVe7b7db
p2203
(VJerk-dressed Bristol pork
p2204
Vhttp://static.food2fork.com/297_1_1349713886_lrgb6c1.jpg
p2205
Vhttp://www.jamieoliver.com/recipes/pork-recipes/jerk-dressed-bristol-pork
p2206
(lp2207
S'pork shoulder roast'
p2208
aVsea salt
p2209
aVpepper
p2210
aVgenerous rosemary
p2211
aVgenerous thyme
p2212
aVnutmeg
p2213
aVolive oil
p2214
aVlitre quality cider
p2215
aVscotch bonnet chilli
p2216
ag34
aVlevel cinnamon
p2217
aVlevel
p2218
aVlevel allspice
p2219
aVlime
p2220
aVthumb-sized piece ginger
p2221
aVfew bay leaf
p2222
aVgarlic
p2223
aVbunch coriander
p2224
atp2225
sV309421
p2226
(VQuinoa, Garbanzo, and Spinach Salad with Smoked Paprika Dressing
p2227
Vhttp://static.food2fork.com/epicuriousfacebook511b.png
p2228
Vhttp://www.epicurious.com/recipes/food/views/Quinoa-Garbanzo-and-Spinach-Salad-with-Smoked-Paprika-Dressing-359569
p2229
(lp2230
Vquinoa
p2231
aVspinach leaf
p2232
ag204
ag528
ag32
aVmint leaf
p2233
aVcoarsely crumbled feta cheese
p2234
ag11
aVsmoked paprika
p2235
aVolive oil
p2236
atp2237
sV80db91
p2238
(VSpaghetti puttanesca
p2239
Vhttp://static.food2fork.com/4274_MEDIUM64d8.jpg
p2240
Vhttp://www.bbcgoodfood.com/recipes/4274/spaghetti-puttanesca
p2241
(lp2242
Volive oil
p2243
aVgarlic
p2244
ag32
aVcaper
p2245
aVanchovy
p2246
aVgreen olive
p2247
aVchilli flake
p2248
ag176
aVbunch flat-leaf parsley
p2249
atp2250
sV46948
p2251
(VPasta Puttanesca
p2252
Vhttp://static.food2fork.com/puttanesca937e.jpg
p2253
Vhttp://thepioneerwoman.com/cooking/2012/02/pasta-puttanesca/
p2254
(lp2255
NaVolive oil
p2256
ag34
ag508
ag47
aVgarlic
p2257
aVanchovy filet
p2258
aVassorted olive
p2259
aVbasil leaf
p2260
atp2261
sV39867
p2262
(VPeach, Mozzarella, and Basil Salad
p2263
Vhttp://static.food2fork.com/peachmozzarellabasil_300f41a92bc.jpg
p2264
Vhttp://www.realsimple.com/food-recipes/browse-all-recipes/peach-mozzarella-basil-salad-10000001213179/index.html
p2265
(lp2266
g79
aVbasil leaf
p2267
aVmozzarella
p2268
aVextra virgin olive oil
p2269
aVkosher salt
p2270
aVblack pepper
p2271
atp2272
sV30b354
p2273
(VRicotta, tomato &amp; spinach frittata
p2274
Vhttp://static.food2fork.com/1162645_MEDIUM6330.jpg
p2275
Vhttp://www.bbcgoodfood.com/recipes/1162645/ricotta-tomato-and-spinach-frittata
p2276
(lp2277
Volive oil
p2278
ag34
ag32
aVspinach leaf
p2279
aVbasil leaf
p2280
aVricotta
p2281
ag193
aVsalad
p2282
atp2283
sV48991
p2284
(VCrispy Kale Salad with Lime Dressing
p2285
Vhttp://static.food2fork.com/crispykalesaladwithlimedressing64625d8.jpg
p2286
Vhttp://www.bonappetit.com/recipes/2012/09/crispy-kale-salad-with-lime-dressing
p2287
(lp2288
g554
aVlime juice
p2289
aVfish sauce
p2290
aVgarlic
p2291
aVred thai chile red jalape
p2292
aVtuscan kale leaf -inch-long piece torn from stemmed leaf
p2293
aVvegetable oil
p2294
aVkosher salt black pepper
p2295
aVmixed tender herb such cilantro
p2296
ag196
ag79
aVthinly sliced stemmed tuscan kale leaf
p2297
ag528
atp2298
sV1aec9d
p2299
(VRed Lentils and Spinach in Masala Sauce
p2300
Vhttp://static.food2fork.com/IMG_9881200x30064fa.jpg
p2301
Vhttp://naturallyella.com/2012/11/23/red-lentils-and-spinach-in-masala-sauce/
p2302
(lp2303
NaVcumin seed
p2304
aVcoriander seed
p2305
aVpiece ginger
p2306
aVred pepper flakes*
p2307
aVsmoked paprika
p2308
aVgaram marsala
p2309
aVsalt
p2310
ag57
ag32
aVpacked cilantro leaf
p2311
aVcoconut oil
p2312
ag34
aVgarlic
p2313
aVmasala paste
p2314
ag318
aVred lentil
p2315
aVspinach
p2316
atp2317
sV9e4c51
p2318
(VHerby lemon chicken with Tuscan beans
p2319
Vhttp://static.food2fork.com/691655_MEDIUM220c.jpg
p2320
Vhttp://www.bbcgoodfood.com/recipes/691655/herby-lemon-chicken-with-tuscan-beans
p2321
(lp2322
g47
aVzest
p2323
aVjuice lemon
p2324
aVolive oil
p2325
aVthyme sprig
p2326
aVpack cubetti pancetta
p2327
ag197
aVfat garlic
p2328
ag7
ag11
aVbunch flat-leaf parsley
p2329
atp2330
sV409bef
p2331
(VBacon-Wrapped Turkey with Pear Cider Gravy Recipe
p2332
Vhttp://static.food2fork.com/11130_turkey_bacon_5_6205c8f.jpg
p2333
Vhttp://www.chow.com/recipes/11130-bacon-wrapped-turkey-with-pear-cider-gravy
p2334
(lp2335
g1048
aVvegetable oil
p2336
ag34
ag197
aVgarlic
p2337
ag457
ag395
ag7
ag29
ag47
ag408
aVsprig thyme
p2338
aVbay leaf
p2339
ag2130
atp2340
sVa756c7
p2341
(VZucchini Noodles with Pesto
p2342
Vhttp://static.food2fork.com/ZucchiniNoodleswithPesto619ef.jpg
p2343
Vhttp://www.twopeasandtheirpod.com/zucchini-noodles-with-pesto/
p2344
(lp2345
Vzucchini
p2346
aVpacked basil leaf
p2347
aVgarlic
p2348
aVextra virgin olive oil
p2349
ag222
aVparmesan cheese
p2350
aVkosher salt black pepper
p2351
ag508
atp2352
sV35977
p2353
(VChimichurri
p2354
Vhttp://static.food2fork.com/chimichurri300x200a40af251.jpg
p2355
Vhttp://www.simplyrecipes.com/recipes/chimichurri/
p2356
(lp2357
Vfirmly packed flat-leaf parsley
p2358
aVgarlic
p2359
aVtbsps oregano leaf
p2360
aVolive oil
p2361
ag11
aVsea salt
p2362
aVblack pepper
p2363
aVred pepper flake
p2364
atp2365
sVe16809
p2366
(VRoasted Red Pepper Pesto Pasta Recipe
p2367
Vhttp://static.food2fork.com/IMG_2936180x18005a4.jpg
p2368
Vhttp://www.aspicyperspective.com/2013/01/roasted-red-pepper-pesto-pasta-recipe.html
p2369
(lp2370
Vroasted red pepper
p2371
aVuse roasted pepper
p2372
aVpacked basil leaf leaf
p2373
aVgarlic
p2374
aVparmesan cheese
p2375
aVfinely walnut
p2376
aVolive oil
p2377
aVdalallo organic pasta
p2378
aVsalt
p2379
aVpepper
p2380
atp2381
sV9a1915
p2382
(VChicken Under a Brick with Avocados and Chiles
p2383
Vhttp://static.food2fork.com/5110467050d3.jpg
p2384
Vhttp://www.epicurious.com/recipes/food/views/Chicken-Under-a-Brick-with-Avocados-and-Chiles-51104670
p2385
(lp2386
g47
aVkosher salt plus more
p2387
aVblack pepper plus more seasoning
p2388
aVcayenne pepper
p2389
aVolive oil
p2390
ag222
aVrosemary leaf
p2391
aVpoblano chile
p2392
aVred bell pepper
p2393
ag34
ag11
aVgarlic
p2394
aVbasil leaf
p2395
aVavocado
p2396
aVchili powder
p2397
aNaVone brick
p2398
atp2399
sV35972
p2400
(VChile Verde
p2401
Vhttp://static.food2fork.com/chileverde520300x20099a12cca.jpg
p2402
Vhttp://www.simplyrecipes.com/recipes/chile_verde/
p2403
(lp2404
Vtomatillo
p2405
aVgarlic
p2406
aVjalapeno
p2407
aVanaheim poblano chile
p2408
aVbunch cilantro leaf
p2409
ag446
aVsalt
p2410
aVblack pepper
p2411
aVolive oil
p2412
ag34
aVoregano oregano
p2413
ag47
aNatp2414
sVe7abd3
p2415
(VHearty pasta soup
p2416
Vhttp://static.food2fork.com/5592_MEDIUMf2e4.jpg
p2417
Vhttp://www.bbcgoodfood.com/recipes/5592/hearty-pasta-soup
p2418
(lp2419
Volive oil
p2420
ag196
ag34
aVvegetable stock
p2421
ag32
ag79
aVpack filled tortellini
p2422
aVbasil leaf
p2423
aVparmesan
p2424
atp2425
sV37150
p2426
(VZucchini and Spinach Gratin
p2427
Vhttp://static.food2fork.com/zucchinispinachgratin300x2002e6f1d45.jpg
p2428
Vhttp://www.simplyrecipes.com/recipes/zucchini_and_spinach_gratin/
p2429
(lp2430
Vzucchini
p2431
aVkosher salt
p2432
aVspinach*
p2433
ag395
ag34
aVparsley about leaf
p2434
aVgarlic
p2435
aVparmesan cheese
p2436
aVblack pepper
p2437
ag193
aVolive oil
p2438
atp2439
sV65f621
p2440
(VStuffed chicken breast
p2441
Vhttp://static.food2fork.com/3652_MEDIUM67b8.jpg
p2442
Vhttp://www.bbcgoodfood.com/recipes/3652/stuffed-chicken-breast
p2443
(lp2444
g47
aVball mozzarella
p2445
ag32
aVbasil leaf
p2446
aS'ham'
p2447
aVred pepper
p2448
aVolive oil
p2449
aVvegetable stock cube
p2450
ag554
atp2451
sV36388
p2452
(VGreen Bean Salad with Basil, Balsamic, and Parmesan
p2453
Vhttp://static.food2fork.com/greenbeanbalsamicsalada300x20079993df3.jpg
p2454
Vhttp://www.simplyrecipes.com/recipes/green_bean_salad_with_basil_balsamic_and_parmesan/
p2455
(lp2456
g204
aVsalt
p2457
ag34
aVbalsamic vinegar
p2458
aVolive oil
p2459
aVbasil leaf
p2460
aVparmesan cheese
p2461
aVblack pepper
p2462
atp2463
sV43382f
p2464
(VSpiced Pumpkin, Lentil, and Goat Cheese Salad
p2465
Vhttp://static.food2fork.com/355212f542.jpg
p2466
Vhttp://www.epicurious.com/recipes/food/views/Spiced-Pumpkin-Lentil-and-Goat-Cheese-Salad-355212
p2467
(lp2468
Vfrench green lentils*
p2469
ag554
aVolive oil
p2470
aVcumin
p2471
aVsmoked spanish paprika**
p2472
aVsea salt
p2473
aVarugula
p2474
aVsoft goat cheese
p2475
aVthinly sliced mint leaf
p2476
ag11
atp2477
sV4b8f35
p2478
(VToast with Lemony Pea Mash
p2479
Vhttp://static.food2fork.com/5115493080b4.jpg
p2480
Vhttp://www.epicurious.com/recipes/food/views/Toast-with-Lemony-Pea-Mash-51154930
p2481
(lp2482
Vgarlic
p2483
aVflat-leaf parsley leaf
p2484
aVextra virgin olive oil
p2485
aVkosher salt
p2486
ag79
aVchive
p2487
ag222
aValeppo pepper red pepper flake plus more serving
p2488
aVblack pepper
p2489
ag31
atp2490
sVb7adc9
p2491
(VKale and Mushroom Stroganoff Recipe
p2492
Vhttp://static.food2fork.com/30263_RecipeImage_620x413_kale_stroganofffc1c.jpg
p2493
Vhttp://www.chow.com/recipes/30263-kale-and-mushroom-stroganoff
p2494
(lp2495
g168
aNaVplus olive oil
p2496
ag34
aVpaprika
p2497
ag29
aVbunch flat-leaf kale
p2498
aVgarlic
p2499
aVkosher salt
p2500
aVblack pepper
p2501
ag11
ag193
ag7
aVsour cream
p2502
atp2503
sV12240
p2504
(VEasy Paella
p2505
Vhttp://static.food2fork.com/99621525ca.jpg
p2506
Vhttp://allrecipes.com/Recipe/Easy-Paella/Detail.aspx
p2507
(lp2508
Volive oil
p2509
aVpaprika
p2510
aVoregano
p2511
aVsalt
p2512
aVblack pepper
p2513
aNaVnbsp
p2514
aVgarlic
p2515
aVred pepper flake
p2516
ag327
aVsaffron thread
p2517
aVbay leaf
p2518
aVbunch italian flat leaf parsley
p2519
ag47
ag222
ag34
aVred bell pepper
p2520
ag408
aVshrimp
p2521
atp2522
sVcc3e28
p2523
(VTomato &amp; anchovy risotto with crispy crumbs
p2524
Vhttp://static.food2fork.com/2838668_MEDIUMd214.jpg
p2525
Vhttp://www.bbcgoodfood.com/recipes/2838668/tomato-and-anchovy-risotto-with-crispy-crumbs
p2526
(lp2527
Vanchovy fillet olive oil
p2528
ag34
aVgarlic
p2529
ag192
ag47
ag32
aVwhite breadcrumb
p2530
aVbasil leaf
p2531
aVshaved parmesan
p2532
atp2533
sV39907
p2534
(VLentil Fritter Pitas With Red Cabbage Slaw
p2535
Vhttp://static.food2fork.com/lentilpitas_300bb7a8f75.jpg
p2536
Vhttp://www.realsimple.com/food-recipes/browse-all-recipes/lentil-fritter-pitas-cabbage-slaw-00100000061905/index.html
p2537
(lp2538
V-ounce lentil
p2539
aVcilantro leaf
p2540
aVflat-leaf parsley leaf
p2541
aVgarlic
p2542
aVcumin
p2543
ag31
aVkosher salt black pepper
p2544
ag1017
ag222
aVolive oil
p2545
ag191
aVred pepper
p2546
atp2547
sV22981
p2548
(VMint Juleps
p2549
Vhttp://static.food2fork.com/13146b1d3.jpg
p2550
Vhttp://allrecipes.com/Recipe/Mint-Juleps/Detail.aspx
p2551
(lp2552
Nag554
aVroughly mint leaf
p2553
aS'bourbon whiskey'
p2554
aVsprig mint leaf garnish
p2555
atp2556
sV36945
p2557
(VSlow Roasted Pork Shoulder with Savory Apple Gravy
p2558
Vhttp://static.food2fork.com/slowroastedporkshoulderapplesa300x2006a2336ba.jpg
p2559
Vhttp://www.simplyrecipes.com/recipes/slow_roasted_pork_shoulder_with_savory_apple_gravy/
p2560
(lp2561
g446
aVfennel seed
p2562
aVblack peppercorn
p2563
aVpacked
p2564
aVrosemary leaf
p2565
aVgarlic
p2566
aVkosher salt
p2567
aVolive oil
p2568
ag1443
ag34
ag11
aVdijon mustard
p2569
aVblack pepper
p2570
atp2571
sVb078a3
p2572
(VCreamer Potatoes with Red Pepper Cashew Pesto
p2573
Vhttp://static.food2fork.com/CreamerPotatoesRedPepperCashewPestoFinal200x300d5d5.jpg
p2574
Vhttp://www.cookincanuck.com/2015/08/creamer-potatoes-red-pepper-cashew-pesto-recipe/
p2575
(lp2576
Vroasted bell pepper
p2577
ag89
aVgarlic
p2578
aVflat-leaf parsley
p2579
aVparmesan cheese
p2580
aVsalt
p2581
aVpepper
p2582
aVextra virgin olive oil
p2583
ag114
atp2584
sVfacbae
p2585
(VThe real mushroom soup
p2586
Vhttp://static.food2fork.com/619_1_1350913316_lrg051d.jpg
p2587
Vhttp://www.jamieoliver.com/recipes/vegetables-recipes/the-real-mushroom-soup
p2588
(lp2589
Vporcini
p2590
aVolive oil
p2591
ag168
aVgarlic
p2592
ag34
aVthyme
p2593
aVsea salt
p2594
aVblack pepper
p2595
ag47
aVflat-leaf parsley
p2596
aVmascarpone cheese
p2597
ag222
aVtruffle oil
p2598
atp2599
sVde4fba
p2600
(VMushroom, Leek, and Fontina Frittata
p2601
Vhttp://static.food2fork.com/51143040f1f9.jpg
p2602
Vhttp://www.epicurious.com/recipes/food/views/Mushroom-Leek-and-Fontina-Frittata-51143040
p2603
(lp2604
Volive oil
p2605
aVleek
p2606
ag168
ag193
aVcrme frache sour cream
p2607
aVcoarsely flat-leaf parsley
p2608
aVfontina cheese
p2609
aVkosher salt
p2610
atp2611
sV751a50
p2612
(VFisherman\u2019s Soup Recipe with Tilapia, Shrimp, Tomatoes & Capers
p2613
Vhttp://static.food2fork.com/8123039710_ae7780eef59ae0.jpg
p2614
Vhttp://www.cookincanuck.com/2012/10/fishermans-soup-recipe-with-tilapia-shrimp-tomatoes-capers/
p2615
(lp2616
Volive oil
p2617
ag34
aVgarlic
p2618
aVred bell pepper
p2619
ag196
aVoregano
p2620
aVchile flake
p2621
aVflat-leaf parsley
p2622
ag11
ag32
aVvegetable broth
p2623
aVkosher salt
p2624
aVfirm white fish
p2625
aVshrimp
p2626
aVcaper
p2627
aVsalt pepper
p2628
atp2629
sV49098
p2630
(VGrilled Kale Salad with Ricotta and Plums
p2631
Vhttp://static.food2fork.com/grilledkalesaladwithricottaandplums6462271.jpg
p2632
Vhttp://www.bonappetit.com/recipes/quick-recipes/2012/07/grilled-kale-salad-with-ricotta-and-plums
p2633
(lp2634
Vextra virgin olive oil
p2635
aVbalsamic vinegar
p2636
aVthyme
p2637
aVhoney
p2638
aVkosher salt
p2639
aVplum
p2640
aVcurly kale leaf
p2641
aVricotta
p2642
atp2643
sV988064
p2644
(VWinter Vegetable Soup Recipe with Butternut Squash & Cauliflower
p2645
Vhttp://static.food2fork.com/WinterSoupFinalSquareSmall02ef.jpg
p2646
Vhttp://www.cookincanuck.com/2013/01/winter-vegetable-soup-recipe-with-butternut-squash-cauliflower/
p2647
(lp2648
Volive oil
p2649
ag34
aVgarlic
p2650
ag196
ag197
aVchile flake
p2651
aVthyme
p2652
aVsalt
p2653
ag32
aVbutternut squash
p2654
aVcauliflower
p2655
aVvegetable broth
p2656
aNaVbay leaf
p2657
aVitalian parsley
p2658
aVpepper
p2659
atp2660
sV35884
p2661
(VCaprese Corn Salad
p2662
Vhttp://static.food2fork.com/capresecornsalad520300x2000231467d.jpg
p2663
Vhttp://www.simplyrecipes.com/recipes/caprese_corn_salad/
p2664
(lp2665
g457
aVolive oil
p2666
ag11
aVblack pepper
p2667
aVkosher salt
p2668
ag554
aVroughly
p2669
aVsliced scallion
p2670
aVmozzarella
p2671
aVbasil leaf
p2672
atp2673
sV36098
p2674
(VCoq au Vin
p2675
Vhttp://static.food2fork.com/coqauvinnew300x20010b9c91a.jpg
p2676
Vhttp://www.simplyrecipes.com/recipes/coq_au_vin/
p2677
(lp2678
g395
ag34
ag47
aVgarlic
p2679
aVsalt
p2680
aVpepper
p2681
ag11
aVbay leaf
p2682
aVseveral thyme sprig
p2683
aVseveral parsley sprig
p2684
ag168
ag7
aVparsley garnish
p2685
atp2686
sV2fdc23
p2687
(VMoroccan lamb tagine
p2688
Vhttp://static.food2fork.com/moroccanlambtagine_6696_16x9bebb.jpg
p2689
Vhttp://www.bbc.co.uk/food/recipes/moroccanlambtagine_6696
p2690
(lp2691
Vcayenne pepper
p2692
aVblack pepper
p2693
aVpaprika
p2694
aVginger
p2695
aVturmeric
p2696
aVcinnamon
p2697
ag2208
ag34
aVolive oil
p2698
aVargan oil
p2699
aVgarlic
p2700
ag32
aVapricot
p2701
aVdate
p2702
aVsultana
p2703
aVflaked almond
p2704
aVsaffron
p2705
ag692
aVclear honey
p2706
aVcoriander
p2707
aVflat leaf parsley
p2708
atp2709
sV419ddf
p2710
(Vbreakfast pizza
p2711
Vhttp://static.food2fork.com/4420552280_bb575420043571.jpg
p2712
Vhttp://smittenkitchen.com/blog/2010/03/breakfast-pizza/
p2713
(lp2714
Vdry active yeast
p2715
ag31
aVkosher salt
p2716
ag395
aVparmesan
p2717
aVmozzarella
p2718
ag193
aVblack pepper
p2719
aVflat-leaf parsley
p2720
aVchive
p2721
aVscallion
p2722
aVshallot
p2723
atp2724
sVff94b3
p2725
(VWhole Roasted Cauliflower with Whipped Goat Cheese
p2726
Vhttp://static.food2fork.com/wholeroastedcauliflowerwithwhippedgoatcheese6467c71.jpg
p2727
Vhttp://www.bonappetit.com/recipes/2013/05/whole-roasted-cauliflower-with-whipped-goat-cheese
p2728
(lp2729
g11
aVolive oil
p2730
aVkosher salt
p2731
ag222
ag7
aVred pepper flake
p2732
ag554
aVbay leaf
p2733
aVcauliflower
p2734
aVgoat cheese
p2735
aVcream cheese
p2736
aVfeta
p2737
aVheavy cream
p2738
aVolive oil plus more serving
p2739
aVcoarse sea salt
p2740
atp2741
sV16633
p2742
(VHomemade Tomato Sauce I
p2743
Vhttp://static.food2fork.com/112506bf74.jpg
p2744
Vhttp://allrecipes.com/Recipe/Homemade-Tomato-Sauce-I/Detail.aspx
p2745
(lp2746
g32
aVolive oil
p2747
ag7
ag34
aVgreen bell pepper
p2748
ag196
aVgarlic
p2749
aVbasil
p2750
aVitalian seasoning
p2751
ag11
aVbay leaf
p2752
ag197
atp2753
sV48982
p2754
(VGarlic Shrimp and White Beans
p2755
Vhttp://static.food2fork.com/garlicshrimpandwhitebeans64603ba.jpg
p2756
Vhttp://www.bonappetit.com/recipes/quick-recipes/2012/10/garlic-shrimp-and-white-beans
p2757
(lp2758
Volive oil
p2759
aVgarlic
p2760
aVchile rbol
p2761
aVbay leaf
p2762
ag32
aVkosher salt
p2763
ag204
ag47
aVshrimp
p2764
aVsmoked paprika
p2765
aVflat-leaf parsley
p2766
ag31
atp2767
sVc9f5c7
p2768
(VSummer Squash and Red Quinoa Salad with Walnuts
p2769
Vhttp://static.food2fork.com/51108080003f.jpg
p2770
Vhttp://www.epicurious.com/recipes/food/views/Summer-Squash-and-Red-Quinoa-Salad-with-Walnuts-51108080
p2771
(lp2772
Vred quinoa
p2773
aVkosher salt plus more seasoning
p2774
aVassorted summer squash
p2775
aVfinely parmesan plus shaved with peeler
p2776
ag222
aVsherry vinegar
p2777
aVextra virgin olive oil
p2778
aVblack pepper
p2779
aVflat-leaf parsley leaf
p2780
aVwalnut
p2781
aVbasil leaf
p2782
atp2783
sV0df822
p2784
(VStuffed Chicken Breast Recipe with Goat Cheese, Sun-Dried Tomatoes & Spinach
p2785
Vhttp://static.food2fork.com/StuffedChickenBreastSquare63bd.jpg
p2786
Vhttp://www.cookincanuck.com/2013/03/stuffed-chicken-breasts-recipe-with-goat-cheese-sun-dried-tomatoes-spinach/
p2787
(lp2788
Vgoat cheese
p2789
ag32
aVspinach leaf
p2790
aVsalt
p2791
aVpepper
p2792
aNaVolive oil
p2793
atp2794
sVf346e7
p2795
(VVegan Lasagna Recipe
p2796
Vhttp://static.food2fork.com/29439_vegan_lasagna_2_620c9bf.jpg
p2797
Vhttp://www.chow.com/recipes/29439-vegan-lasagna
p2798
(lp2799
Veggplant
p2800
aVkosher salt
p2801
aVextra virgin olive oil
p2802
aVblack pepper
p2803
aVfinely italian parsley leaf
p2804
ag11
aVred pepper flake
p2805
ag32
ag34
aVgarlic
p2806
aVbay leaf
p2807
aVcaper
p2808
aVlasagna noodle
p2809
aVsoft tofu
p2810
aVnutritional yeast
p2811
ag222
aVloosely packed basil leaf
p2812
atp2813
sV47877
p2814
(VSpiced Tomato Gratin
p2815
Vhttp://static.food2fork.com/spiced_tomato_gratin_recipeb57a.jpg
p2816
Vhttp://www.101cookbooks.com/archives/spiced-tomato-gratin-recipe.html
p2817
(lp2818
Vcumin seed
p2819
aVcurry powder
p2820
aVred pepper flake
p2821
aVextra virgin olive oil
p2822
ag34
ag7
ag114
aVheavy cream
p2823
ag32
aVbasil leaf
p2824
aVsea salt pepper
p2825
atp2826
sV36403
p2827
(VGrilled Butterflied Leg of Lamb
p2828
Vhttp://static.food2fork.com/grilledlegoflamb300x20006c89e64.jpg
p2829
Vhttp://www.simplyrecipes.com/recipes/grilled_butterflied_leg_of_lamb/
p2830
(lp2831
g34
aVgarlic
p2832
aVrosemary leaf
p2833
ag222
ag1443
aVolive oil
p2834
aVkosher salt black pepper
p2835
aS'chicken legs'
p2836
atp2837
sVcb6928
p2838
(VCharred Corn Salad with Basil and Tomatoes
p2839
Vhttp://static.food2fork.com/511043003a29.jpg
p2840
Vhttp://www.epicurious.com/recipes/food/views/Charred-Corn-Salad-with-Basil-and-Tomatoes-51104300
p2841
(lp2842
g457
aVolive oil
p2843
ag34
ag32
aVbasil leaf
p2844
aVlime juice
p2845
aVthyme
p2846
aVkosher salt
p2847
atp2848
sVa26776
p2849
(VSpicy Chickpea and Bulgur Soup
p2850
Vhttp://static.food2fork.com/plenty_more_chickpea_soup_reciped169.jpg
p2851
Vhttp://www.101cookbooks.com/archives/spicy-chickpea-and-bulgur-soup-recipe.html
p2852
(lp2853
Volive oil
p2854
ag34
aVgarlic
p2855
ag196
ag197
aVharissa paste
p2856
aVcumin
p2857
aVcoriander
p2858
aVcaraway seed
p2859
ag327
aVliter+
p2860
aVcoarse bulgur wheat
p2861
aVsalt
p2862
aVblack pepper
p2863
aVcreamed feta paste
p2864
aVfeta
p2865
aVcrme frache
p2866
aVcilantro leaf
p2867
aVmint leaf
p2868
aVserve mint
p2869
atp2870
sV98b4f3
p2871
(VChicken &amp; chorizo rice pot
p2872
Vhttp://static.food2fork.com/2138647_MEDIUM885c.jpg
p2873
Vhttp://www.bbcgoodfood.com/recipes/2138647/chicken-and-chorizo-rice-pot
p2874
(lp2875
Voil
p2876
ag47
ag34
aVred pepper
p2877
aVgarlic
p2878
aVchorizo
p2879
ag32
aVthyme leaf
p2880
ag11
ag192
aVparsley
p2881
atp2882
sVe5f830
p2883
(VGrilled Greek Salad Recipe
p2884
Vhttp://static.food2fork.com/10924_RecipeImage_620x413_grilled_greek_salad73c0.jpg
p2885
Vhttp://www.chow.com/recipes/10924-grilled-greek-salad
p2886
(lp2887
g222
ag11
aVextra virgin olive oil
p2888
aVpacked oregano
p2889
aVpacked thyme leaf
p2890
ag34
aVkosher salt
p2891
aVblack pepper
p2892
aVolive oil
p2893
ag32
aVhalloumi cheese
p2894
aV-inch wooden metal skewer
p2895
aVheart romaine
p2896
aVkalamata olive
p2897
atp2898
sV47992
p2899
(VOttolenghi Soba Noodles with Aubergine and Mango
p2900
Vhttp://static.food2fork.com/ottolenghi_soba_noodlesb310.jpg
p2901
Vhttp://www.101cookbooks.com/archives/ottolenghi-soba-noodles-with-aubergine-and-mango-recipe.html
p2902
(lp2903
g192
ag554
aVsea salt
p2904
aVgarlic
p2905
aVred pepper flake red chile
p2906
aVtoasted sesame oil
p2907
aVzest juice one lime
p2908
aVsunflower oil olive oil
p2909
aVeggplant aubergine
p2910
aVsoba noodle
p2911
aVmango
p2912
aVgrilled pan-fried tofu
p2913
ag34
aVbasil leaf
p2914
aVcilantro coriander
p2915
atp2916
sVf2fb49
p2917
(VBest roast leg of lamb
p2918
Vhttp://static.food2fork.com/81_1_1350310388_lrg99cf.jpg
p2919
Vhttp://www.jamieoliver.com/recipes/lamb-recipes/best-roast-leg-of-lamb
p2920
(lp2921
Vbulb garlic
p2922
aVbunch rosemary
p2923
ag222
aVolive oil
p2924
ag2836
aVsea salt
p2925
aVblack pepper
p2926
ag114
aVmint leaf
p2927
ag554
aVsalt
p2928
aNag11
atp2929
sV1781f1
p2930
(VSpiced Spinach with Walnuts
p2931
Vhttp://static.food2fork.com/good_spinach_recipea6d9.jpg
p2932
Vhttp://www.101cookbooks.com/archives/spiced-spinach-with-walnuts-recipe.html
p2933
(lp2934
Vsunflower oil
p2935
aVsea salt
p2936
aVleek
p2937
aVchile flake
p2938
aVcumin seed
p2939
aVturmeric
p2940
aVoregano
p2941
aVmint leaf
p2942
aVmassive spinach
p2943
ag222
aVwalnut
p2944
aVcrumbled feta
p2945
atp2946
sV5760e1
p2947
(VBasic Lentil Soup Recipe
p2948
Vhttp://static.food2fork.com/29342_basic_lentil_soup_2_620d9ef.jpg
p2949
Vhttp://www.chow.com/recipes/29342-basic-lentil-soup
p2950
(lp2951
Volive oil
p2952
ag197
ag196
ag34
aVgarlic
p2953
aVkosher salt
p2954
aVblack pepper
p2955
aVquart low-sodium vegetable broth
p2956
ag32
aVlentil
p2957
aVbay leaf
p2958
aVfinely thyme leaf
p2959
ag11
aVspinach leaf
p2960
atp2961
sVc0bf94
p2962
(VCheeky chilli-pepper chutney
p2963
Vhttp://static.food2fork.com/122_1_1350895770_lrge939.jpg
p2964
Vhttp://www.jamieoliver.com/recipes/vegetables-recipes/cheeky-chilli-pepper-chutney
p2965
(lp2966
Vred chilli
p2967
aVred pepper
p2968
aVolive oil
p2969
ag34
aVsprig rosemary
p2970
aVbay leaf
p2971
aVstick cinnamon
p2972
aVsea salt
p2973
aVblack pepper
p2974
ag554
aVbalsamic vinegar
p2975
atp2976
sVa8bfe7
p2977
(VPesto chicken stew with cheesy dumplings
p2978
Vhttp://static.food2fork.com/2063663_MEDIUMf78a.jpg
p2979
Vhttp://www.bbcgoodfood.com/recipes/2063663/pesto-chicken-stew-with-cheesy-dumplings
p2980
(lp2981
Volive oil
p2982
ag47
ag395
ag34
ag197
aVleek
p2983
ag29
ag11
aVbay leaf
p2984
ag79
ag32
aVpesto
p2985
aVbunch basil
p2986
ag7
aVparmesan
p2987
ag57
atp2988
sV47248
p2989
(VPasta with Roasted Red Pepper Sauce
p2990
Vhttp://static.food2fork.com/3381261890_6e85ff6eec1483.jpg
p2991
Vhttp://thepioneerwoman.com/cooking/2009/03/pasta-with-roasted-red-pepper-sauce-groan/
p2992
(lp2993
Vred bell pepper
p2994
ag57
aVolive oil
p2995
ag34
aVgarlic
p2996
aVheavy cream
p2997
aVflat leaf parsley
p2998
aVparmesan
p2999
aVpasta orecchiette
p3000
atp3001
sV47089
p3002
(VMy Favorite Turkey Brine
p3003
Vhttp://static.food2fork.com/brine10110.jpg
p3004
Vhttp://thepioneerwoman.com/cooking/2010/10/my-favorite-turkey-brine/
p3005
(lp3006
g1443
aVgallon
p3007
aVrosemary leaf
p3008
aVgarlic
p3009
aVkosher salt
p3010
ag554
aVpeppercorn
p3011
aVbay leaf
p3012
ag215
atp3013
sV22fd73
p3014
(VRoasted Garlic and Smoky Greens Soup Recipe
p3015
Vhttp://static.food2fork.com/29390_tomato_chickpea_chard_soup_3_6208811.jpg
p3016
Vhttp://www.chow.com/recipes/29389-roasted-garlic-and-smoky-greens-soup
p3017
(lp3018
Vgarlic
p3019
aVolive oil
p3020
aVleek
p3021
aVbay leaf
p3022
aVfinely rosemary leaf
p3023
aVkosher salt
p3024
aVblack pepper
p3025
ag114
aVsmoked paprika
p3026
aVlow-sodium vegetable broth
p3027
aVkale
p3028
aNatp3029
sV8ba703
p3030
(Vroasted tomato soup with broiled cheddar
p3031
Vhttp://static.food2fork.com/6164877154_d9741c251c5a36.jpg
p3032
Vhttp://smittenkitchen.com/blog/2011/09/roasted-tomato-soup-with-broiled-cheddar/
p3033
(lp3034
g32
aVolive oil
p3035
aVgarlic
p3036
aVfinely thyme leaf
p3037
aVred pepper
p3038
ag47
ag31
ag89
ag918
atp3039
sVe80f90
p3040
(Vgnocchi in tomato broth + more book tour
p3041
Vhttp://static.food2fork.com/8382850222_6a6c8a9f363852.jpg
p3042
Vhttp://smittenkitchen.com/blog/2013/01/gnocchi-in-tomato-broth-more-book-tour/
p3043
(lp3044
Volive oil
p3045
ag196
ag197
ag34
aVgarlic
p3046
ag11
ag32
aVbasil leaf
p3047
ag47
aVsalt
p3048
aVfreshly ground black pepper
p3049
ag114
ag193
aVtable salt
p3050
ag29
atp3051
sV37810
p3052
(VSpaghetti With Bacon Meatballs
p3053
Vhttp://static.food2fork.com/meatballs_3008feba840.jpg
p3054
Vhttp://www.realsimple.com/food-recipes/browse-all-recipes/spaghetti-bacon-meatballs-00100000068418/index.html
p3055
(lp3056
g34
ag395
aVgarlic
p3057
aVflat-leaf parsley leaf
p3058
ag327
aVparmesan
p3059
ag31
ag193
aVkosher salt black pepper
p3060
ag176
atp3061
sVd4ab03
p3062
(VGrilled Zucchini & Eggplant Parmesan Recipe {Vegetarian}
p3063
Vhttp://static.food2fork.com/7386480724_46c61ced022501.jpg
p3064
Vhttp://www.cookincanuck.com/2012/06/grilled-zucchini-eggplant-parmesan-recipe-vegetarian/
p3065
(lp3066
Veggplant
p3067
aVzucchini
p3068
aVolive oil
p3069
aVkosher salt
p3070
aVblack pepper
p3071
aVmozzarella
p3072
ag32
aVbasil leaf
p3073
atp3074
sVa2b9c7
p3075
(VGrilled Quesadillas with Avocado, Zucchini &amp; Basil Recipe
p3076
Vhttp://static.food2fork.com/19543842852_9214b8f5cc_b8351.jpg
p3077
Vhttp://www.cookincanuck.com/2015/07/grilled-quesadillas-with-avocado-zucchini-basil-recipe/
p3078
(lp3079
Vzucchini
p3080
aVred bell pepper
p3081
aVolive oil
p3082
aVsalt
p3083
aVpepper
p3084
aVmozzarella cheese
p3085
aVlow-carb wheat tortilla
p3086
aVcalifornia avocado
p3087
aVleaf basil
p3088
atp3089
sVdbe90e
p3090
(VQuinoa Tabbouleh
p3091
Vhttp://static.food2fork.com/395939fed7.jpg
p3092
Vhttp://www.epicurious.com/recipes/food/views/Quinoa-Tabbouleh-395939
p3093
(lp3094
Vquinoa
p3095
aVkosher salt plus more
p3096
ag222
aVgarlic
p3097
aVextra virgin olive oil
p3098
aVblack pepper
p3099
ag528
ag32
aVflat-leaf parsley
p3100
aVmint
p3101
aVscallion
p3102
atp3103
sVa151fd
p3104
(VParmesan Chicken with Caesar Roasted Romaine
p3105
Vhttp://static.food2fork.com/394709211f.jpg
p3106
Vhttp://www.epicurious.com/recipes/food/views/Parmesan-Chicken-with-Caesar-Roasted-Romaine-394709
p3107
(lp3108
V-ounce
p3109
aVkosher salt
p3110
aVparmesan
p3111
aVpanko
p3112
aVextra virgin olive oil
p3113
aVflat-leaf parsley
p3114
aVgarlic
p3115
aVheart romaine
p3116
aVanchovy fillet packed oil
p3117
ag222
atp3118
sV0205af
p3119
(VSlow-cooked rabbit stew
p3120
Vhttp://static.food2fork.com/1660637_MEDIUM6874.jpg
p3121
Vhttp://www.bbcgoodfood.com/recipes/1660637/slowcooked-rabbit-stew
p3122
(lp3123
Vprune
p3124
aVbrandy
p3125
ag554
aVrabbit
p3126
ag29
aVvegetable oil
p3127
ag395
ag196
ag34
ag197
aVgarlic
p3128
aVthyme sprig
p3129
aVbay leaf
p3130
ag11
ag47
ag192
atp3131
sV00a6eb
p3132
(VProvencal Seafood Stew #SundaySupper
p3133
Vhttp://static.food2fork.com/205xNxSeafoodStew16e7d.jpg.pagespeed.ic._REt9624R.jpg
p3134
Vhttp://www.healthy-delicious.com/2014/01/provencal-seafood-stew-sundaysupper/
p3135
(lp3136
Volive oil
p3137
aVshallot
p3138
ag197
ag196
aVfennel bulb
p3139
ag114
aVgarlic
p3140
ag11
aVfish stock
p3141
ag32
aVdry thyme
p3142
aVbay leaf
p3143
ag215
aVsaffron thread
p3144
aVsea salt cracked black pepper
p3145
aVmixed shellfish used combination shrimp
p3146
aVparsley
p3147
aVbaguette about -inches
p3148
ag7
aVcayenne pepper
p3149
atp3150
sV49480
p3151
(VPoached Eggs in Tomato Sauce with Chickpeas and Feta
p3152
Vhttp://static.food2fork.com/PoachedEggsTomatoSauceChickpeasFeta64628dd.jpg
p3153
Vhttp://www.bonappetit.com/recipes/quick-recipes/2011/12/poached-eggs-in-tomato-sauce-with-chickpeas-and-feta
p3154
(lp3155
Volive oil
p3156
ag34
aVgarlic
p3157
aVjalape
p3158
aV-ounce chickpea
p3159
aVhungarian sweet paprika
p3160
aVcumin
p3161
ag32
aVkosher salt black pepper
p3162
aVcoarsely crumbled feta
p3163
ag193
aVflat-leaf parsley
p3164
aVcilantro
p3165
ag31
atp3166
sV1e8707
p3167
(Vchicken noodle soup
p3168
Vhttp://static.food2fork.com/8068991908_b83ed736407295.jpg
p3169
Vhttp://smittenkitchen.com/blog/2012/10/chicken-noodle-soup/
p3170
(lp3171
Vvegetable oil
p3172
ag34
ag47
aNaVbay leaf
p3173
aVtable salt
p3174
aVblack pepper
p3175
ag196
aVparsnip
p3176
ag197
ag193
aVdill flat-leaf parsley
p3177
atp3178
sV59afbc
p3179
(Vlasagna bolognese
p3180
Vhttp://static.food2fork.com/6856745143_e9c633a8bcba43.jpg
p3181
Vhttp://smittenkitchen.com/blog/2012/02/lasagna-bolognese/
p3182
(lp3183
g34
ag196
ag1277
aVgarlic
p3184
aVolive oil
p3185
aVkosher salt
p3186
aVblack pepper
p3187
aS'ground chuck'
p3188
ag32
ag11
aNaVbay leaf
p3189
aVfew sprig thyme
p3190
ag29
ag193
aVtable salt
p3191
ag7
ag318
aVnutmeg
p3192
aVparmesan cheese
p3193
atp3194
sV62020f
p3195
(VBasmati Rice with Summer Vegetable Salad
p3196
Vhttp://static.food2fork.com/39591096da.jpg
p3197
Vhttp://www.epicurious.com/recipes/food/views/Basmati-Rice-with-Summer-Vegetable-Salad-395910
p3198
(lp3199
Vshallot
p3200
aVflat-leaf parsley
p3201
ag11
aVthyme leaf
p3202
aVkosher salt
p3203
aVextra virgin olive oil
p3204
ag327
aS'radishes '
p3205
aVtorn mixed leafy green
p3206
aVred
p3207
ag57
atp3208
sVf7eaa1
p3209
(VSpring Vegetable Risotto with Poached Eggs
p3210
Vhttp://static.food2fork.com/51154950cec6.jpg
p3211
Vhttp://www.epicurious.com/recipes/food/views/Spring-Vegetable-Risotto-with-Poached-Eggs-51154950
p3212
(lp3213
Vshelled
p3214
aVkosher salt
p3215
aVdistilled white vinegar
p3216
ag193
ag47
ag7
ag168
aVolive oil
p3217
aVleek
p3218
aVfennel bulb
p3219
aVgarlic
p3220
ag192
ag11
aVbunch flat-leaf spinach
p3221
aVcrme frache sour cream
p3222
aVfinely pecorino parmesan plus more shaving
p3223
aVchive plus more serving
p3224
aVblack pepper
p3225
atp3226
sV35401
p3227
(VLasagna Soup
p3228
Vhttp://static.food2fork.com/Lasagna2BSoup2B5002B050668ba78b8.jpg
p3229
Vhttp://www.closetcooking.com/2012/01/lasagna-soup.html
p3230
(lp3231
Voil
p3232
ag408
ag34
aVgarlic
p3233
aVred pepper flake
p3234
aVfennel seed
p3235
ag47
ag32
aVoregano
p3236
aVbay leaf
p3237
aVsalt
p3238
aVpepper
p3239
aVpasta
p3240
aVricotta
p3241
aVparmesan
p3242
aVmozzarella
p3243
aVbasil
p3244
atp3245
sVa72c96
p3246
(VCauliflower Steaks with Olive Relish and Tomato Sauce
p3247
Vhttp://static.food2fork.com/3805850d57.jpg
p3248
Vhttp://www.epicurious.com/recipes/food/views/Cauliflower-Steaks-with-Olive-Relish-and-Tomato-Sauce-380585
p3249
(lp3250
Vcauliflower
p3251
aVoil-packed black olive
p3252
ag32
aVolive oil
p3253
aVflat-leaf parsley
p3254
ag222
aVkosher salt black pepper
p3255
aVgarlic
p3256
atp3257
sV48807
p3258
(VNo-Boil Mac and Cheese
p3259
Vhttp://static.food2fork.com/noboilmacandcheese6468ce4.jpg
p3260
Vhttp://www.bonappetit.com/recipes/quick-recipes/2013/01/no-boil-mac-and-cheese
p3261
(lp3262
g7
ag29
ag318
aVkosher salt plus more
p3263
aVblack pepper plus more
p3264
ag176
ag918
aVgarlic
p3265
aVpanko
p3266
aVflat-leaf parsley
p3267
atp3268
sVb0d7fd
p3269
(VSavory Spring Vegetable and Goat Cheese Tart
p3270
Vhttp://static.food2fork.com/39544264ae.jpg
p3271
Vhttp://www.epicurious.com/recipes/food/views/Savory-Spring-Vegetable-and-Goat-Cheese-Tart-395442
p3272
(lp3273
Vstore-bought pie crust
p3274
ag29
aVbunch asparagus
p3275
ag34
aVolive oil
p3276
aVkosher salt black pepper
p3277
ag7
aVsoft goat cheese
p3278
aVcrme frache
p3279
aVheavy cream
p3280
aVflat-leaf parsley
p3281
aVchive
p3282
aVtarragon
p3283
ag193
aVtart pan with removable bottom
p3284
atp3285
sV833558
p3286
(VChicken &amp; couscous one-pot
p3287
Vhttp://static.food2fork.com/10760_MEDIUM8792.jpg
p3288
Vhttp://www.bbcgoodfood.com/recipes/10760/chicken-and-couscous-onepot
p3289
(lp3290
Vskin
p3291
aVturmeric
p3292
aVgaram masala
p3293
aVsunflower oil
p3294
ag34
aVgarlic
p3295
ag47
aVgreen olive
p3296
aVzest
p3297
aVjuice lemon
p3298
aVcouscous
p3299
aVbunch flat-leaf parsley
p3300
atp3301
sVce0b94
p3302
(VBaked Fish Marsala Recipe with Mushrooms {Barramundi}
p3303
Vhttp://static.food2fork.com/BarramundiMarsala7096.jpg
p3304
Vhttp://www.cookincanuck.com/2014/04/baked-fish-marsala-recipe-mushrooms-barramundi/
p3305
(lp3306
Voz. barramundi fillet
p3307
aVsalt
p3308
aVpepper
p3309
aVolive oil
p3310
ag168
aVshallot
p3311
aVgarlic
p3312
ag29
ag47
ag11
aVflat-leaf parsley
p3313
atp3314
sV859525
p3315
(VSpaghetti with crab, cherry tomatoes &amp; basil
p3316
Vhttp://static.food2fork.com/1364638_MEDIUMea08.jpg
p3317
Vhttp://www.bbcgoodfood.com/recipes/1364638/spaghetti-with-crab-cherry-tomatoes-and-basil
p3318
(lp3319
Vextra virgin olive oil
p3320
aVgarlic
p3321
aVchilli flake
p3322
ag32
aVzest
p3323
aVjuice lemon
p3324
aVwhite crab meat
p3325
ag176
aVcaper
p3326
aVbasil leaf
p3327
atp3328
sVa95078
p3329
(Vlentil soup with sausage, chard and garlic
p3330
Vhttp://static.food2fork.com/8403826646_99ae90494eac6e.jpg
p3331
Vhttp://smittenkitchen.com/blog/2013/01/lentil-soup-with-sausage-chard-and-garlic/
p3332
(lp3333
Volive oil
p3334
ag408
ag34
ag197
ag196
aVgarlic
p3335
aVkosher salt
p3336
aVred pepper flake
p3337
aVbrown lentil
p3338
aVbay leaf
p3339
ag32
aNaVblack pepper
p3340
aVthinly ribboned swiss chard leaf kale
p3341
aVpecorino romano cheese finish
p3342
atp3343
sV48979
p3344
(VSquash and Broccoli Rabe Lasagna
p3345
Vhttp://static.food2fork.com/squashandbroccolirabelasagna646e0f9.jpg
p3346
Vhttp://www.bonappetit.com/recipes/2012/10/squash-and-broccoli-rabe-lasagna
p3347
(lp3348
V-lb butternut squash
p3349
aVolive oil plus more
p3350
aVkosher salt
p3351
aS'broccoli'
p3352
aVred pepper flake
p3353
aVmozzarella
p3354
aVwhole-milk ricotta
p3355
aVfinely parmesan
p3356
ag222
ag408
aVrosemary
p3357
ag7
ag29
aVhalf-and-half
p3358
aVnutmeg
p3359
aVbay leaf
p3360
aVlasagna noodle
p3361
atp3362
sV30cae9
p3363
(VRsti with Fried Eggs
p3364
Vhttp://static.food2fork.com/511442002446.jpg
p3365
Vhttp://www.epicurious.com/recipes/food/views/Rosti-with-Fried-Eggs-51144200
p3366
(lp3367
g114
aVkosher salt
p3368
ag7
aVblack pepper
p3369
aVraclette gruyre cheese
p3370
ag193
aVflat-leaf parsley
p3371
atp3372
sV35414
p3373
(VMarinated Roasted Red Pepper Grilled Cheese Sandwich
p3374
Vhttp://static.food2fork.com/Marinated2BRoasted2BRed2BPepper2Band2BGoat2BCheese2BGrilled2BCheese2BSandwich2B5002B4422f65e8646.jpg
p3375
Vhttp://www.closetcooking.com/2011/04/marinated-roasted-red-pepper-grilled.html
p3376
(lp3377
g31
aVolive oil
p3378
aVmarinated roasted red pepper
p3379
aVmozzarella
p3380
aVleaf basil
p3381
atp3382
sV902fe6
p3383
(VChicken with Herb-Roasted Tomatoes and Pan Sauce
p3384
Vhttp://static.food2fork.com/51108240aad7.jpg
p3385
Vhttp://www.epicurious.com/recipes/food/views/Chicken-with-Herb-Roasted-Tomatoes-and-Pan-Sauce-51108240
p3386
(lp3387
g32
aVolive oil
p3388
aVherbes provence
p3389
aVkosher salt plus more
p3390
aVblack pepper
p3391
aVworcestershire sauce
p3392
aNaVshallot
p3393
ag11
aVflat-leaf parsley leaf
p3394
aVtarragon leaf
p3395
atp3396
sV24062
p3397
(VNo-Cream Pasta Primavera
p3398
Vhttp://static.food2fork.com/5297223b4.jpg
p3399
Vhttp://allrecipes.com/Recipe/No-Cream-Pasta-Primavera/Detail.aspx
p3400
(lp3401
Vpenne pasta
p3402
aVyellow squash
p3403
aVzucchini
p3404
ag196
aVred bell pepper
p3405
ag508
ag204
aVspear asparagus
p3406
aVolive oil
p3407
aVsalt
p3408
aVcoarsely black pepper
p3409
ag222
aVitalian seasoning
p3410
ag7
ag34
aVgarlic
p3411
aVbasil leaf
p3412
aVparsley
p3413
aVbalsamic vinegar
p3414
aVromano cheese
p3415
atp3416
sVb892a8
p3417
(VBaked Chicken Meatballs with Peperonata
p3418
Vhttp://static.food2fork.com/3544718d64.jpg
p3419
Vhttp://www.epicurious.com/recipes/food/views/Baked-Chicken-Meatballs-with-Peperonata-354471
p3420
(lp3421
Vred bell pepper
p3422
aVextra virgin olive oil
p3423
aVdrained caper
p3424
aVred-wine vinegar
p3425
aVred pepper flake
p3426
ag31
ag318
aVsliced pancetta
p3427
ag34
aVgarlic
p3428
ag193
ag47
aVfinely flat-leaf parsley
p3429
ag32
atp3430
sV852c24
p3431
(VSlow Cooker Split Pea Soup Recipe
p3432
Vhttp://static.food2fork.com/29348_slow_cooker_split_pea_2_6201981.jpg
p3433
Vhttp://www.chow.com/recipes/29348-slow-cooker-split-pea-soup
p3434
(lp3435
g79
ag196
ag197
ag34
aVgarlic
p3436
aVitalian parsley sprig
p3437
aVbay leaf
p3438
ag2447
ag47
aNaVkosher salt
p3439
aVblack pepper
p3440
atp3441
sV40063
p3442
(VChicken Sauted With Apples
p3443
Vhttp://static.food2fork.com/chickenapple_30000113c12.jpg
p3444
Vhttp://www.realsimple.com/food-recipes/browse-all-recipes/chicken-sauteed-apples-10000001116466/index.html
p3445
(lp3446
NaVolive oil
p3447
ag1443
ag34
aVgarlic
p3448
aVthyme leaf
p3449
aVkosher salt black pepper
p3450
atp3451
sV54401
p3452
(VCrispy Gnocchi with Basil Pesto
p3453
Vhttp://static.food2fork.com/crispygnocchiwithpesto122d3.jpg
p3454
Vhttp://www.twopeasandtheirpod.com/crispy-gnocchi-with-basil-pesto/
p3455
(lp3456
NaVbasil leaf
p3457
aVparmesan-reggiano cheese
p3458
aVextra virgin olive oil
p3459
ag57
aVgarlic
p3460
aVsalt
p3461
aVfreshly ground black pepper
p3462
aVolive oil
p3463
ag114
aVparmesan cheese
p3464
atp3465
sVd4be20
p3466
(VMini Caprese Bites
p3467
Vhttp://static.food2fork.com/ixMF7P9MMb12b.jpg
p3468
Vhttp://www.framedcooks.com/2011/09/mini-caprese-bites-2.html
p3469
(lp3470
g32
aVmozzarella
p3471
aVextra virgin olive oil
p3472
aVbalsamic vinegar
p3473
aVkosher salt
p3474
aVpepper
p3475
aVbasil leaf
p3476
aVkosher salt pepper
p3477
aVdirection thread basil leaf
p3478
atp3479
sV1ef4aa
p3480
(VPaleo Dirty Rice
p3481
Vhttp://static.food2fork.com/dirtyricepaleoglutenfreerecipeed62.jpg
p3482
Vhttp://www.elanaspantry.com/paleo-dirty-rice/
p3483
(lp3484
Volive oil
p3485
aVgarlic
p3486
ag34
ag197
aVgreen pepper
p3487
aVred pepper
p3488
aVbunch scallion
p3489
aVcauliflower
p3490
aVthyme
p3491
aVbay leaf
p3492
aVchili powder
p3493
aVcumin
p3494
ag47
atp3495
sV757eca
p3496
(VAll Recipes
p3497
Vhttp://static.food2fork.com/bestvegetarianchili1270x372475e.jpg
p3498
Vhttp://cookieandkate.com/2015/vegetarian-chili-recipe/
p3499
(lp3500
Volive oil
p3501
ag34
aVred bell pepper
p3502
ag196
ag1277
aVsalt
p3503
aVgarlic
p3504
aVchili powder
p3505
aVcumin
p3506
aVsmoked paprika
p3507
aVoregano
p3508
aVdiced tomatoes*
p3509
ag204
aVvegetable broth
p3510
aVbay leaf
p3511
aVcilantro
p3512
ag11
aVgarnish cilantro
p3513
atp3514
sV8847
p3515
(VCioppino
p3516
Vhttp://static.food2fork.com/164664a99.jpg
p3517
Vhttp://allrecipes.com/Recipe/Cioppino/Detail.aspx
p3518
(lp3519
g7
ag34
aVgarlic
p3520
aVbunch parsley
p3521
ag32
ag47
aVbay leaf
p3522
aVbasil
p3523
aVthyme
p3524
aVoregano
p3525
aNag11
aVshrimp peeled deveined
p3526
aVbay scallop
p3527
aVclam
p3528
aVmussel
p3529
aVcrabmeat
p3530
aVcod fillet
p3531
atp3532
sV0c6894
p3533
(VFive Herb Pesto
p3534
Vhttp://static.food2fork.com/five_herb_pesto_recipef87e.jpg
p3535
Vhttp://www.101cookbooks.com/archives/five-herb-pesto-recipe.html
p3536
(lp3537
Vcoriander seed
p3538
aVsea salt
p3539
aVgarlic
p3540
aVsliced almond
p3541
ag222
aVbasil leaf
p3542
aVarugula leaf
p3543
aVoregano leaf
p3544
aVchive
p3545
aVpecorino cheese
p3546
aVextra virgin olive oil
p3547
atp3548
sVfe3e7a
p3549
(VSmoked salmon &amp; lemon risotto
p3550
Vhttp://static.food2fork.com/5965_MEDIUM95ac.jpg
p3551
Vhttp://www.bbcgoodfood.com/recipes/5965/smoked-salmon-and-lemon-risotto
p3552
(lp3553
g34
aVolive oil
p3554
ag192
aVgarlic
p3555
aVboiling vegetable stock
p3556
aVpack smoked salmon
p3557
aVmascarpone lite
p3558
aVflat-leaf parsley
p3559
ag222
aVrocket
p3560
atp3561
sV47727
p3562
(VTarragon Oil
p3563
Vhttp://static.food2fork.com/tarragon_oil_recipe09da.jpg
p3564
Vhttp://www.101cookbooks.com/archives/tarragon-oil-recipe.html
p3565
(lp3566
Vtarragon leaf
p3567
aVflat-leaf parsley leaf
p3568
aVextra virgin olive oil
p3569
aVsea salt
p3570
atp3571
sV811e02
p3572
(VFettuccine with Pesto, Asparagus, and Artichoke  Recipe
p3573
Vhttp://static.food2fork.com/29517_fettuccine_pesto_asparagus_2_6202352.jpg
p3574
Vhttp://www.chow.com/recipes/29517-fettuccine-with-pesto-asparagus-and-artichoke
p3575
(lp3576
g57
aVkosher salt
p3577
aVblack pepper
p3578
aVgarlic
p3579
aVpacked basil leaf
p3580
aVpacked italian parsley leaf
p3581
aVextra virgin olive oil
p3582
aVfinely parmesan cheese
p3583
ag222
aVartichoke
p3584
aVthick asparagus spear
p3585
aVolive oil
p3586
aVfettuccine linguine
p3587
atp3588
sV49640
p3589
(VRed Wine-Braised Short Ribs
p3590
Vhttp://static.food2fork.com/Red_Wine_Braised_Short_Ribs_646a119.jpg
p3591
Vhttp://www.bonappetit.com/recipes/2011/10/red-wine-braised-short-ribs
p3592
(lp3593
g327
aVkosher salt black pepper
p3594
aVvegetable oil
p3595
ag34
ag196
ag197
ag29
ag32
ag11
aVsprig flat-leaf parsley
p3596
aVsprig thyme
p3597
aVsprig oregano
p3598
aVsprig rosemary
p3599
aVbay leaf
p3600
aVgarlic
p3601
atp3602
sV40165
p3603
(VMatt Romeros Eggplant Sandwiches
p3604
Vhttp://static.food2fork.com/eggplant_3009961a778.jpg
p3605
Vhttp://www.realsimple.com/food-recipes/browse-all-recipes/eggplant-sandwiches-00000000036009/index.html
p3606
(lp3607
g29
ag193
ag31
aVeggplant
p3608
aVcanola oil
p3609
aVkosher salt
p3610
ag2125
ag32
aVbasil leaf
p3611
atp3612
sV20872
p3613
(VPesto Sauce
p3614
Vhttp://static.food2fork.com/409147069d.jpg
p3615
Vhttp://allrecipes.com/Recipe/Pesto-Sauce/Detail.aspx
p3616
(lp3617
Vbasil leaf
p3618
aVwalnut
p3619
aVgarlic
p3620
aVparmesan cheese
p3621
aVolive oil
p3622
aVsalt
p3623
aVpepper
p3624
atp3625
sV19886
p3626
(VMarie's Lentil Soup
p3627
Vhttp://static.food2fork.com/1997443c50.jpg
p3628
Vhttp://allrecipes.com/Recipe/Lentil-Soup/Detail.aspx
p3629
(lp3630
g34
aVolive oil
p3631
ag196
ag197
aVgarlic
p3632
aVoregano
p3633
aVbay leaf
p3634
aVbasil
p3635
ag32
aVdry lentil
p3636
aNaVspinach
p3637
aVvinegar
p3638
aVsalt
p3639
aVblack pepper
p3640
atp3641
sVd7b533
p3642
(VChicken casserole with herby dumplings
p3643
Vhttp://static.food2fork.com/2988675_MEDIUM11a0.jpg
p3644
Vhttp://www.bbcgoodfood.com/recipes/2988675/chicken-casserole-with-herby-dumplings
p3645
(lp3646
g47
ag29
aVsunflower oil
p3647
ag34
ag196
ag395
aVbay leaf
p3648
aVsprig thyme
p3649
ag11
ag32
ag7
aVmixed herb try parsley
p3650
atp3651
sV1d777b
p3652
(VMoroccan chicken one-pot
p3653
Vhttp://static.food2fork.com/2468641_MEDIUMef2c.jpg
p3654
Vhttp://www.bbcgoodfood.com/recipes/2468641/moroccan-chicken-onepot
p3655
(lp3656
NaVolive oil
p3657
ag34
ag32
aVginger
p3658
aVgarlic
p3659
aVturmeric
p3660
ag79
aVbutternut squash
p3661
ag47
ag554
ag11
aVcherry
p3662
ag222
aVmint leaf
p3663
aVfeta cheese
p3664
aVcouscous
p3665
aVnatural yogurt
p3666
atp3667
sV009b05
p3668
(VRoasted marmalade ham
p3669
Vhttp://static.food2fork.com/468_1_1350906203_lrgff4e.jpg
p3670
Vhttp://www.jamieoliver.com/recipes/pork-recipes/roasted-marmalade-ham
p3671
(lp3672
g991
ag196
ag197
aVbay leaf
p3673
aVblack peppercorn
p3674
aVpiece leek
p3675
aVsprig thyme
p3676
ag215
aVsea salt
p3677
aVblack pepper
p3678
aVthin-rind marmalade
p3679
aVrosemary
p3680
atp3681
sV49436
p3682
(VCauliflower Steaks with Olive Relish and Tomato Sauce
p3683
Vhttp://static.food2fork.com/cauliflowersteakswitholiverelishandtomatosauce6467105.jpg
p3684
Vhttp://www.bonappetit.com/recipes/quick-recipes/2012/01/cauliflower-steaks-with-olive-relish-and-tomato-sauce-2
p3685
(lp3686
Vcauliflower
p3687
aVoil-packed black olive
p3688
ag32
aVolive oil
p3689
aVflat-leaf parsley
p3690
ag222
aVkosher salt black pepper
p3691
aVgarlic
p3692
atp3693
sVfd192f
p3694
(VGreek Quinoa &amp; Hummus Stuffed Tomatoes
p3695
Vhttp://static.food2fork.com/GreekHummusStuffedTomatoes300x30021f0.jpg
p3696
Vhttp://www.cookincanuck.com/2015/05/greek-quinoa-hummus-stuffed-tomatoes-recipe/
p3697
(lp3698
Vquinoa
p3699
aNaVoregano
p3700
aVsabra olive tapenade hummus
p3701
ag528
aVdiced red bell pepper
p3702
aVcrumbled feta cheese
p3703
aVflat-leaf parsley
p3704
aVsalt
p3705
aVpepper
p3706
ag32
atp3707
sV7cfacb
p3708
(VGordon's Christmas roast goose
p3709
Vhttp://static.food2fork.com/2428_MEDIUM42c8.jpg
p3710
Vhttp://www.bbcgoodfood.com/recipes/2428/gordons-christmas-roast-goose-
p3711
(lp3712
Vgoose
p3713
ag222
aVlime
p3714
aVchinese five-spice powder
p3715
ag79
aVlittle olive oil
p3716
aVclear honey
p3717
aVthyme leaf
p3718
atp3719
sV32bab1
p3720
(VBaked Tomatoes
p3721
Vhttp://static.food2fork.com/395749bc1a.jpg
p3722
Vhttp://www.epicurious.com/recipes/food/views/Baked-Tomatoes-395749
p3723
(lp3724
g31
aVsprig flat-leaf italian parsley
p3725
aVgarlic
p3726
aVcaper
p3727
aVsalt
p3728
aVextra virgin olive oil
p3729
ag32
atp3730
sVa6f6dd
p3731
(VVinegar-Braised Chicken and Onions
p3732
Vhttp://static.food2fork.com/51143420c31b.jpg
p3733
Vhttp://www.epicurious.com/recipes/food/views/Vinegar-Braised-Chicken-and-Onions-51143420
p3734
(lp3735
g34
aVkosher salt
p3736
aVolive oil
p3737
aVpancetta
p3738
aVgarlic
p3739
ag47
aVblack pepper
p3740
aVbalsamic vinegar
p3741
ag11
aVgolden raisin
p3742
aVbay leaf
p3743
atp3744
sVcb1716
p3745
(VChilled California Avocado Soup with Coconut Milk Recipe
p3746
Vhttp://static.food2fork.com/7405082470_b80bfe3917b144.jpg
p3747
Vhttp://www.cookincanuck.com/2012/06/chilled-california-avocado-soup-with-coconut-milk-recipe/
p3748
(lp3749
Volive oil
p3750
ag34
aVjalapeno pepper
p3751
aVgarlic
p3752
aVmint leaf
p3753
aVcalifornia avocado
p3754
aVkosher salt
p3755
aVblack pepper
p3756
aVvegetable broth
p3757
ag318
ag32
atp3758
sVe5173a
p3759
(VWatermelon, Goat Cheese &amp; Basil Phyllo Bites Recipe
p3760
Vhttp://static.food2fork.com/19873136276_a751035431_b2b5f.jpg
p3761
Vhttp://www.cookincanuck.com/2015/07/watermelon-goat-cheese-basil-phyllo-bites-recipe/
p3762
(lp3763
Vdiced watermelon
p3764
aVolive oil
p3765
aVbalsamic vinegar
p3766
aVagave nectar honey
p3767
aVsalt
p3768
aVleaf basil
p3769
aVmini phyllo shell
p3770
aVgoat cheese
p3771
atp3772
sV1e6a41
p3773
(VAll Recipes
p3774
Vhttp://static.food2fork.com/roastedredpeppersoup13b0aa.jpg
p3775
Vhttp://cookieandkate.com/2014/roasted-red-pepper-tortilla-soup/
p3776
(lp3777
Vred bell pepper around
p3778
aVgarlic
p3779
aVolive oil
p3780
ag34
ag32
aVcumin
p3781
aVsmoked paprika
p3782
aVsalt
p3783
aVcayenne pepper optional
p3784
aVvegetable stock with pepper
p3785
aNaVarrowroot starch cornstarch
p3786
ag415
aVavocado
p3787
aVcilantro leaf
p3788
aVfeta
p3789
aVblack pepper
p3790
atp3791
sVeb6139
p3792
(VPanzanella
p3793
Vhttp://static.food2fork.com/panzanellacf17.jpg
p3794
Vhttp://thepioneerwoman.com/cooking/2014/07/panzanella/
p3795
(lp3796
g31
ag528
ag32
ag34
ag991
ag11
aVsalt
p3797
aVpepper
p3798
aVbasil leaf
p3799
aVparmesan shaving
p3800
aVolive oil
p3801
atp3802
sVf66803
p3803
(VChicken Mozzarella Pasta
p3804
Vhttp://static.food2fork.com/DSC_6505a2ad.jpg
p3805
Vhttp://thepioneerwoman.com/cooking/2014/02/chicken-mozzarella-pasta/
p3806
(lp3807
Vpenne rigatoni
p3808
aVolive oil
p3809
aNaVsalt
p3810
aVpepper
p3811
ag34
aVgarlic
p3812
aVgood quality marinara sauce
p3813
aVred pepper flake
p3814
aVparsley
p3815
aVparmesan shaving
p3816
aVextra parmesan
p3817
aVbasil leaf
p3818
atp3819
sV732db5
p3820
(VLemon Quinoa Salad with Pistachios & Sun-Dried Tomatoes
p3821
Vhttp://static.food2fork.com/LemonQuinoaPistachio47a5.jpg
p3822
Vhttp://www.cookincanuck.com/2013/10/lemon-quinoa-salad-with-pistachios-sun-dried-tomatoes/
p3823
(lp3824
Vquinoa
p3825
aNag32
aVshelled pistachio
p3826
aVflat-leaf parsley
p3827
ag222
aVextra virgin olive oil
p3828
aVagave nectar honey
p3829
aVsalt
p3830
aVpepper
p3831
atp3832
sV47858
p3833
(VNa
p3834
Vhttp://static.food2fork.com/fattoush_recipe8cb5.jpg
p3835
Vhttp://www.101cookbooks.com/archives/naamas-fattoush-recipe.html
p3836
(lp3837
g191
ag318
aVstale turkish flatbread naan
p3838
ag32
ag3205
ag528
aVinto -inch
p3839
ag34
aVmint
p3840
aVscant flat-leaf parsley
p3841
aVgarlic
p3842
ag222
aVolive oil
p3843
ag11
aVblack pepper
p3844
aVsea salt
p3845
aVsumac more
p3846
atp3847
sVf6cbbb
p3848
(VHoney mustard chicken pot with parsnips
p3849
Vhttp://static.food2fork.com/9582_MEDIUM7db0.jpg
p3850
Vhttp://www.bbcgoodfood.com/recipes/9582/honey-mustard-chicken-pot-with-parsnips
p3851
(lp3852
Volive oil
p3853
ag47
ag34
aVparsnip
p3854
aVvegetable stock
p3855
aVwholegrain mustard
p3856
aVclear honey
p3857
aVfew thyme sprig
p3858
aVflat-leaf parsley
p3859
atp3860
sVa536f7
p3861
(VGrated Cauliflower Salad with Ginger Lime Dressing
p3862
Vhttp://static.food2fork.com/GratedCauliflowerLimeGingerDressing300x300262e.jpg
p3863
Vhttp://www.cookincanuck.com/2015/02/grated-cauliflower-salad-with-ginger-lime-dressing/
p3864
(lp3865
Vcauliflower
p3866
ag196
aVfinely diced red bell pepper
p3867
aVfinely diced zucchini
p3868
aVflat-leaf parsley
p3869
aVextra virgin olive oil
p3870
aVlime juice
p3871
aVagave nectar
p3872
aVginger
p3873
aVjalapeo pepper
p3874
aVsalt
p3875
aVpepper
p3876
atp3877
sV1ae448
p3878
(VFresh Green Beans with Bacon, Mushrooms & Herbs
p3879
Vhttp://static.food2fork.com/8183717771_c5466668a37075.jpg
p3880
Vhttp://www.cookincanuck.com/2012/11/fresh-green-beans-bacon-mushrooms-recipe/
p3881
(lp3882
g204
ag395
aVshallot
p3883
ag168
aVolive oil
p3884
aVparsley
p3885
aVthyme leaf
p3886
ag408
aVkosher salt
p3887
aVblack pepper
p3888
atp3889
sV73b4c7
p3890
(VMoroccan lamb stew
p3891
Vhttp://static.food2fork.com/345_1_1349685241_lrg32ca.jpg
p3892
Vhttp://www.jamieoliver.com/recipes/lamb-recipes/moroccan-lamb-stew
p3893
(lp3894
Vcumin seed
p3895
aVcoriander seed
p3896
aVfennel seed
p3897
aVchilli
p3898
aVbunch rosemary
p3899
aVthumb-sized piece ginger
p3900
aVsea salt
p3901
aVblack pepper
p3902
aVextra virgin olive oil
p3903
ag692
ag114
ag34
aVgarlic
p3904
ag32
aVstick cinnamon
p3905
aVbay leaf
p3906
aVapricot
p3907
aVboiling
p3908
aVcouscous
p3909
ag11
aVbunch coriander
p3910
aVfat-free natural yoghurt
p3911
atp3912
sVf4b0cb
p3913
(VAll Recipes
p3914
Vhttp://static.food2fork.com/bakedfalafelrecipe8550x8212f7d.jpg
p3915
Vhttp://cookieandkate.com/2012/baked-falafel/
p3916
(lp3917
Volive oil
p3918
ag327
ag34
aVparsley leaf
p3919
aVcilantro leaf
p3920
aVgarlic
p3921
aVcumin
p3922
aVcinnamon
p3923
aVsea salt kosher salt
p3924
aVblack pepper
p3925
atp3926
sVd14dbf
p3927
(Vchard and white bean stew
p3928
Vhttp://static.food2fork.com/5321484306_28e05f9a3b1875.jpg
p3929
Vhttp://smittenkitchen.com/blog/2011/01/chard-and-white-bean-stew/
p3930
(lp3931
Vswiss chard also swap kale
p3932
aVolive oil
p3933
ag196
ag197
aVshallot
p3934
aVgarlic
p3935
ag11
ag204
aVvegetable broth
p3936
ag32
aVsalt
p3937
aVfreshly ground black pepper
p3938
aVthyme sprig
p3939
aVbay leaf
p3940
aVsherry vinegar
p3941
atp3942
sVa75af6
p3943
(VThanksgiving Turkey Cake Recipe
p3944
Vhttp://static.food2fork.com/29029_turkey_cake_6207013.jpg
p3945
Vhttp://www.chow.com/recipes/29029-thanksgiving-turkey-cake
p3946
(lp3947
g7
ag1048
aVquick-cooking oat
p3948
aVparmesan cheese
p3949
aVketchup
p3950
ag34
aVfinely italian parsley leaf
p3951
aVworcestershire sauce
p3952
aVsoy sauce
p3953
aVthyme leaf
p3954
ag408
aVblack pepper
p3955
aVgarlic
p3956
ag114
ag318
ag554
aVkosher salt
p3957
aVmace nutmeg
p3958
aVmini marshmallow
p3959
atp3960
sVc8da0f
p3961
(Vmediterranean baked feta with tomatoes
p3962
Vhttp://static.food2fork.com/7840702178_173884075ab83e.jpg
p3963
Vhttp://smittenkitchen.com/blog/2012/08/mediterranean-baked-feta-with-tomatoes/
p3964
(lp3965
g32
aNaVgarlic
p3966
ag34
aVfinely-chopped flat-leaf parsley
p3967
aVoregano
p3968
aVolive oil
p3969
aVblack pepper
p3970
aV-ounce block feta
p3971
aS'crackers'
p3972
atp3973
sV72b297
p3974
(VBraised Chicken with Artichokes and Olives
p3975
Vhttp://static.food2fork.com/51150800433f.jpg
p3976
Vhttp://www.epicurious.com/recipes/food/views/Braised-Chicken-with-Artichokes-and-Olives-51150800
p3977
(lp3978
Vorganic
p3979
aVsea salt
p3980
aVblack pepper
p3981
aVextra virgin olive oil
p3982
ag34
aVgarlic
p3983
aVturmeric
p3984
aVcumin
p3985
aVcoriander
p3986
aVgenerous red pepper flake
p3987
aVcinnamon stick
p3988
aVbay leaf
p3989
ag47
ag222
aVcanned chickpea
p3990
aVthawed jarred artichoke heart
p3991
aVgreen olive
p3992
aVmint cilantro
p3993
atp3994
sV89a3b7
p3995
(VKale Dressing
p3996
Vhttp://static.food2fork.com/511242904791.jpg
p3997
Vhttp://www.epicurious.com/recipes/food/views/Kale-Dressing-51124290
p3998
(lp3999
g31
aVextra virgin olive oil
p4000
aVfennel seed
p4001
ag7
aVsprig rosemary
p4002
aVchile rbol
p4003
aVfennel
p4004
ag34
aVthyme leaf
p4005
aVgarlic
p4006
aVkosher salt black pepper
p4007
ag11
ag47
ag193
atp4008
sVcb16ba
p4009
(VCeleriac, pancetta &amp; thyme soup
p4010
Vhttp://static.food2fork.com/2530639_MEDIUM7ec6.jpg
p4011
Vhttp://www.bbcgoodfood.com/recipes/2530639/celeriac-pancetta-and-thyme-soup
p4012
(lp4013
Vsplash olive oil
p4014
aVsliced pancetta
p4015
ag7
ag34
aVbay leaf
p4016
aVbunch thyme
p4017
aVceleriac
p4018
ag47
aVdouble cream
p4019
atp4020
sV35944
p4021
(VChicken Marbella
p4022
Vhttp://static.food2fork.com/chickenmarbellaa300x200094602ca.jpg
p4023
Vhttp://www.simplyrecipes.com/recipes/chicken_marbella/
p4024
(lp4025
g47
aVgarlic
p4026
aVoregano
p4027
aVcoarse salt pepper
p4028
ag11
aVolive oil
p4029
aVprune
p4030
aVspanish green olive
p4031
aVcaper with bit juice
p4032
aVbay leaf
p4033
ag554
aVitalian parsley
p4034
atp4035
sVc6c82c
p4036
(VSpicy Sauted Spinach
p4037
Vhttp://static.food2fork.com/51155440a371.jpg
p4038
Vhttp://www.epicurious.com/recipes/food/views/Spicy-Sauteed-Spinach-51155440
p4039
(lp4040
Vghee vegetable oil
p4041
aVbunch scallion
p4042
aVchile rbol red pepper flake
p4043
aVgarlic
p4044
aVyellow mustard seed
p4045
aVbunch flat-leaf spinach
p4046
aVkosher salt
p4047
atp4048
sVd1137a
p4049
(VMediterranean-style herring linguine
p4050
Vhttp://static.food2fork.com/334_1_1349862628_lrg68b4.jpg
p4051
Vhttp://www.jamieoliver.com/recipes/pasta-recipes/mediterranean-style-herring-linguine
p4052
(lp4053
Vlinguine
p4054
aVsea salt
p4055
aVblack pepper
p4056
aVolive oil
p4057
aVgarlic
p4058
aVred chilli
p4059
aVcaper
p4060
aVbunch flat-leaf parsley
p4061
aVherring fillet
p4062
aNag32
ag222
ag7
atp4063
sV54273
p4064
(VItalian Sausage Tortellini Soup
p4065
Vhttp://static.food2fork.com/ItalianSausageTortelliniSoup2726a.jpg
p4066
Vhttp://www.twopeasandtheirpod.com/italian-sausage-tortellini-soup/
p4067
(lp4068
g408
aVolive oil
p4069
ag34
aVgarlic
p4070
aVred bell pepper
p4071
aVbay leaf
p4072
aVred pepper flake
p4073
ag47
ag32
aVkale
p4074
aVcheese tortellini
p4075
aVbasil
p4076
aVsalt
p4077
aVblack pepper
p4078
atp4079
sV6bf0af
p4080
(VVeggie Chili
p4081
Vhttp://static.food2fork.com/veggiechilicebc.jpg
p4082
Vhttp://thepioneerwoman.com/cooking/2015/02/veggie-chili/
p4083
(lp4084
Volive oil
p4085
aVgarlic
p4086
ag34
aVred bell pepper
p4087
aVyellow bell pepper
p4088
aVgreen bell pepper
p4089
ag196
ag197
aVjalapeno
p4090
aVvegetable broth
p4091
ag32
aVro-tel
p4092
aVsalt
p4093
aVoregano
p4094
aVcumin
p4095
aVchili powder
p4096
ag204
aVzucchini
p4097
aVmasa regular cornmeal
p4098
aNaVcotija cheese
p4099
aVpico gallo
p4100
aVcilantro leaf
p4101
atp4102
s.