(dp0
V7846a3
p1
(VShort Rib Sandwiches
p2
Vhttp://static.food2fork.com/shortribaa2c.jpg
p3
Vhttp://thepioneerwoman.com/cooking/2014/03/short-rib-sandwiches/
p4
(lp5
S'uncooked beef roasts'
p6
aVsalt
p7
aVpepper
p8
aVolive oil
p9
aS'onions'
p10
aS'carrots'
p11
aVgarlic
p12
aS'wine'
p13
aVbaguette loaf
p14
atp15
sV27381
p16
(VSalisbury Steak
p17
Vhttp://static.food2fork.com/3760476bc7.jpg
p18
Vhttp://allrecipes.com/Recipe/Salisbury-Steak/Detail.aspx
p19
(lp20
g10
ag6
aS'bread'
p21
aS'eggs'
p22
aVsalt
p23
aVblack pepper
p24
aS'flour'
p25
aVketchup
p26
aNaVworcestershire sauce
p27
aVmustard powder
p28
atp29
sV35786
p30
(VBeef Wellington
p31
Vhttp://static.food2fork.com/beefwellington300x2001764a43a.jpg
p32
Vhttp://www.simplyrecipes.com/recipes/beef_wellington/
p33
(lp34
g6
aVsalt
p35
aVpepper
p36
aVcanola
p37
aS'mushrooms '
p38
aS'ham'
p39
aVyellow mustard used coleman original english mustard
p40
aVpuff pastry
p41
ag22
atp42
sVac25f2
p43
(VAll Recipes
p44
Vhttp://static.food2fork.com/sweetpotatokalefarrosoupe73c.jpg
p45
Vhttp://cookieandkate.com/2012/sweet-potato-kale-and-chickpea-soup/
p46
(lp47
Vextra virgin olive oil
p48
ag10
aS'potatoes'
p49
aVsalt
p50
aVthai red curry paste*
p51
ag6
aVvegetable broth
p52
aVroasted red pepper
p53
aVbunch crinkly purple kale green kale
p54
aVcayenne pepper optional
p55
atp56
sV35626
p57
(VTaco Quesadilla Pizzas
p58
Vhttp://static.food2fork.com/Taco2BQuesadilla2BPizza2B5002B4417a4755e35.jpg
p59
Vhttp://www.closetcooking.com/2012/08/taco-quesadilla-pizza.html
p60
(lp61
g6
aVhomemade taco seasoning store bought packet
p62
aNaVtortilla
p63
aS'cheddar cheese'
p64
aS'beans'
p65
aVsalsa
p66
aS'tomatoes'
p67
aVblack olive
p68
ag10
atp69
sVa654dc
p70
(VChicken and Black Bean Smoky Rice Skillet
p71
Vhttp://static.food2fork.com/ChickenandBlackBeanSmokyRiceSkillet3t1200x3000156.jpg
p72
Vhttp://picky-palate.com/2013/01/07/chicken-and-black-bean-smoky-rice-skillet/
p73
(lp74
Vextra virgin olive oil
p75
ag10
aVsliced zucchini
p76
aVsliced yellow squash
p77
aVgarlic
p78
ag6
ag65
aS'rice'
p79
aVcumin
p80
aVkosher salt
p81
aVblack pepper
p82
aVparsley
p83
atp84
sV11264
p85
(VDelicious Ham and Potato Soup
p86
Vhttp://static.food2fork.com/9626561e3b.jpg
p87
Vhttp://allrecipes.com/Recipe/Delicious-Ham-And-Potato-Soup/Detail.aspx
p88
(lp89
g49
aS'celery'
p90
ag10
ag6
aNaS'chicken'
p91
aVsalt
p92
aVwhite black pepper
p93
aS'butter'
p94
ag25
aS'milk'
p95
atp96
sV11913
p97
(VEasy Cajun Jambalaya
p98
Vhttp://static.food2fork.com/794731225a.jpg
p99
Vhttp://allrecipes.com/Recipe/Easy-Cajun-Jambalaya/Detail.aspx
p100
(lp101
Volive oil
p102
ag91
aVkielbasa
p103
ag10
aVgreen bell pepper
p104
ag90
aVgarlic
p105
aVcayenne pepper
p106
aVsalt
p107
aVground black pepper
p108
ag6
aVbay leaf
p109
aVworcestershire sauce
p110
aVpepper sauce
p111
atp112
sV88def5
p113
(VSmoked salmon with prawns, horseradish cream &amp; lime vinaigrette
p114
Vhttp://static.food2fork.com/9081_MEDIUM183c.jpg
p115
Vhttp://www.bbcgoodfood.com/recipes/9081/smoked-salmon-with-prawns-horseradish-cream-and-li
p116
(lp117
Vcrme frache
p118
aVhorseradish sauce
p119
aVsmoked salmon
p120
ag6
aVjuice lime
p121
aVclear honey
p122
aVfinely root ginger
p123
aVlight olive oil
p124
aVleaf salad
p125
atp126
sV36105
p127
(VCorned Beef Hash
p128
Vhttp://static.food2fork.com/cornedbeefhasha300x20068fbee84.jpg
p129
Vhttp://www.simplyrecipes.com/recipes/corned_beef_hash/
p130
(lp131
g94
ag10
aVfinely
p132
ag6
aVsalt
p133
aVpepper
p134
aVparsley
p135
atp136
sV36104
p137
(VCorned Beef and Cabbage
p138
Vhttp://static.food2fork.com/cornedbeefcabbage300x200803108d6.jpg
p139
Vhttp://www.simplyrecipes.com/recipes/corned_beef_and_cabbage/
p140
(lp141
g6
aNaVsweet honey mustard
p142
aS'sugar'
p143
aVolive oil
p144
ag10
aVgarlic
p145
aS'cabbage'
p146
aVsalt
p147
ag11
atp148
sV54266
p149
(VLoaded Baked Potato Frittata
p150
Vhttp://static.food2fork.com/LoadedBakedPotatoFrittata4727a.jpg
p151
Vhttp://www.twopeasandtheirpod.com/loaded-baked-potato-frittata/
p152
(lp153
Volive oil
p154
ag49
ag10
ag22
ag95
ag6
aVsalt
p155
aVblack pepper
p156
ag64
aVsour cream
p157
atp158
sV217a06
p159
(VGnocchi bolognese with spinach
p160
Vhttp://static.food2fork.com/5862_MEDIUM5ad0.jpg
p161
Vhttp://www.bbcgoodfood.com/recipes/5862/gnocchi-bolognese-with-spinach
p162
(lp163
g6
aVolive oil
p164
ag67
aVitalian herb
p165
aVgnocchi
p166
aVreduced-fat mozzarella
p167
aVspinach
p168
atp169
sV608244
p170
(VGiant Lemon Fennel Beans
p171
Vhttp://static.food2fork.com/FENNEL_BEANS302f.jpg
p172
Vhttp://www.101cookbooks.com/archives/giant-lemon-fennel-beans-recipe.html
p173
(lp174
Vfennel bulb
p175
aVextra virgin olive oil
p176
aVsea salt
p177
aVhoney
p178
aS'lemons'
p179
ag13
ag6
aNaVroughly dill
p180
atp181
sVe6717a
p182
(Vmushroom bourguignon
p183
Vhttp://static.food2fork.com/3197332671_43b2c5e2ff_m774b.jpg
p184
Vhttp://smittenkitchen.com/blog/2009/01/mushroom-bourguignon/
p185
(lp186
Volive oil
p187
ag94
ag38
ag11
ag10
aVgarlic
p188
ag13
ag6
ag67
aVthyme leaf
p189
ag25
ag22
aVsour cream chive parsley
p190
atp191
sV24308
p192
(VOh-So-Good Chicken
p193
Vhttp://static.food2fork.com/86259903c4.jpg
p194
Vhttp://allrecipes.com/Recipe/Oh-So-Good-Chicken/Detail.aspx
p195
(lp196
Volive oil
p197
aVsour cream
p198
ag64
ag38
aVsalsa
p199
ag6
ag91
atp200
sV35531
p201
(VRoast Turkey Club Sandwich with Cranberry Sauce
p202
Vhttp://static.food2fork.com/Roast2BTurkey2BClub2BSandwich2Bwith2BCranberry2BSauce2B5002B2776e8923b1f.jpg
p203
Vhttp://www.closetcooking.com/2007/12/turkey-sandwich-with-cranberry-sauce.html
p204
(lp205
g21
ag6
aS'bacon'
p206
aVcranberry sauce
p207
ag67
aS'lettuce'
p208
aVmayonnaise
p209
atp210
sV48066
p211
(VSpring Pasta
p212
Vhttp://static.food2fork.com/spring_pasta_recipe8286.jpg
p213
Vhttp://www.101cookbooks.com/archives/spring-pasta-recipe.html
p214
(lp215
g6
ag22
aVsea salt
p216
aVolive oil
p217
ag94
aVbig sliced asparagus
p218
aVavocado
p219
aVherb
p220
atp221
sV35532
p222
(VRoast Turkey Cuban Sandwich
p223
Vhttp://static.food2fork.com/RoastTurkeyCubanoSandwich150013136722.jpg
p224
Vhttp://www.closetcooking.com/2010/10/roast-turkey-cuban-sandwich.html
p225
(lp226
Vbun
p227
aVmayonnaise
p228
aVdijon mustard
p229
aVcranberry sauce
p230
ag6
aVswiss cheese
p231
ag39
aVdill pickle
p232
atp233
sVd3c9af
p234
(VFresh Asian noodle salad
p235
Vhttp://static.food2fork.com/214_1_1349685043_lrgc597.jpg
p236
Vhttp://www.jamieoliver.com/recipes/beef-recipes/fresh-asian-noodle-salad
p237
(lp238
Vcellophane noodle beanthread noodle
p239
ag6
aVfive-spice
p240
aVolive oil
p241
aVgarlic
p242
aVheaped ginger
p243
aNag143
ag10
aVlime juice
p244
aVfish sauce
p245
aVred chilli
p246
aVcoriander
p247
aVmint
p248
aS'peanut butter'
p249
aVsea salt
p250
aVblack pepper
p251
atp252
sV54320
p253
(VVegetable Quinoa Soup
p254
Vhttp://static.food2fork.com/vegetablequinoasoup1d1bd.jpg
p255
Vhttp://www.twopeasandtheirpod.com/vegetable-quinoa-soup/
p256
(lp257
Volive oil
p258
ag10
aVgarlic
p259
ag11
ag90
aVzucchini
p260
aVyellow squash
p261
ag65
aVbox vegetale broth
p262
ag67
aVbay leaf
p263
aVthyme
p264
aVbasil
p265
ag6
aVsalt
p266
aVblack pepper
p267
atp268
sV31912
p269
(VTaco Salad I
p270
Vhttp://static.food2fork.com/385292178.jpg
p271
Vhttp://allrecipes.com/Recipe/Taco-Salad-I/Detail.aspx
p272
(lp273
g6
aVtaco seasoning mix
p274
ag65
aVbottle french dressing
p275
ag208
aS'potato chips'
p276
ag64
ag67
aVsour cream
p277
aVprepared salsa
p278
atp279
sV391301
p280
(VButtermilk Asparagus Salad
p281
Vhttp://static.food2fork.com/buttermilk_asparagus_salad412a.jpg
p282
Vhttp://www.101cookbooks.com/archives/buttermilk-asparagus-salad-recipe.html
p283
(lp284
NaVgarlic
p285
aVscant sea salt
p286
aVbuttermilk
p287
ag13
aVextra virgin olive oil
p288
aVbunch asparagus
p289
ag6
aVposole
p290
aVhominy
p291
aVbig cilantro
p292
aVbig sprout
p293
atp294
sVcbc556
p295
(VRoast rib of beef
p296
Vhttp://static.food2fork.com/3819_MEDIUM6360.jpg
p297
Vhttp://www.bbcgoodfood.com/recipes/3819/roast-rib-of-beef
p298
(lp299
g6
ag11
aVparsnip
p300
ag10
aVgarlic bulb
p301
aVcouple sprig thyme
p302
ag13
atp303
sV47893
p304
(VKale Market Salad
p305
Vhttp://static.food2fork.com/kale_market_saladd20e.jpg
p306
Vhttp://www.101cookbooks.com/archives/kale-market-salad-recipe.html
p307
(lp308
NaVstalk green garlic
p309
aVsea salt
p310
ag179
aVextra virgin olive oil
p311
aVavocado
p312
aVhoney
p313
aVpepper
p314
aVbunch kale
p315
ag6
ag11
aVbulb fennel
p316
aVbig almond
p317
atp318
sV30999
p319
(VStuffed Peppers My Way
p320
Vhttp://static.food2fork.com/558812d8cf.jpg
p321
Vhttp://allrecipes.com/Recipe/Stuffed-Peppers-My-Way/Detail.aspx
p322
(lp323
Nag6
aVgreen bell pepper
p324
aVolive oil
p325
ag10
aVbasil
p326
aVitalian seasoning
p327
aVsalt
p328
aVblack pepper
p329
ag67
aVcrumbled feta cheese
p330
atp331
sV40200
p332
(VAle-Braised Corned Beef, Brussels Sprouts, and Carrots
p333
Vhttp://static.food2fork.com/dinnercornedbeef_300de80aa65.jpg
p334
Vhttp://www.realsimple.com/food-recipes/browse-all-recipes/ale-braised-corned-beef-recipe-00000000029794/index.html
p335
(lp336
g6
ag11
aV-ounce bottle amber ale
p337
aVbrussels sprout
p338
aVsour cream
p339
aVwhole-grain mustard
p340
aVtarragon
p341
atp342
sVdc8e39
p343
(VBreakfast Burritos
p344
Vhttp://static.food2fork.com/IMG_06527b24.jpg
p345
Vhttp://whatsgabycooking.com/breakfast-burritos/
p346
(lp347
g6
ag22
ag94
aVkosher salt pepper
p348
aVcheese
p349
aVtortilla
p350
ag49
aVchipotle salsa
p351
aVavocado
p352
aVcilantro
p353
aS'corn on the cob'
p354
atp355
sV47546
p356
(Vtexas sweet onion casserole with rice, chipotle and Gruyere
p357
Vhttp://static.food2fork.com/texas2Bsweet2Bonion2Brice2Bcasserole2Bchipotle2Bgruyere_DSC6520ce7d5414.jpg
p358
Vhttp://homesicktexan.blogspot.com/2012/04/texas-sweet-onion-casserole-with-rice.html
p359
(lp360
g94
ag10
ag6
aVcumin
p361
aVallspice
p362
aVcayenne
p363
aVgarlic
p364
aVchipotle chile adobo
p365
aVsour cream
p366
aVgruyere
p367
aVsalt
p368
aVcilantro garnish
p369
atp370
sV17551
p371
(VItalian Sausage Soup
p372
Vhttp://static.food2fork.com/521051157c.jpg
p373
Vhttp://allrecipes.com/Recipe/Italian-Sausage-Soup/Detail.aspx
p374
(lp375
S'sausage'
p376
aVgarlic
p377
ag6
ag67
ag11
ag65
aVzucchini
p378
aVspinach packed
p379
aVblack pepper
p380
aVsalt
p381
atp382
sV30997
p383
(VStuffed Peppers
p384
Vhttp://static.food2fork.com/139057e072.jpg
p385
Vhttp://allrecipes.com/Recipe/Stuffed-Peppers-4/Detail.aspx
p386
(lp387
g6
aNaVgreen bell pepper
p388
ag67
aVworcestershire sauce
p389
aVgarlic powder
p390
ag10
aVsalt
p391
aVpepper
p392
aVitalian seasoning
p393
atp394
sV64e7d5
p395
(VAll Recipes
p396
Vhttp://static.food2fork.com/beetcarrotedamamesalad270x3725290.jpg
p397
Vhttp://cookieandkate.com/2015/raw-beet-salad-with-carrot-quinoa-spinach/
p398
(lp399
g6
aVorganic edamame
p400
aVslivered almond pepitas
p401
aS'strawberries'
p402
ag11
aVpacked spinach arugula
p403
aVavocado
p404
aS'apple sauce'
p405
aVlime juice
p406
aVolive oil
p407
aVmint cilantro
p408
aVhoney maple syrup agave nectar
p409
aVdijon mustard
p410
aVsalt
p411
aVblack pepper
p412
atp413
sV03fe80
p414
(VPaleo Shepherds Pie
p415
Vhttp://static.food2fork.com/shepardspiepaleoglutenfreerecipeDSC_5345853b.jpg
p416
Vhttp://www.elanaspantry.com/paleo-shepherds-pie/
p417
(lp418
Volive oil
p419
ag10
aS'turkey'
p420
ag11
ag90
ag6
aVceltic sea salt
p421
aVblack pepper
p422
aVsmoked paprika
p423
ag91
aVcauliflower
p424
atp425
sV17380
p426
(VIrish Steaks
p427
Vhttp://static.food2fork.com/808014adeb.jpg
p428
Vhttp://allrecipes.com/Recipe/Irish-Steaks/Detail.aspx
p429
(lp430
Vvegetable oil
p431
ag94
ag10
ag6
aVgarlic
p432
aS'bourbon whiskey'
p433
aVsalt
p434
aVground black pepper
p435
aVflat-leaf parsley
p436
atp437
sVfa0654
p438
(VWhite Chard Stew
p439
Vhttp://static.food2fork.com/whitechardstewrecipec3a7.jpg
p440
Vhttp://www.101cookbooks.com/archives/white-chard-stew-recipe.html
p441
(lp442
Vextra virgin olive oil
p443
ag90
aVgarlic
p444
ag49
ag11
ag10
ag67
aVred pepper flake
p445
aVchard
p446
ag6
ag21
aVsea salt
p447
aVparmesan cheese
p448
aNaVancho chile relish
p449
atp450
sV47947
p451
(VLemony Chickpea Stir-fry
p452
Vhttp://static.food2fork.com/chickpea_stirfry_recipe85ab.jpg
p453
Vhttp://www.101cookbooks.com/archives/lemony-chickpea-stirfry-recipe.html
p454
(lp455
Vghee extra virgin olive oil
p456
aVsea salt
p457
ag10
ag6
aVextra-firm tofu
p458
aVkale
p459
aVzucchini
p460
aVzest
p461
aVjuice of a lemon
p462
atp463
sV35109
p464
(VBacon Double Cheeseburger Soup
p465
Vhttp://static.food2fork.com/Bacon2BDouble2BCheeseburger2BSoup2B5002B0677c192317c.jpg
p466
Vhttp://www.closetcooking.com/2012/09/bacon-double-cheeseburger-soup.html
p467
(lp468
g6
ag206
ag10
ag11
ag90
aVjalapeno
p469
aVgarlic
p470
ag25
aVbottle beer
p471
ag49
aVketchup
p472
aVdijon mustard
p473
aVworcestershire sauce
p474
ag67
ag208
ag95
ag64
aVmozzarella
p475
aVcayenne
p476
aVsalt
p477
aVpepper
p478
aVhamburger bun
p479
aVpickle
p480
atp481
sV14753
p482
(VGood New Orleans Creole Gumbo
p483
Vhttp://static.food2fork.com/915214474f.jpg
p484
Vhttp://allrecipes.com/Recipe/Good-New-Orleans-Creole-Gumbo/Detail.aspx
p485
(lp486
g25
ag206
aVnbsp
p487
ag90
ag10
aVgreen bell pepper
p488
aVgarlic
p489
ag376
aVquart
p490
ag6
ag143
aVsalt
p491
aVpepper sauce such tabasco
p492
aVcajun seasoning blend such tony chachere
p493
aVbay leaf
p494
aVthyme leaf
p495
ag67
aVgumbo file powder
p496
aVcut okra
p497
aVdistilled white vinegar
p498
aVlump crabmeat
p499
aVworcestershire sauce
p500
atp501
sV47539
p502
(VTamale cornbread dressing
p503
Vhttp://static.food2fork.com/tamalecornbreaddressing_DSC14415f3b3fc8.jpg
p504
Vhttp://homesicktexan.blogspot.com/2011/11/tamale-cornbread-dressing.html
p505
(lp506
g94
ag10
aVgarlic
p507
aVcrumbled cornbread
p508
aVcumin
p509
ag376
aVcilantro
p510
aVjalapeos
p511
aS'corn'
p512
aVpepper jack
p513
ag6
ag420
aVsalt
p514
aVblack pepper
p515
atp516
sVe238d7
p517
(VSalad Booster
p518
Vhttp://static.food2fork.com/salad_booster9ce2.jpg
p519
Vhttp://www.101cookbooks.com/archives/salad-booster-recipe.html
p520
(lp521
Vsheet nori seaweed
p522
aVkale leaf
p523
aVsunflower seed
p524
ag179
aVred pepper flake
p525
aV-optional add-in
p526
aVsansho pepper
p527
aVsea salt
p528
aVherb
p529
ag6
atp530
sV29037
p531
(VSlow Cooker Pepper Steak
p532
Vhttp://static.food2fork.com/4962449cd4.jpg
p533
Vhttp://allrecipes.com/Recipe/Slow-Cooker-Pepper-Steak/Detail.aspx
p534
(lp535
g6
aVgarlic powder
p536
aVvegetable oil
p537
aNaVcornstarch
p538
ag10
aVgreen bell pepper
p539
ag67
aVsoy sauce
p540
ag143
aVsalt
p541
atp542
sV47537
p543
(VStuffed pumpkin with cheese, bacon and chipotle chiles
p544
Vhttp://static.food2fork.com/Chipotlecheesestuffedpumpkin_DSC0461e6b9e881.jpg
p545
Vhttp://homesicktexan.blogspot.com/2011/11/stuffed-pumpkin-cheese-bacon-chipotle.html
p546
(lp547
Vone -to- pumpkin
p548
aVsalt
p549
aVblack pepper
p550
ag21
aVgruyere
p551
ag64
aVgarlic
p552
aVchipotle chile adobo
p553
ag6
aVcumin
p554
aVnutmeg
p555
aVheavy cream half-and-half
p556
atp557
sV73eeb4
p558
(Vethereally smooth hummus
p559
Vhttp://static.food2fork.com/8360575918_2fae1c86839a37.jpg
p560
Vhttp://smittenkitchen.com/blog/2013/01/ethereally-smooth-hummus/
p561
(lp562
g6
aVbaking soda
p563
aVtahini paste
p564
ag179
aVgarlic
p565
aVtable salt
p566
aVapproximately reserved chickpea cooking
p567
atp568
sV0c2493
p569
(VSlow Cooker Chicken Enchilada Soup
p570
Vhttp://static.food2fork.com/SlowCookerChickenEnchiladaSoup2t1200x300216b.jpg
p571
Vhttp://picky-palate.com/2013/01/21/slow-cooker-chicken-enchilada-soup/
p572
(lp573
Vextra virgin olive oil
p574
ag10
aVgarlic
p575
ag91
aVtwo mild green enchilada sauce
p576
ag67
ag6
aVcumin
p577
aVsour cream
p578
ag64
aVbunch cilantro leaf topping
p579
ag146
atp580
sVff81c5
p581
(VBeef Wellington
p582
Vhttp://static.food2fork.com/2538_MEDIUMd6ac.jpg
p583
Vhttp://www.bbcgoodfood.com/recipes/2538/beef-wellington
p584
(lp585
g6
aVolive oil
p586
ag38
ag94
aVsprig thyme
p587
ag13
aVprosciutto
p588
aVpack puff pastry
p589
ag25
ag22
atp590
sV36449
p591
(VHome Cured Corned Beef
p592
Vhttp://static.food2fork.com/homecuredcornedbeef300x200f7d929ab.jpg
p593
Vhttp://www.simplyrecipes.com/recipes/home_cured_corned_beef/
p594
(lp595
Vallspice berry
p596
aVmustard seed
p597
aVcoriander seed
p598
aVred pepper flake
p599
aNaVblack peppercorn
p600
aVcardamom pod
p601
aVbay leaf
p602
aVginger
p603
aVstick cinnamon
p604
aVgallon
p605
aVkosher salt
p606
aVpink curing salt*
p607
aVpickling spice
p608
ag143
ag6
atp609
sVf0ef65
p610
(VTurkey &amp; sweet leek pie
p611
Vhttp://static.food2fork.com/633_1_1349867322_lrgcaf2.jpg
p612
Vhttp://www.jamieoliver.com/recipes/turkey-recipes/turkey-and-sweet-leek-pie
p613
(lp614
g206
aVbunch thyme
p615
aVolive oil
p616
aVleek
p617
aVsea salt
p618
aVblack pepper
p619
ag6
ag25
ag420
aVcrme frache
p620
aVpuff pastry
p621
aVjarred vac-packed chesntnuts
p622
ag376
ag22
atp623
sVacf219
p624
(VCannellini Bean Vegetarian \u201cMeatballs\u201d with Tomato Sauce
p625
Vhttp://static.food2fork.com/6297474882_342f91744da59f.jpg
p626
Vhttp://www.cookincanuck.com/2011/11/cannellini-bean-vegetarian-meatballs-with-tomato-sauce-recipe/
p627
(lp628
S'peaches'
p629
aVroasted red bell pepper
p630
ag10
aVgarlic
p631
aVitalian parsley
p632
aVoregano
p633
ag22
aVbreadcrumb
p634
aVkosher salt
p635
aVblack pepper
p636
aVmarinara sauce
p637
aVparmesan cheese grating
p638
ag6
atp639
sV36333
p640
(VFrench Onion Soup
p641
Vhttp://static.food2fork.com/frenchonionsoup300x20035037ec7.jpg
p642
Vhttp://www.simplyrecipes.com/recipes/french_onion_soup/
p643
(lp644
g10
aVolive oil
p645
ag143
aVgarlic
p646
ag6
ag13
aVbay leaf
p647
aVdry thyme
p648
aVsalt
p649
aVpepper
p650
ag21
aVswiss gruyere with little parmesan cheese
p651
atp652
sVfc74d6
p653
(VBrown Rice Salad with Crunchy Sprouts and Seeds
p654
Vhttp://static.food2fork.com/3959317b41.jpg
p655
Vhttp://www.epicurious.com/recipes/food/views/Brown-Rice-Salad-with-Crunchy-Sprouts-and-Seeds-395931
p656
(lp657
Vchive
p658
aVplus extra virgin olive oil
p659
ag179
aVkosher salt plus more
p660
aVmixed sprouted legume
p661
aVzucchini
p662
ag6
aVscallion
p663
aVtoasted salted sunflower seed
p664
aVtoasted salted shelled pumpkin seed
p665
aVcoarsely roasted unsalted almond
p666
aVblack pepper
p667
atp668
sV35128
p669
(VBalsamic Strawberry and Chicken Pizza with Sweet Onions and Smoked Bacon
p670
Vhttp://static.food2fork.com/Strawberry2BBalsamic2BPizza2Bwith2BChicken252C2BSweet2BOnion2Band2BSmoked2BBacon2B5002B300939d125e2.jpg
p671
Vhttp://www.closetcooking.com/2012/07/balsamic-strawberry-and-chicken-pizza.html
p672
(lp673
Vbalsamic vinegar
p674
aVstrawberry preserve jam
p675
aVsriracha
p676
ag6
aVmozzarella
p677
aVparmigiano reggiano
p678
aVpizza dough
p679
ag206
ag10
aVstrawberry
p680
aVcilantro
p681
atp682
sV3870a5
p683
(VQuick Breakfast Muffins
p684
Vhttp://static.food2fork.com/IMG_5976180x180c90f.jpg
p685
Vhttp://www.aspicyperspective.com/2013/03/quick-breakfast-muffins-mexican-dish.html
p686
(lp687
Vnon-stick cooking spray
p688
aVenglish muffin
p689
aVcoldegg
p690
aS'yogurt'
p691
aVpico gallo
p692
aVsalt
p693
ag6
aVcalifornia cheese
p694
ag67
atp695
sV9554
p696
(VCorned Beef and Cabbage I
p697
Vhttp://static.food2fork.com/372809b1fd.jpg
p698
Vhttp://allrecipes.com/Recipe/Corned-Beef-And-Cabbage-I/Detail.aspx
p699
(lp700
g6
ag49
ag11
ag146
atp701
sV9557
p702
(VCorned Beef Hash
p703
Vhttp://static.food2fork.com/8073435375.jpg
p704
Vhttp://allrecipes.com/Recipe/Corned-Beef-Hash/Detail.aspx
p705
(lp706
g49
ag6
ag10
atp707
sV47164
p708
(VItalian Drip Beef
p709
Vhttp://static.food2fork.com/4326411577_414ca9869c9055.jpg
p710
Vhttp://thepioneerwoman.com/cooking/2010/02/drip-beef-two-ways/
p711
(lp712
g6
aVitalian seasoning
p713
aVsalt
p714
aNaVpepperoncini pepper
p715
aVbuttered
p716
aS'ground chuck'
p717
ag94
ag10
aVgarlic
p718
aVsoy sauce
p719
aVsherry
p720
aVtoasted
p721
aVoptional rosemary
p722
atp723
sVc5d008
p724
(VSlow Cooker Beef and Barley Soup
p725
Vhttp://static.food2fork.com/SlowCookerBeefandBarleySoup1200x300b610.jpg
p726
Vhttp://picky-palate.com/2013/01/14/slow-cooker-beef-and-barley-soup/
p727
(lp728
g6
ag25
aVkosher salt
p729
aVblack pepper
p730
aVextra virgin olive oil
p731
ag11
ag90
ag10
ag38
aVzucchini
p732
aVgarlic
p733
aVjalapeno
p734
aVthyme leaf
p735
aVbarley
p736
aVworcestershire sauce
p737
aVparsley
p738
atp739
sV55fb23
p740
(VVietnamese Coffee Ice Pops Recipe
p741
Vhttp://static.food2fork.com/29787_vietnamese_coffee_ice_pops_2_620e03c.jpg
p742
Vhttp://www.chow.com/recipes/29787-vietnamese-coffee-ice-pops
p743
(lp744
g6
aNag95
aVheavy cream
p745
atp746
sV46942
p747
(VSalisbury Steak
p748
Vhttp://static.food2fork.com/plate315ad0.jpg
p749
Vhttp://thepioneerwoman.com/cooking/2012/03/salisbury-steak-mashed-potatoes-and-peas/
p750
(lp751
Vmeat mixture
p752
ag6
aVseasoned breadcrumb
p753
aVdry mustard
p754
aVworcestershire sauce
p755
aVketchup
p756
aVsalt
p757
aVpepper
p758
aVgravy
p759
ag10
aVworcestershire
p760
aVkitchen bouquet
p761
ag512
aVmore broth thinning
p762
ag49
ag629
aVolive oil
p763
ag94
aVcream cheese
p764
aVhalf-and-half
p765
aVlawry seasoned salt
p766
aVblack pepper
p767
atp768
sV0ddc12
p769
(VAll Recipes
p770
Vhttp://static.food2fork.com/quinoabroccolislaw3270x372d5d6.jpg
p771
Vhttp://cookieandkate.com/2015/quinoa-broccoli-slaw-recipe/
p772
(lp773
S'broccoli'
p774
ag6
aVslivered almond
p775
aVbasil
p776
aVolive oil
p777
ag179
aVsmooth dijon mustard
p778
ag405
aVhoney
p779
aVgarlic
p780
aVsea salt
p781
aVpepper
p782
atp783
sV17726
p784
(VJambalaya
p785
Vhttp://static.food2fork.com/86294984ff.jpg
p786
Vhttp://allrecipes.com/Recipe/Jambalaya/Detail.aspx
p787
(lp788
g249
aVcajun seasoning
p789
ag376
ag91
ag10
aVgreen bell pepper
p790
ag90
aVgarlic
p791
ag67
aVred pepper flake
p792
aVblack pepper
p793
aVsalt
p794
aVpepper sauce
p795
aVworcestershire sauce
p796
aVfile powder
p797
ag6
atp798
sV348ecd
p799
(VItalian-style beef stew
p800
Vhttp://static.food2fork.com/2209_MEDIUM61b0.jpg
p801
Vhttp://www.bbcgoodfood.com/recipes/2209/italianstyle-beef-stew
p802
(lp803
g10
aVgarlic
p804
aVolive oil
p805
ag6
aVyellow pepper
p806
ag67
aVsprig rosemary
p807
aVolive
p808
atp809
sV39994
p810
(VLasagna-Style Baked Ziti
p811
Vhttp://static.food2fork.com/bakedziti_300374849f5.jpg
p812
Vhttp://www.realsimple.com/food-recipes/browse-all-recipes/lasagna-style-baked-ziti-10000001123648/index.html
p813
(lp814
Vziti
p815
aVolive oil
p816
ag10
aVgarlic
p817
ag6
aVkosher salt black pepper
p818
aVbunch -ounce marinara sauce
p819
aVspinach
p820
aVricotta
p821
aVparmesan
p822
atp823
sV11085
p824
(VDash's Donair
p825
Vhttp://static.food2fork.com/66689281cf.jpg
p826
Vhttp://allrecipes.com/Recipe/Dashs-Donair/Detail.aspx
p827
(lp828
Vsalt
p829
aVoregano
p830
ag25
aVblack pepper
p831
aVitalian seasoning
p832
aVgarlic powder
p833
ag10
aVcayenne pepper
p834
ag6
aVnbsp
p835
ag95
ag143
aVwhite vinegar
p836
atp837
sV457523
p838
(VPioneer Woman\u2019s Beef Brisket
p839
Vhttp://static.food2fork.com/634882945_a322432d0c975d.jpg
p840
Vhttp://thepioneerwoman.com/cooking/2007/06/brisket_baby/
p841
(lp842
g6
ag179
aVsoy sauce
p843
aVgarlic
p844
aVliquid smoke
p845
atp846
sVb6577c
p847
(VSteak and Eggs Rancheros
p848
Vhttp://static.food2fork.com/511504007599.jpg
p849
Vhttp://www.epicurious.com/recipes/food/views/Steak-and-Eggs-Rancheros-51150400
p850
(lp851
S'steak'
p852
aVsalt
p853
aVolive oil cooking spray
p854
ag22
aVwhole-grain soft tortilla
p855
ag6
aVthin pepper-jack cheese
p856
aVsalsa
p857
atp858
sVe1e561
p859
(VCottage pie
p860
Vhttp://static.food2fork.com/775643_MEDIUM00ec.jpg
p861
Vhttp://www.bbcgoodfood.com/recipes/775643/cottage-pie
p862
(lp863
Volive oil
p864
ag6
ag10
ag11
ag90
aVgarlic
p865
ag25
ag67
ag13
aVworcestershire sauce
p866
aVfew thyme sprig
p867
aVbay leaf
p868
ag49
ag95
ag94
ag64
aVnutmeg
p869
atp870
sV36433
p871
(VHamburger and Macaroni
p872
Vhttp://static.food2fork.com/hamburgermacaroni300x20050ce3d48.jpg
p873
Vhttp://www.simplyrecipes.com/recipes/hamburger_and_macaroni/
p874
(lp875
g6
aVolive oil
p876
aVvegesal seasoned salt
p877
aVred pepper
p878
ag90
ag67
aVworcestershire sauce
p879
aVparsley
p880
atp881
sV40182
p882
(VSlow-Cooker Chipotle Beef Tacos With Cabbage and Radish Slaw
p883
Vhttp://static.food2fork.com/chipotlebeeftacos_3005429e24c.jpg
p884
Vhttp://www.realsimple.com/food-recipes/browse-all-recipes/slow-cooker-chipotle-beef-tacos-with-cabbage-and-radish-slaw-00000000052367/index.html
p885
(lp886
g6
ag10
aVgarlic
p887
aVcanned chipotle adobo sauce
p888
aVoregano
p889
aVbay leaf
p890
aVkosher salt
p891
ag146
aS'radishes '
p892
aVcilantro
p893
aVlime juice
p894
atp895
sV7db896
p896
(VOne-Pot Beef Stroganoff with Egg Noodles Recipe
p897
Vhttp://static.food2fork.com/30939_RecipeImage_620x413_one_pot_stroganoff_egg_noodles3510.jpg
p898
Vhttp://www.chow.com/recipes/30939-one-pot-beef-stroganoff-with-egg-noodles
p899
(lp900
Volive oil
p901
ag38
ag94
ag10
aVgarlic
p902
ag6
ag25
aVpaprika
p903
ag13
aVkosher salt
p904
aVblack pepper
p905
ag22
aVsour cream
p906
aVfinely italian parsley leaf
p907
atp908
sV47181
p909
(VBeef Stew with Mushrooms
p910
Vhttp://static.food2fork.com/4145871052_43b464f07f93ee.jpg
p911
Vhttp://thepioneerwoman.com/cooking/2009/11/beef-stew-with-mushrooms/
p912
(lp913
g6
ag25
ag94
aVolive oil
p914
aVshallot
p915
aVgarlic
p916
aNag13
aVsalt
p917
aVpepper
p918
aVsprig thyme
p919
atp920
sV6a64e7
p921
(VSweet Potato Hash Recipe with Creamy California Avocado Sauce
p922
Vhttp://static.food2fork.com/IMG_1361623c.jpg
p923
Vhttp://www.cookincanuck.com/2013/09/sweet-potato-hash-recipe-with-creamy-california-avocado-sauce/
p924
(lp925
Vavocado
p926
ag691
aVgarlic
p927
aVlime
p928
aVcilantro
p929
aNaVsalt
p930
aVpepper
p931
ag49
aVolive oil
p932
ag65
ag6
atp933
sV38645
p934
(VSlow-Cooker Coffee-Braised Brisket With Potatoes and Carrots
p935
Vhttp://static.food2fork.com/braisedbrisketpotatoes_3007c5c1cbe.jpg
p936
Vhttp://www.realsimple.com/food-recipes/browse-all-recipes/coffee-braisedbrisketwithpotatoesandcarrots-00000000049743/index.html
p937
(lp938
g10
ag49
ag11
ag6
aV-ounce kosher salt black pepper
p939
ag67
aS'coffee'
p940
aVworcestershire sauce
p941
ag143
atp942
sV28867
p943
(VSlow Cooker Beef Pot Roast
p944
Vhttp://static.food2fork.com/792485df31.jpg
p945
Vhttp://allrecipes.com/Recipe/Slow-Cooker-Beef-Pot-Roast/Detail.aspx
p946
(lp947
g6
aVsalt
p948
aVpepper
p949
ag25
aVvegetable oil
p950
ag38
ag10
aVgarlic
p951
ag94
ag67
ag91
ag11
ag90
aVsprig rosemary
p952
aVsprig thyme
p953
atp954
sV48142
p955
(VPierce Street Vegetarian Chili
p956
Vhttp://static.food2fork.com/vegetarian_chili_recipe7415.jpg
p957
Vhttp://www.101cookbooks.com/archives/pierce-street-vegetarian-chili-recipe.html
p958
(lp959
Volive oil
p960
ag10
aVshallot
p961
aVmed garlic
p962
aVginger
p963
aVchili powder
p964
aVcumin
p965
aVserrano pepper
p966
aVchipotle pepper
p967
ag67
aVvegetable broth
p968
ag6
aVblack
p969
aVpearled barley pearled farro
p970
aVbulgur wheat
p971
aVsea salt
p972
aVtopping bit serranos
p973
atp974
sV35679
p975
(VYorkshire Pudding
p976
Vhttp://static.food2fork.com/Yorkshire2BPudding2B5002B7920722b08fd.jpg
p977
Vhttp://www.closetcooking.com/2011/11/yorkshire-pudding.html
p978
(lp979
g25
ag95
ag22
aVsalt
p980
ag6
atp981
sV37047
p982
(VSwedish Meatballs
p983
Vhttp://static.food2fork.com/swedishmeatballs300x200d972d881.jpg
p984
Vhttp://www.simplyrecipes.com/recipes/swedish_meatballs/
p985
(lp986
g10
ag94
ag95
ag21
ag22
aS'pork chops'
p987
ag6
aVsalt
p988
aVnutmeg
p989
aVcardamom
p990
aVblack pepper
p991
ag25
aVsour cream
p992
aVlingonberry
p993
atp994
sV30557
p995
(VSteak Salad
p996
Vhttp://static.food2fork.com/2636885b1e.jpg
p997
Vhttp://allrecipes.com/Recipe/Steak-Salad/Detail.aspx
p998
(lp999
g6
aVolive oil
p1000
ag13
ag179
aVgarlic
p1001
aVsalt
p1002
aVblack pepper
p1003
aVworcestershire sauce
p1004
aVcrumbled blue cheese
p1005
ag208
ag67
aVgreen bell pepper
p1006
ag11
ag10
aVsliced pimento-stuffed green olive
p1007
atp1008
sVddb388
p1009
(VIn-N-Out's Double-Double, Animal Style
p1010
Vhttp://static.food2fork.com/20100723innoutprimaryb815.jpg
p1011
Vhttp://www.seriouseats.com/recipes/2010/07/in-n-outs-double-double-animal-style-burger-recipe.html
p1012
(lp1013
g6
aVvegetable oil
p1014
ag10
aVkosher salt
p1015
aVplus mayonnaise
p1016
aVketchup
p1017
aVsweet pickle relish
p1018
ag143
aVdistilled white vinegar
p1019
aVsoft hamburger bun
p1020
aVblack pepper
p1021
ag276
ag67
ag208
aVyellow mustard
p1022
aS'american processed cheese'
p1023
atp1024
sV81a4c3
p1025
(VGlazed Easter Ham
p1026
Vhttp://static.food2fork.com/ham6129.jpg
p1027
Vhttp://thepioneerwoman.com/cooking/2013/03/glazed-easter-ham/
p1028
(lp1029
g6
aNag143
aVspicy brown mustard
p1030
aVpepper coke
p1031
ag405
atp1032
sV19241
p1033
(VPasta Fagioli
p1034
Vhttp://static.food2fork.com/9941824cd0.jpg
p1035
Vhttp://allrecipes.com/Recipe/Pasta-Fagioli/Detail.aspx
p1036
(lp1037
Volive oil
p1038
ag90
ag10
aVgarlic
p1039
aVparsley
p1040
aVitalian seasoning
p1041
aVred pepper flake
p1042
aVsalt
p1043
ag91
ag67
ag6
ag65
atp1044
sVfe4b1f
p1045
(VMiso Tahini Soup
p1046
Vhttp://static.food2fork.com/miso_tahini_soup1c1d.jpg
p1047
Vhttp://www.101cookbooks.com/archives/miso-tahini-soup-recipe.html
p1048
(lp1049
Vsmall-medium delicata squash
p1050
aVwhite turnip
p1051
aNaVwhite miso
p1052
aVtahini
p1053
ag179
ag6
aVavocado
p1054
aVbunch chive
p1055
aVtoasted nori
p1056
aVtoasted sesame seed
p1057
atp1058
sVf02e8a
p1059
(VScotch eggs
p1060
Vhttp://static.food2fork.com/2853682_MEDIUM7bca.jpg
p1061
Vhttp://www.bbcgoodfood.com/recipes/2853682/scotch-eggs
p1062
(lp1063
g22
ag987
aVblack peppercorn
p1064
ag6
ag376
aVthyme
p1065
aVparsley
p1066
ag25
aVbreadcrumb
p1067
aVsunflower oil
p1068
aVpiccalilli
p1069
atp1070
sV47868
p1071
(VRed Lentil Soup with Lemon
p1072
Vhttp://static.food2fork.com/red_lentil_soup_2011a924.jpg
p1073
Vhttp://www.101cookbooks.com/archives/red-lentil-soup-with-lemon-recipe.html
p1074
(lp1075
Vsplit red lentil
p1076
aVturmeric
p1077
ag94
aVsea salt
p1078
ag10
aVcumin
p1079
aVyellow mustard seed
p1080
aVcilantro
p1081
ag179
aVbunch spinach leaf
p1082
ag6
ag691
atp1083
sV458349
p1084
(VBeef tagine
p1085
Vhttp://static.food2fork.com/75_1_1349692116_lrg511a.jpg
p1086
Vhttp://www.jamieoliver.com/recipes/beef-recipes/beef-tagine
p1087
(lp1088
g6
aVolive oil
p1089
ag10
aVbunch coriander
p1090
aVtinned chickpea
p1091
ag67
aVorganic vegetable stock
p1092
aVsquash
p1093
aVprune
p1094
aVflaked almond
p1095
aVsea salt
p1096
aVblack pepper
p1097
aVlevel hanout spice mix
p1098
aVlevel cumin
p1099
aVlevel cinnamon
p1100
aVlevel ginger
p1101
aVlevel sweet paprika
p1102
atp1103
sVa30805
p1104
(VCobb Salad Sandwich
p1105
Vhttp://static.food2fork.com/CobbSaladSandwich5c185.jpg
p1106
Vhttp://www.twopeasandtheirpod.com/cobb-salad-sandwich/
p1107
(lp1108
g21
aVmayonaise
p1109
ag208
ag420
ag67
aS'hard candy'
p1110
aVavocado
p1111
ag6
ag10
aVcrumbled blue cheese
p1112
aVsalt
p1113
aVblack pepper
p1114
atp1115
sV47609
p1116
(VGolden Potstickers
p1117
Vhttp://static.food2fork.com/potsticker_recipe6367.jpg
p1118
Vhttp://www.101cookbooks.com/archives/golden-potstickers-recipe.html
p1119
(lp1120
Vsunflower oil
p1121
ag10
aVserrano chile
p1122
ag143
aVsoy sauce
p1123
aNaVshallot
p1124
aVsea salt
p1125
ag6
aS'round roast'
p1126
aVpotsticker wrapper
p1127
atp1128
sVe16708
p1129
(VSalisbury Steak Meatballs
p1130
Vhttp://static.food2fork.com/meatballsbb2a.jpg
p1131
Vhttp://thepioneerwoman.com/cooking/2014/04/salisbury-steak-meatballs/
p1132
(lp1133
g6
aVseasoned breadcrumb
p1134
aVbrown mustard
p1135
aVketchup
p1136
aVworcestershire sauce
p1137
aVsalt
p1138
aVblack pepper
p1139
ag94
ag10
aVkitchen bouquet
p1140
ag22
aVparsley
p1141
atp1142
sV49135
p1143
(VThe BA Burger Deluxe
p1144
Vhttp://static.food2fork.com/thebaburgerdeluxe646ba96.jpg
p1145
Vhttp://www.bonappetit.com/recipes/2012/07/the-ba-burger-deluxe
p1146
(lp1147
g6
aVkosher salt
p1148
aVblack pepper
p1149
ag1023
ag49
atp1150
sVaf1bb5
p1151
(VRoasted chestnut &amp; herb pesto pasta with mushrooms
p1152
Vhttp://static.food2fork.com/1039650_MEDIUMa4c2.jpg
p1153
Vhttp://www.bbcgoodfood.com/recipes/1039650/roasted-chestnut-and-herb-pesto-pasta-with-mushroo
p1154
(lp1155
g6
ag629
aVparmesan
p1156
aVgarlic
p1157
aVrapeseed oil
p1158
aVpasta
p1159
aVolive oil
p1160
ag38
atp1161
sV7ea021
p1162
(VImpossibly Easy Taco Pie &#038; Mexican Hot Chocolate Cookies
p1163
Vhttp://static.food2fork.com/TacoPiec325.jpg
p1164
Vhttp://www.mybakingaddiction.com/impossibly-easy-taco-pie-mexican-hot-chocolate-cookies/
p1165
(lp1166
g6
ag10
aVtaco seasoning mix homemade taco seasoning
p1167
aVgreen chile
p1168
ag95
ag22
aVoriginal bisquick mix
p1169
atp1170
sV36032
p1171
(VCioppino
p1172
Vhttp://static.food2fork.com/cioppinoforthumbnail288x20077b6e712.jpg
p1173
Vhttp://www.simplyrecipes.com/recipes/cioppino/
p1174
(lp1175
Vhalibut
p1176
ag6
aVshrimp
p1177
aVlittle neck clam
p1178
aVolive oil
p1179
ag10
aVgreen bell pepper
p1180
aVcove garlic
p1181
aVsalt
p1182
ag67
ag354
ag13
aVfish shellfish stock
p1183
aVherb bouquet bay leaf
p1184
aVpepper
p1185
aVparsley garnish
p1186
atp1187
sV26062
p1188
(VQuinoa Chili
p1189
Vhttp://static.food2fork.com/969629d7c9.jpg
p1190
Vhttp://allrecipes.com/Recipe/Quinoa-Chili/Detail.aspx
p1191
(lp1192
g6
aNaVnbsp
p1193
aVolive oil
p1194
ag10
aVgarlic
p1195
aVjalapeno pepper
p1196
aVchili powder
p1197
aVcumin
p1198
ag67
ag65
aVgreen bell pepper
p1199
aVred bell pepper
p1200
aVzucchini
p1201
aVoregano leaf
p1202
aVparsley
p1203
aVsalt
p1204
aVground black pepper
p1205
ag512
aVcilantro
p1206
atp1207
sV4914
p1208
(VBrown Sugar Meatloaf
p1209
Vhttp://static.food2fork.com/5414938f6e.jpg
p1210
Vhttp://allrecipes.com/Recipe/Brown-Sugar-Meatloaf/Detail.aspx
p1211
(lp1212
g143
aVketchup
p1213
ag6
ag95
ag22
aVsalt
p1214
aVblack pepper
p1215
ag10
aVginger
p1216
aS'crackers'
p1217
atp1218
sV6260
p1219
(VCha Cha's White Chicken Chili
p1220
Vhttp://static.food2fork.com/631578cc71.jpg
p1221
Vhttp://allrecipes.com/Recipe/Cha-Chas-White-Chicken-Chili/Detail.aspx
p1222
(lp1223
Vvegetable oil
p1224
ag10
aVgarlic
p1225
aVdiced jalapeno pepper
p1226
aVgreen chile pepper
p1227
aVcumin
p1228
aVoregano
p1229
aVcayenne pepper
p1230
ag91
ag6
ag65
aVmonterey jack cheese
p1231
atp1232
sVe27ec0
p1233
(VRamen Waffle Sandwich Recipe
p1234
Vhttp://static.food2fork.com/30971_ramen_sandwich_620x41329a7.jpg
p1235
Vhttp://www.chow.com/recipes/30971-ramen-waffle-sandwich
p1236
(lp1237
Vpacket instant ramen
p1238
ag22
ag25
aVbaking powder
p1239
aNag6
aVcheese
p1240
atp1241
sV47918
p1242
(VPan-fried Corona Beans & Kale
p1243
Vhttp://static.food2fork.com/panfried_beans_kale_recipe2aa9.jpg
p1244
Vhttp://www.101cookbooks.com/archives/panfried-corona-beans-kale-recipe.html
p1245
(lp1246
Vbunch dino kale lacinato kale
p1247
aVextra virgin olive oil
p1248
ag6
aVsea salt
p1249
aVwalnut
p1250
aVgarlic
p1251
aVnutmeg
p1252
ag179
aVparmesan cheese
p1253
atp1254
sV47917
p1255
(VCoconut Red Lentil Soup
p1256
Vhttp://static.food2fork.com/esalen_dal_recipe3f3b.jpg
p1257
Vhttp://www.101cookbooks.com/archives/coconut-red-lentil-soup-recipe.html
p1258
(lp1259
g629
aVred split lentil
p1260
aVliter
p1261
ag11
aVpeeled ginger
p1262
aVcurry powder
p1263
ag94
ag10
aVgolden raisin
p1264
ag67
ag95
aVsea salt
p1265
aVone cilantro
p1266
ag6
atp1267
sV47262
p1268
(VPioneer Woman\u2019s Favorite Burger Ever
p1269
Vhttp://static.food2fork.com/3223744161_d55e408d0ee306.jpg
p1270
Vhttp://thepioneerwoman.com/cooking/2009/01/my-most-favorite-burger-ever-for-now/
p1271
(lp1272
g6
aVsalt
p1273
aVblack pepper
p1274
aVtabasco sauce
p1275
ag94
ag10
ag143
aVreal mayonnaise
p1276
aS'rolls'
p1277
aVcrumbled blue cheese
p1278
ag208
atp1279
sVa6c618
p1280
(VBeef bourguignon
p1281
Vhttp://static.food2fork.com/5032_MEDIUMa418.jpg
p1282
Vhttp://www.bbcgoodfood.com/recipes/5032/beef-bourguignon
p1283
(lp1284
Vgoose fat
p1285
ag6
ag206
ag10
ag38
aVgarlic
p1286
aVbouquet garni see know-how below
p1287
ag67
ag13
aVceleriac
p1288
aVolive oil
p1289
aVrosemary
p1290
aVthyme sprigs
p1291
aVbay leaf
p1292
aVcardamom pod
p1293
atp1294
sV47265
p1295
(VPastor Ryan\u2019s Cajun Meatloaf
p1296
Vhttp://static.food2fork.com/3190861863_2664421a5c6d40.jpg
p1297
Vhttp://thepioneerwoman.com/cooking/2009/01/cajun-meatloaf/
p1298
(lp1299
Vbell pepper they 're
p1300
ag10
ag90
aVgarlic
p1301
ag94
aVsalt
p1302
aVworcestershire
p1303
aVblack pepper
p1304
aVnutmeg
p1305
aVcayenne pepper
p1306
aVoptional few shake sauce
p1307
aVketchup
p1308
ag95
aVbreadcrumb
p1309
ag6
ag987
ag22
aVhoney
p1310
atp1311
sV29068
p1312
(VSlow Cooker Salisbury Steak
p1313
Vhttp://static.food2fork.com/109524dc76.jpg
p1314
Vhttp://allrecipes.com/Recipe/Slow-Cooker-Salisbury-Steak/Detail.aspx
p1315
(lp1316
g6
ag10
ag21
ag95
ag25
aVvegetable oil
p1317
ag91
aVpacket dry jus mix
p1318
aNatp1319
sV2c4484
p1320
(Vfrench onion soup
p1321
Vhttp://static.food2fork.com/5598180077_730916e2795ce7.jpg
p1322
Vhttp://smittenkitchen.com/blog/2011/04/french-onion-soup/
p1323
(lp1324
g10
ag94
aVolive oil
p1325
aVtable salt
p1326
ag143
ag25
ag6
ag13
aVblack pepper
p1327
aVcognac brandy
p1328
ag402
aVswiss mixture swiss parmesan cheese
p1329
ag1126
atp1330
sVcf056a
p1331
(VAfrican Curried Coconut Soup with Chickpeas
p1332
Vhttp://static.food2fork.com/epicuriousfacebook511b.png
p1333
Vhttp://www.epicurious.com/recipes/food/views/African-Curried-Coconut-Soup-with-Chickpeas-352349
p1334
(lp1335
Vcanola oil
p1336
ag10
aVred bell pepper
p1337
aVjalapeo chili
p1338
aVgarlic
p1339
aVlow-sodium vegetable broth
p1340
aV-ounce chickpea
p1341
ag67
aVmild curry powder
p1342
aVsalt
p1343
aVblack pepper
p1344
ag95
ag6
aVcilantro parsley
p1345
atp1346
sV35703
p1347
(VApple Chicken Quesadilla
p1348
Vhttp://static.food2fork.com/chickenapplequesadilla300x200bff984e8.jpg
p1349
Vhttp://www.simplyrecipes.com/recipes/apple_chicken_quesadilla/
p1350
(lp1351
g25
ag6
ag64
ag405
aVsalsa
p1352
atp1353
sVf7f230
p1354
(VRoasted Beef Tenderloin
p1355
Vhttp://static.food2fork.com/781576334_bcdfccc72fc22b.jpg
p1356
Vhttp://thepioneerwoman.com/cooking/2007/07/roasted_beef_te/
p1357
(lp1358
g6
ag94
aVpeppercorn
p1359
aVlawry seasoned salt
p1360
ag179
aVolive oil
p1361
atp1362
sV542ba9
p1363
(VAvocado Salad
p1364
Vhttp://static.food2fork.com/avocado_salad_recipef97f.jpg
p1365
Vhttp://www.101cookbooks.com/archives/avocado-salad-recipe.html
p1366
(lp1367
Voregano
p1368
aVsea salt
p1369
aVextra virgin olive oil
p1370
ag179
ag6
aVavocado
p1371
aVtoasted hazelnut
p1372
aVchive
p1373
atp1374
sV37510
p1375
(VBean and Chicken Sausage Stew
p1376
Vhttp://static.food2fork.com/soupmeatbeans_30041237753.jpg
p1377
Vhttp://www.realsimple.com/food-recipes/browse-all-recipes/bean-sausage-stew-10000001594327/index.html
p1378
(lp1379
Volive oil
p1380
ag6
aVgarlic
p1381
ag65
ag91
ag67
aVbunch kale leaf
p1382
aVloaf kosher salt black pepper
p1383
atp1384
sV46908
p1385
(VPatty Melts
p1386
Vhttp://static.food2fork.com/pattymelt7fb3.jpg
p1387
Vhttp://thepioneerwoman.com/cooking/2012/08/patty-melts/
p1388
(lp1389
g94
ag10
ag6
aVsalt
p1390
aVpepper
p1391
aVworcestershire sauce
p1392
aVswiss cheese
p1393
ag21
atp1394
sV22934
p1395
(VMini Meatloaves
p1396
Vhttp://static.food2fork.com/528071cdd4.jpg
p1397
Vhttp://allrecipes.com/Recipe/Mini-Meatloaves/Detail.aspx
p1398
(lp1399
g22
ag95
ag64
aVquick cooking oat
p1400
aVsalt
p1401
ag6
aVketchup
p1402
ag143
aVprepared mustard
p1403
atp1404
sV7122ad
p1405
(VGreen Curry Porridge
p1406
Vhttp://static.food2fork.com/green_curry_porridge_recipeb745.jpg
p1407
Vhttp://www.101cookbooks.com/archives/green-curry-porridge-recipe.html
p1408
(lp1409
Vextra virgin olive oil
p1410
aVlemongrass
p1411
aVgarlic
p1412
aVcoriander
p1413
ag6
aNaVsea salt
p1414
ag95
aVginger
p1415
aVserrano chile
p1416
aVcilantro
p1417
ag10
aVsorrel spinach lime juice
p1418
aVdelicata squash
p1419
atp1420
sV35831
p1421
(VBraised Beef Short Ribs
p1422
Vhttp://static.food2fork.com/braisedbeefshortribsb300x200e8b0df2d.jpg
p1423
Vhttp://www.simplyrecipes.com/recipes/braised_beef_short_ribs/
p1424
(lp1425
g6
aVsalt
p1426
aVfreshly ground pepper
p1427
aVgrapeseed oil olive oil
p1428
ag10
ag90
ag11
ag13
aVveal stock
p1429
atp1430
sV4386
p1431
(VBoilermaker Tailgate Chili
p1432
Vhttp://static.food2fork.com/890638f7df.jpg
p1433
Vhttp://allrecipes.com/Recipe/Boilermaker-Tailgate-Chili/Detail.aspx
p1434
(lp1435
g6
ag376
ag65
ag67
ag10
ag90
aVgreen bell pepper
p1436
aVred bell pepper
p1437
aVgreen chile pepper
p1438
ag206
aVbeer
p1439
aVchili powder
p1440
aVworcestershire sauce
p1441
aVgarlic
p1442
aVoregano
p1443
aVcumin
p1444
aVpepper sauce e.g tabasco
p1445
aVbasil
p1446
aVsalt
p1447
aVblack pepper
p1448
aVcayenne pepper
p1449
aVpaprika
p1450
ag143
ag146
ag64
atp1451
sV7d6d90
p1452
(VCreamy Pasta with Chicken Sausage and Broccoli Recipe
p1453
Vhttp://static.food2fork.com/30452_RecipeImage_620x413_chicken_sausage_broccoli_pasta_317d6.jpg
p1454
Vhttp://www.chow.com/recipes/30452-creamy-chicken-sausage-and-broccoli-pasta
p1455
(lp1456
Volive oil
p1457
ag6
ag10
aVkosher salt
p1458
aVblack pepper
p1459
ag774
aS'short ribs'
p1460
aVheavy cream
p1461
aVtightly packed
p1462
atp1463
sV2402
p1464
(VBaked Brunch Omelet
p1465
Vhttp://static.food2fork.com/10079299d.jpg
p1466
Vhttp://allrecipes.com/Recipe/Baked-Brunch-Omelet/Detail.aspx
p1467
(lp1468
g21
ag64
ag6
ag22
ag95
aVsalt
p1469
aVpepper sauce
p1470
ag10
atp1471
sV38353
p1472
(VCreamy Shrimp Rolls
p1473
Vhttp://static.food2fork.com/20meals8_30067cd24f1.jpg
p1474
Vhttp://www.realsimple.com/food-recipes/browse-all-recipes/creamy-shrimp-rolls-00000000000684/index.html
p1475
(lp1476
Vmayonnaise
p1477
ag179
aVkosher salt pepper
p1478
ag6
ag90
aVsliced chive
p1479
aVbun
p1480
ag94
atp1481
sV28962
p1482
(VSlow Cooker Enchilada
p1483
Vhttp://static.food2fork.com/266803a7e1.jpg
p1484
Vhttp://allrecipes.com/Recipe/Slow-Cooker-Enchiladas/Detail.aspx
p1485
(lp1486
g6
ag512
aVtaco seasoning mix
p1487
aNaVchunky salsa
p1488
ag38
ag91
aVmexican cheese blend
p1489
atp1490
sV35f632
p1491
(VLoaded Cheese Fries
p1492
Vhttp://static.food2fork.com/LoadedCheeseFries18949.jpg
p1493
Vhttp://www.twopeasandtheirpod.com/loaded-cheese-fries/
p1494
(lp1495
Nag49
aVolive oil
p1496
aVsalt
p1497
aVblack pepper
p1498
aVmaria
p1499
aVarla dofino chili-lime gouda
p1500
aVcilantro
p1501
ag10
aVavocado
p1502
aVjosh
p1503
aVarla dofino jalapeo havarti
p1504
ag6
aVjalapeo
p1505
aVsour cream
p1506
atp1507
sV35203
p1508
(VChicken Enchilada Stuffed Zucchini
p1509
Vhttp://static.food2fork.com/Chicken2BEnchilada2BStuffed2BZucchini2B5002B02136c2f7367.jpg
p1510
Vhttp://www.closetcooking.com/2012/09/chicken-enchilada-stuffed-zucchini.html
p1511
(lp1512
Vzucchini
p1513
aVoil
p1514
ag10
aVgarlic
p1515
aVcumin
p1516
aVchipotle chili powder
p1517
ag6
ag512
aVoregano
p1518
aVenchilada sauce
p1519
aVcilantro
p1520
ag64
aVmozzarella
p1521
ag67
aVchipotle chilies adobo sauce
p1522
aVsalt
p1523
aVpepper
p1524
atp1525
sV35779
p1526
(VBeef Brisket Pot Roast
p1527
Vhttp://static.food2fork.com/brisketpotroast300x2006fee3cda.jpg
p1528
Vhttp://www.simplyrecipes.com/recipes/beef_brisket_pot_roast/
p1529
(lp1530
g6
aVsalt
p1531
aVolive oil
p1532
ag10
aVgarlic
p1533
aVsprig thyme
p1534
aVsprig rosemary
p1535
aVbay leaf
p1536
ag11
aVmustard
p1537
atp1538
sVc826a0
p1539
(VPerfect roast beef
p1540
Vhttp://static.food2fork.com/389_1_1350903718_lrg99fc.jpg
p1541
Vhttp://www.jamieoliver.com/recipes/beef-recipes/perfect-roast-beef
p1542
(lp1543
g6
ag10
ag11
ag90
aVbulb garlic
p1544
aVbunch thyme
p1545
aVolive oil
p1546
aVsea salt
p1547
aVblack pepper
p1548
atp1549
sVfa239f
p1550
(VFrench onion soup
p1551
Vhttp://static.food2fork.com/4250_MEDIUMcc80.jpg
p1552
Vhttp://www.bbcgoodfood.com/recipes/4250/french-onion-soup
p1553
(lp1554
g94
ag10
aVthyme
p1555
aVdry sherry
p1556
ag6
aVbaguette
p1557
aVgarlic
p1558
aVextra virgin olive oil
p1559
aVgruyre
p1560
atp1561
sV26362
p1562
(VReal Poutine
p1563
Vhttp://static.food2fork.com/1535937cc8.jpg
p1564
Vhttp://allrecipes.com/Recipe/Real-Poutine/Detail.aspx
p1565
(lp1566
Vquart vegetable oil frying
p1567
ag6
ag49
aVcheese curd
p1568
atp1569
sV35635
p1570
(VThai Chicken Pizza with Sweet Chili Sauce
p1571
Vhttp://static.food2fork.com/Thai2BChicken2BPizza2Bwith2BSweet2BChili2BSauce2B5002B435581bcf578.jpg
p1572
Vhttp://www.closetcooking.com/2012/02/thai-chicken-pizza-with-sweet-chili.html
p1573
(lp1574
Vpizza dough
p1575
aVsweet chili sauce
p1576
ag6
aVred bell pepper
p1577
ag11
ag65
ag10
aVmozzarella cheese
p1578
ag249
aVbasil
p1579
aVcilantro
p1580
atp1581
sV54683
p1582
(VEasy Chicken and Rice Soup
p1583
Vhttp://static.food2fork.com/4369596168_bef07d1f68c64f.jpg
p1584
Vhttp://www.twopeasandtheirpod.com/easy-chicken-and-rice-soup-recipe/
p1585
(lp1586
Vextra virgin olive oil
p1587
ag10
aVgarlic
p1588
ag11
ag90
aVthyme sprig
p1589
aVbay leaf
p1590
ag91
aNag79
ag6
aVkosher salt black pepper
p1591
atp1592
sV7da689
p1593
(VQuick-Marinated Cherry Tomato Salad
p1594
Vhttp://static.food2fork.com/beattheclock1f28.jpg
p1595
Vhttp://thepioneerwoman.com/cooking/2013/03/recipes-from-tomorrows-show-2/
p1596
(lp1597
S'grapefruit'
p1598
ag10
aVolive oil
p1599
aVbalsamic vinegar
p1600
aVparsley
p1601
aVjarred pesto
p1602
ag143
aVgarlic
p1603
aVsalt
p1604
aVblack pepper
p1605
ag208
ag94
ag6
aVpepper
p1606
aVworcestershire sauce
p1607
aVswiss cheese
p1608
ag21
aVheavy cream
p1609
aVdark rum
p1610
aS'bananas'
p1611
aVwalnut pecan
p1612
aVcinnamon
p1613
ag49
aVkosher salt
p1614
aVrosemary
p1615
atp1616
sV8f9589
p1617
(VCorned beef hash with poached eggs
p1618
Vhttp://static.food2fork.com/cornedbeefhashwithfr_78048_16x99f65.jpg
p1619
Vhttp://www.bbc.co.uk/food/recipes/cornedbeefhashwithfr_78048
p1620
(lp1621
g49
aVolive oil
p1622
ag10
aVgarlic
p1623
ag6
aVsalt
p1624
aVfreshly ground black pepper
p1625
aVvinegar
p1626
ag22
ag67
ag25
aVcornmeal
p1627
ag143
aVbaking powder
p1628
ag95
ag94
atp1629
sV22691
p1630
(VMexican Potato Nachos
p1631
Vhttp://static.food2fork.com/87620349d7.jpg
p1632
Vhttp://allrecipes.com/Recipe/Mexican-Potato-Nachos/Detail.aspx
p1633
(lp1634
Vvegetable oil
p1635
ag49
aVsalt
p1636
aVground black pepper
p1637
ag6
ag65
aVtaco seasoning
p1638
aNag64
ag208
ag67
aVsour cream
p1639
aVguacamole
p1640
atp1641
sV48213
p1642
(VGuinness Corned Beef with Cabbage Recipe
p1643
Vhttp://static.food2fork.com/guinnesscornedbeefcabbagerecipe77252200x150b050.jpg
p1644
Vhttp://www.steamykitchen.com/14556-guinness-corned-beef-with-cabbage-recipe.html
p1645
(lp1646
g354
aVbottle guinness beer
p1647
ag143
ag6
aVpickling spice
p1648
ag10
aVgarlic
p1649
ag146
ag206
ag11
ag49
aVparsley
p1650
atp1651
sV35849
p1652
(VBroccoli Salad
p1653
Vhttp://static.food2fork.com/broccolisalad300x200b1555e41.jpg
p1654
Vhttp://www.simplyrecipes.com/recipes/broccoli_salad/
p1655
(lp1656
Vsalt
p1657
ag774
aVtoasted slivered almond
p1658
ag6
ag10
ag629
aVmayonnaise
p1659
ag405
aVhoney
p1660
atp1661
sV80d52a
p1662
(VHamburger Soup
p1663
Vhttp://static.food2fork.com/hamburgersoup5406.jpg
p1664
Vhttp://thepioneerwoman.com/cooking/2014/01/hamburger-soup/
p1665
(lp1666
g717
ag10
ag90
aVgarlic
p1667
ag67
ag6
aVyellow bell pepper
p1668
aVred bell pepper
p1669
aVgreen bell pepper
p1670
ag11
ag49
aVkosher salt
p1671
aVblack pepper
p1672
aVparsley flake
p1673
aVoregano
p1674
aVcayenne pepper
p1675
atp1676
sV35525
p1677
(VRoast Beef Sandwich with Caramelized Onions and Grainy Mustard, Horseradish Mayo
p1678
Vhttp://static.food2fork.com/Roast2BBeef2BSandwich2Bwith2BCaramelized2BOnions2Band2BGrainy2BMustard252C2BHorseradish2BMayo2B5002B0775553f42ee.jpg
p1679
Vhttp://www.closetcooking.com/2011/11/roast-beef-sandwich-with-caramelized.html
p1680
(lp1681
Volive oil
p1682
ag10
aNaVbun
p1683
aVcheese
p1684
ag6
aVgravy
p1685
aVmayonnaise
p1686
aVhorseradish
p1687
aVgrainy mustard
p1688
aVarugula
p1689
atp1690
sVa2a101
p1691
(VClassic Steak Tartare Recipe
p1692
Vhttp://static.food2fork.com/10983_steak_tartare_6206dc1.jpg
p1693
Vhttp://www.chow.com/recipes/10983-classic-steak-tartare
p1694
(lp1695
Voil-packed anchovy fillet optional
p1696
aVbrined caper
p1697
aVdijon mustard
p1698
ag22
ag6
ag10
aVfinely italian parsley leaf
p1699
aVolive oil
p1700
aVsauce
p1701
aVworcestershire sauce
p1702
aVchile flake
p1703
atp1704
sV48070
p1705
(VRibollita
p1706
Vhttp://static.food2fork.com/ribollita_recipe040a.jpg
p1707
Vhttp://www.101cookbooks.com/archives/ribollita-recipe.html
p1708
(lp1709
Vextra virgin olive oil
p1710
ag90
aVgarlic
p1711
ag11
ag10
ag67
aVred pepper flake
p1712
aVcavolo nero lacinato kale
p1713
ag6
ag21
aVsea salt
p1714
ag179
aVlot well-chopped oily black olive
p1715
atp1716
sV7136
p1717
(VChicken Cordon Bleu I
p1718
Vhttp://static.food2fork.com/39171e05d.jpg
p1719
Vhttp://allrecipes.com/Recipe/Chicken-Cordon-Bleu-I/Detail.aspx
p1720
(lp1721
NaVsalt
p1722
aVblack pepper
p1723
aVswiss cheese
p1724
ag6
ag21
atp1725
sV31904
p1726
(VTaco Pie
p1727
Vhttp://static.food2fork.com/144650a67b.jpg
p1728
Vhttp://allrecipes.com/Recipe/Taco-Pie/Detail.aspx
p1729
(lp1730
g1277
ag6
aVtaco seasoning mix
p1731
aVcontainer sour cream
p1732
aVmexican-style cheese blend
p1733
ag146
atp1734
sV933deb
p1735
(VQuinoa Burrito Bowls
p1736
Vhttp://static.food2fork.com/IMG_0437dc3f.jpg
p1737
Vhttp://whatsgabycooking.com/quinoa-burrito-bowls/
p1738
(lp1739
g6
ag65
ag91
ag67
aVcheese
p1740
aVrecipe chipotle guacamole
p1741
aVchipotle salsa
p1742
aVchive
p1743
aVcilantro
p1744
aVcrema
p1745
ag354
ag10
aVred pepper flake
p1746
aVpaprika
p1747
aVcayenne pepper
p1748
aNatp1749
sV13610
p1750
(VFrench Onion Soup Gratinee
p1751
Vhttp://static.food2fork.com/2813181683.jpg
p1752
Vhttp://allrecipes.com/Recipe/French-Onion-Soup-Gratinee/Detail.aspx
p1753
(lp1754
g94
aVsalt
p1755
ag10
ag91
ag6
ag13
aVworcestershire sauce
p1756
aVsprig parsley
p1757
aVsprig thyme leaf
p1758
aVbay leaf
p1759
aVbalsamic vinegar
p1760
aVfreshly ground black pepper
p1761
ag21
aVgruyere swiss cheese
p1762
aVasiago mozzarella cheese
p1763
aVpaprika
p1764
atp1765
sV13498
p1766
(VFoolproof Rib Roast
p1767
Vhttp://static.food2fork.com/302996e379.jpg
p1768
Vhttp://allrecipes.com/Recipe/Foolproof-Rib-Roast/Detail.aspx
p1769
(lp1770
g6
aVsalt
p1771
aVblack pepper
p1772
aVgarlic powder
p1773
atp1774
sV2307
p1775
(VBacon Wrapped Smokies
p1776
Vhttp://static.food2fork.com/396200d5b4.jpg
p1777
Vhttp://allrecipes.com/Recipe/Bacon-Wrapped-Smokies/Detail.aspx
p1778
(lp1779
g206
ag6
ag143
atp1780
sV4951db
p1781
(VHoliday Recipe Exchange: Beef Stew
p1782
Vhttp://static.food2fork.com/BeefStew21of11e5b.jpg
p1783
Vhttp://www.mybakingaddiction.com/holiday-recipe-exchange-beef-stew/
p1784
(lp1785
g25
aVgarlic powder
p1786
ag10
ag6
aVvegetable oil
p1787
ag13
aNaVrosemary
p1788
aVparsley
p1789
aVblack pepper
p1790
aVsalt
p1791
ag49
ag11
ag90
aVworcestershire sauce
p1792
aVketchup
p1793
ag852
aVcornstarch
p1794
atp1795
sV15823
p1796
(VGuinness&#174; Corned Beef
p1797
Vhttp://static.food2fork.com/49095f45b.jpg
p1798
Vhttp://allrecipes.com/Recipe/Guinness-Corned-Beef/Detail.aspx
p1799
(lp1800
g6
ag143
aVbottle irish stout beer e.g guinness
p1801
atp1802
sV36602
p1803
(VMom&#8217;s Chicken Enchiladas
p1804
Vhttp://static.food2fork.com/chickenenchiladas300x200c40e0695.jpg
p1805
Vhttp://www.simplyrecipes.com/recipes/moms_chicken_enchiladas/
p1806
(lp1807
g10
aVvegetable oil grapeseed olive
p1808
aVgarlic
p1809
ag67
aVred chili powder
p1810
ag143
aNag512
aVgrapeseed oil
p1811
ag6
aVsalt
p1812
aVcheese
p1813
atp1814
sVaee407
p1815
(VAll Recipes
p1816
Vhttp://static.food2fork.com/sweetpotatoblackbeanveggieburgersrecipe03a22.jpg
p1817
Vhttp://cookieandkate.com/2013/sweet-potato-black-bean-veggie-burgers/
p1818
(lp1819
g49
ag6
aVold fashioned oat use certified gluten-free oat you are avoiding gluten
p1820
ag65
ag10
aVlightly packed cilantro leaf
p1821
aVcumin powder
p1822
aVchili powder
p1823
aVchipotle powder smoked paprika
p1824
aVcayenne powder optional
p1825
aVsalt
p1826
aVhigh quality vegetable oil cooking burger coconut oil
p1827
aVwheat hamburger bun
p1828
aVyour favorite burger fixing avocado guacamole
p1829
atp1830
sV17622
p1831
(VIt's Chili by George!!
p1832
Vhttp://static.food2fork.com/430093d8.jpg
p1833
Vhttp://allrecipes.com/Recipe/Its-Chili-By-George/Detail.aspx
p1834
(lp1835
g6
ag67
ag65
ag10
aVgreen bell pepper
p1836
aVcayenne pepper
p1837
ag143
aVoregano
p1838
aVblack pepper
p1839
aVsalt
p1840
aVcumin
p1841
aVchili powder
p1842
atp1843
sV47885
p1844
(VParmesan Celery Salad
p1845
Vhttp://static.food2fork.com/celery_salad_recipe3b99.jpg
p1846
Vhttp://www.101cookbooks.com/archives/parmesan-celery-salad-recipe.html
p1847
(lp1848
g90
aVextra virgin olive oil
p1849
ag179
aVparmesan
p1850
ag6
aVcurrant
p1851
aVsliced almond
p1852
aVsea salt
p1853
aVherb
p1854
atp1855
sV47883
p1856
(VRoasted Pumpkin Salad
p1857
Vhttp://static.food2fork.com/pumpkin_salad_recipef7be.jpg
p1858
Vhttp://www.101cookbooks.com/archives/roasted-pumpkin-salad-recipe.html
p1859
(lp1860
Vpumpkin
p1861
aVextra virgin olive
p1862
aVsea salt
p1863
ag10
ag6
aVsunflower seed
p1864
aVolive oil
p1865
ag179
aVsalt
p1866
aVhoney
p1867
aNaVcilantro
p1868
atp1869
sV28418
p1870
(VShrimp Fettuccine Alfredo
p1871
Vhttp://static.food2fork.com/4593205f0a.jpg
p1872
Vhttp://allrecipes.com/Recipe/Shrimp-Fettucine-Alfredo/Detail.aspx
p1873
(lp1874
Vfettuccini pasta
p1875
ag94
ag6
aVgarlic
p1876
aVhalf-and-half
p1877
aVparmesan cheese
p1878
aVparsley
p1879
aVsalt
p1880
atp1881
sV21055
p1882
(VMama's Italian Wedding Soup
p1883
Vhttp://static.food2fork.com/46175cbcf.jpg
p1884
Vhttp://allrecipes.com/Recipe/Mamas-Italian-Wedding-Soup/Detail.aspx
p1885
(lp1886
g6
ag22
ag21
aVparmesan cheese
p1887
aVbasil
p1888
ag10
ag91
aVspinach packed
p1889
aVseashell pasta
p1890
ag11
atp1891
sVd71581
p1892
(Vchana masala
p1893
Vhttp://static.food2fork.com/4318974369_7f67009edc8cba.jpg
p1894
Vhttp://smittenkitchen.com/blog/2010/02/chana-masala/
p1895
(lp1896
Vvegetable oil
p1897
ag10
aVgarlic
p1898
aVginger
p1899
aNaVcoriander
p1900
aVcumin
p1901
aVcayenne pepper
p1902
aVturmeric
p1903
aVcumin seed
p1904
aVamchoor powder
p1905
aVpaprika
p1906
aVgaram masala
p1907
ag67
ag6
aVsalt
p1908
ag179
atp1909
sV5cdf25
p1910
(VHerby lamb burgers with beetroot mayo
p1911
Vhttp://static.food2fork.com/1959658_MEDIUMeb7c.jpg
p1912
Vhttp://www.bbcgoodfood.com/recipes/1959658/herby-lamb-burgers-with-beetroot-mayo
p1913
(lp1914
S'lamb and mutton'
p1915
ag10
aVparsley
p1916
aVmint
p1917
aVolive oil
p1918
aVmayonnaise
p1919
ag6
ag21
aVcouple watercress
p1920
atp1921
sVd5e4f7
p1922
(VLasagne Bolognese with Spinach
p1923
Vhttp://static.food2fork.com/3511669792.jpg
p1924
Vhttp://www.epicurious.com/recipes/food/views/Lasagne-Bolognese-with-Spinach-351166
p1925
(lp1926
Volive oil
p1927
aVsliced pancetta
p1928
ag10
ag11
ag90
aVgarlic
p1929
ag6
ag13
ag95
ag67
aVthyme leaf
p1930
aV-ounce spinach
p1931
aV-ounce container whole-milk ricotta
p1932
ag22
aVparmigiano-reggiano
p1933
aVnutmeg
p1934
aVbarilla no-boil lasagne noodle
p1935
aVequipment -inch baking pan
p1936
atp1937
sV2272
p1938
(VBacon Ranch Pasta Salad
p1939
Vhttp://static.food2fork.com/580466da88.jpg
p1940
Vhttp://allrecipes.com/Recipe/Bacon-Ranch-Pasta-Salad/Detail.aspx
p1941
(lp1942
g6
ag206
aVmayonnaise
p1943
aVdry ranch salad dressing mix
p1944
aVgarlic powder
p1945
aVgarlic pepper
p1946
ag95
ag67
aVsliced black olive
p1947
ag64
atp1948
sV12a188
p1949
(Vzucchini rice gratin
p1950
Vhttp://static.food2fork.com/7686508332_eaf3597440b9f4.jpg
p1951
Vhttp://smittenkitchen.com/blog/2012/07/zucchini-rice-gratin/
p1952
(lp1953
g6
aVolive oil
p1954
aVzucchini
p1955
ag67
aVtable salt black pepper
p1956
ag10
aVgarlic
p1957
ag22
aVthyme leaf
p1958
aVparmesan
p1959
atp1960
sVdb15f6
p1961
(VPressure Cooker Cola-Braised Beef Short Ribs Recipe
p1962
Vhttp://static.food2fork.com/30305_RecipeImage_620x413_pressure_cooker_short_ribs923c.jpg
p1963
Vhttp://www.chow.com/recipes/30305-pressure-cooker-cola-braised-beef-short-ribs
p1964
(lp1965
Vkosher salt
p1966
aVpaprika
p1967
aVblack pepper
p1968
aVcayenne pepper
p1969
aVcumin
p1970
ag6
aVolive oil
p1971
aVgarlic
p1972
ag10
aS'cola'
p1973
aVsoy sauce
p1974
aVworcestershire sauce
p1975
aVcornstarch
p1976
aNatp1977
sVca0618
p1978
(VMini Tamale Pies Recipe
p1979
Vhttp://static.food2fork.com/30112_tamale_pie_6209f1b.jpg
p1980
Vhttp://www.chow.com/recipes/30112-mini-tamale-pies
p1981
(lp1982
Vmasa harina
p1983
ag91
aVvegetable oil
p1984
ag6
ag10
aVgarlic
p1985
aVcider vinegar
p1986
aVpaprika
p1987
aVoregano leaf
p1988
aVcumin
p1989
aVcayenne pepper
p1990
ag67
aVkosher salt
p1991
aVblack pepper
p1992
ag64
aVsour cream
p1993
aVcoarsely cilantro
p1994
atp1995
sVfc678d
p1996
(VArgentine Grilled Tri-Tip Recipe
p1997
Vhttp://static.food2fork.com/28390_grilled_tri_tip_3_6209332.jpg
p1998
Vhttp://www.chow.com/recipes/28390-argentine-grilled-tri-tip
p1999
(lp2000
Volive oil
p2001
aVgarlic
p2002
aVfinely rosemary leaf
p2003
ag179
ag6
aVsalt
p2004
aVblack pepper
p2005
aNatp2006
sV49d824
p2007
(VCheesy Grown Up SpaghettiOs
p2008
Vhttp://static.food2fork.com/CheesyGrownUpSpaghettiOs3t7e07.jpg
p2009
Vhttp://picky-palate.com/2013/03/27/cheesy-grown-up-spaghettios/
p2010
(lp2011
Vcircular pasta
p2012
ag94
ag67
aVdry ranch dressing seasoning packet
p2013
ag6
aVblack pepper
p2014
ag64
atp2015
sV129564
p2016
(VStuffed Portobello Mushrooms with Farro, Butternut Squash and Kale
p2017
Vhttp://static.food2fork.com/StuffedPortobelloMushroomswithButternutSquashandKale93bac.jpg
p2018
Vhttp://www.twopeasandtheirpod.com/stuffed-portobello-mushrooms-with-farro-butternut-squash-and-kale/
p2019
(lp2020
Vbutternut squash
p2021
aVolive oil
p2022
aVshallot
p2023
aVgarlic
p2024
aVkale
p2025
ag376
ag6
aVcranberry
p2026
ag38
aVsalt
p2027
aVblack pepper
p2028
atp2029
sV47255
p2030
(VFrench Onion Soup
p2031
Vhttp://static.food2fork.com/myfrenchonionsoup1e7d.jpg
p2032
Vhttp://thepioneerwoman.com/cooking/2009/02/french-onion-soup/
p2033
(lp2034
g94
ag10
ag13
ag91
ag6
aVgarlic
p2035
aVworcestershire sauce
p2036
ag21
aNatp2037
sV86ca7c
p2038
(VWeekday Vegetable Soup
p2039
Vhttp://static.food2fork.com/vegetable_soup_recipe1b0e.jpg
p2040
Vhttp://www.101cookbooks.com/archives/weekday-vegetable-soup-recipe.html
p2041
(lp2042
Vextra virgin olive oil
p2043
ag10
aVleek
p2044
ag90
aVcaraway seed
p2045
aVchile flake
p2046
ag67
ag6
aNaVsea salt
p2047
aVbasil leaf
p2048
aVparmesan
p2049
ag892
atp2050
sV26035
p2051
(VQuick Taco Salad
p2052
Vhttp://static.food2fork.com/96195468f7.jpg
p2053
Vhttp://allrecipes.com/Recipe/Quick-Taco-Salad/Detail.aspx
p2054
(lp2055
g6
aVenvelope taco seasoning mix
p2056
aNag10
ag208
ag67
ag64
aVblack olive
p2057
aVsalsa
p2058
aVjalapeno pepper
p2059
aVsour cream
p2060
ag146
atp2061
sV46899
p2062
(VSurf & Turf Cajun Pasta
p2063
Vhttp://static.food2fork.com/cajun3e5c5.jpg
p2064
Vhttp://thepioneerwoman.com/cooking/2012/09/surf-turf-cajun-pasta/
p2065
(lp2066
g6
aVcajun seasoning
p2067
ag94
aVolive oil
p2068
aVjumbo shrimp
p2069
ag10
aVgreen bell pepper
p2070
aVred bell pepper
p2071
aVgarlic
p2072
ag13
ag91
aVheavy cream
p2073
aVparmesan cheese
p2074
ag67
aVparsley
p2075
aVfettuccine
p2076
atp2077
sV36491
p2078
(VHow to Roast a Goose
p2079
Vhttp://static.food2fork.com/roastgooseb300x20091e768f0.jpg
p2080
Vhttp://www.simplyrecipes.com/recipes/how_to_roast_a_goose/
p2081
(lp2082
Vgoose
p2083
ag179
aVsalt
p2084
aVpepper
p2085
ag10
aVgarlic
p2086
ag13
ag25
ag91
aVthyme
p2087
ag6
atp2088
sV32463
p2089
(VThe Best Meatballs
p2090
Vhttp://static.food2fork.com/155362cb00.jpg
p2091
Vhttp://allrecipes.com/Recipe/The-Best-Meatballs/Detail.aspx
p2092
(lp2093
g6
aVveal
p2094
ag987
aVgarlic
p2095
ag22
aVromano cheese
p2096
aVitalian flat leaf parsley
p2097
aVsalt
p2098
aVground black pepper
p2099
ag21
aVlukewarm
p2100
aVolive oil
p2101
atp2102
sV36942
p2103
(VSloppy Joes
p2104
Vhttp://static.food2fork.com/sloppyjoe300x1981fc7134a.jpg
p2105
Vhttp://www.simplyrecipes.com/recipes/sloppy_joes/
p2106
(lp2107
Volive oil
p2108
ag11
ag10
ag90
aVgarlic
p2109
aVsalt
p2110
ag6
aVketchup
p2111
ag67
aVworcestershire sauce
p2112
ag13
ag143
aNaVthyme
p2113
aVcayenne pepper
p2114
aVturn black pepper
p2115
aVhamburger bun
p2116
atp2117
sV47078
p2118
(VFrench Onion Soup Stuffed Mushrooms
p2119
Vhttp://static.food2fork.com/5200405868_e86da8e6e8_oceea.jpg
p2120
Vhttp://thepioneerwoman.com/cooking/2010/11/french-onion-soup-stuffed-mushrooms/
p2121
(lp2122
g94
ag10
ag6
aVworcestershire sauce
p2123
ag13
aVgruyere cheese
p2124
aVkosher salt
p2125
ag38
aVparsley
p2126
atp2127
sVbbbbc4
p2128
(VGrilled BBQ Chicken and Pineapple Tacos
p2129
Vhttp://static.food2fork.com/GrilledBBQChickenandPineappleTacos56a5e.jpg
p2130
Vhttp://www.twopeasandtheirpod.com/grilled-bbq-chicken-and-pineapple-tacos/
p2131
(lp2132
g91
aVbbq sauce
p2133
aVpineapple
p2134
ag6
aVpepper jack cheese
p2135
aVjalapeos
p2136
ag146
aVold paso stand stuff soft taco shell
p2137
aVsalt
p2138
aVpepper
p2139
atp2140
sV8573
p2141
(VChris' Bay Area Burger
p2142
Vhttp://static.food2fork.com/407555117e.jpg
p2143
Vhttp://allrecipes.com/Recipe/Chris-Bay-Area-Burger/Detail.aspx
p2144
(lp2145
g6
aVgarlic
p2146
aVextra virgin olive oil
p2147
aVsalt
p2148
aVblack pepper
p2149
aVbasil leaf
p2150
aVhamburger bun
p2151
atp2152
sV46872
p2153
(VSalad Tacos
p2154
Vhttp://static.food2fork.com/tacos21e9.jpg
p2155
Vhttp://thepioneerwoman.com/cooking/2013/01/salad-tacos/
p2156
(lp2157
Vtaco shell
p2158
ag6
aVtaco seasoning
p2159
ag67
aVsalt
p2160
ag65
aNag208
ag1598
ag64
aVmayonnaise
p2161
aVsour cream
p2162
aVsalsa
p2163
aVranch dressing mix
p2164
aVextra sauce
p2165
ag276
atp2166
sV46876
p2167
(VSunday Night Stew
p2168
Vhttp://static.food2fork.com/stew26d82.jpg
p2169
Vhttp://thepioneerwoman.com/cooking/2013/01/sunday-night-stew/
p2170
(lp2171
NaVolive oil
p2172
ag94
ag6
aVsalt
p2173
aVpepper
p2174
ag10
aVgarlic
p2175
aVseveral worcestershire
p2176
ag143
ag11
aVturnip
p2177
aVparsley
p2178
ag49
aVcream cheese
p2179
aVheavy cream
p2180
aVseasoned salt
p2181
atp2182
sV38517
p2183
(VDrunken Cheesy Bread
p2184
Vhttp://static.food2fork.com/drunkencheesybread_30023b1e229.jpg
p2185
Vhttp://www.realsimple.com/food-recipes/browse-all-recipes/drunken-cheesy-bread-10000001608760/index.html
p2186
(lp2187
g94
aVbaguette
p2188
ag10
ag6
ag13
aVblack pepper
p2189
atp2190
sV36835
p2191
(VRoast Beef
p2192
Vhttp://static.food2fork.com/roastbeef520a300x2005f866940.jpg
p2193
Vhttp://www.simplyrecipes.com/recipes/roast_beef/
p2194
(lp2195
g6
aVolive oil
p2196
aVsliver garlic
p2197
aVsalt
p2198
aVpepper
p2199
ag13
ag512
atp2200
sV32219
p2201
(VTerrific Turkey Chili
p2202
Vhttp://static.food2fork.com/121406cb64.jpg
p2203
Vhttp://allrecipes.com/Recipe/Terrific-Turkey-Chili/Detail.aspx
p2204
(lp2205
Vvegetable oil
p2206
ag420
aVtaco seasoning mix
p2207
aVcoriander
p2208
aVoregano
p2209
aVchili pepper flake
p2210
ag67
ag6
aVsalsa
p2211
aVgreen chile pepper
p2212
ag10
aVgreen bell pepper
p2213
aVzucchini
p2214
aVsour cream
p2215
ag64
atp2216
sV40178
p2217
(VPesto Orecchiette With Chicken Sausage
p2218
Vhttp://static.food2fork.com/pastapeassausage_3003103509b.jpg
p2219
Vhttp://www.realsimple.com/food-recipes/browse-all-recipes/pesto-orecchiette-chicken-sausage-00000000056394/index.html
p2220
(lp2221
Vorecchiette
p2222
ag65
ag629
aVolive oil
p2223
ag6
aVpesto
p2224
aVparmesan
p2225
atp2226
sV18d059
p2227
(VMung Bean Hummus
p2228
Vhttp://static.food2fork.com/mung_bean_hummus_recipe617f.jpg
p2229
Vhttp://www.101cookbooks.com/archives/mung-bean-hummus-recipe.html
p2230
(lp2231
g6
ag179
aVtahini paste
p2232
aVgarlic
p2233
aVsea salt
p2234
aNaVserve shallot olive oil drizzle
p2235
atp2236
sVbe1038
p2237
(VBurgundy Mushrooms
p2238
Vhttp://static.food2fork.com/mushrooms3f0f7.jpg
p2239
Vhttp://thepioneerwoman.com/cooking/2010/09/burgundy-mushrooms/
p2240
(lp2241
g38
ag94
aVworcestershire sauce
p2242
ag13
aVblack pepper
p2243
aVboiling
p2244
ag91
ag6
aVdill seed
p2245
aVgarlic
p2246
aVsalt
p2247
atp2248
sV26353
p2249
(VReal Homemade Tamales
p2250
Vhttp://static.food2fork.com/4172135796.jpg
p2251
Vhttp://allrecipes.com/Recipe/Real-Homemade-Tamales/Detail.aspx
p2252
(lp2253
Nag987
ag10
aVgarlic
p2254
aVcalifornia chile pod
p2255
aVsalt
p2256
aVnbsp
p2257
aVmasa harina
p2258
ag6
aVbaking powder
p2259
aVlard
p2260
ag512
aVsour cream
p2261
atp2262
sV47101
p2263
(VMy Favorite Meatloaf
p2264
Vhttp://static.food2fork.com/5007085748_7400c77973_ob554.jpg
p2265
Vhttp://thepioneerwoman.com/cooking/2010/09/my-favorite-meatloaf/
p2266
(lp2267
Nag95
ag21
ag6
aVparmesan cheese
p2268
aVseasoned salt
p2269
aVsalt
p2270
aVblack pepper
p2271
aVflat-leaf parsley
p2272
ag22
ag206
aVketchup
p2273
ag143
aVdry mustard
p2274
aVtabasco
p2275
atp2276
sV35646
p2277
(VThe Perfect Roast Beef
p2278
Vhttp://static.food2fork.com/The2BPerfect2BRoast2BBeef2B5002B739699320a8b.jpg
p2279
Vhttp://www.closetcooking.com/2011/11/perfect-roast-beef.html
p2280
(lp2281
g6
aVsalt
p2282
aVpepper
p2283
ag13
ag512
aNag94
atp2284
sV055eb1
p2285
(VBeef Stew with Potatoes and Carrots
p2286
Vhttp://static.food2fork.com/3509357969.jpg
p2287
Vhttp://www.epicurious.com/recipes/food/views/Beef-Stew-with-Potatoes-and-Carrots-350935
p2288
(lp2289
g6
aVolive oil
p2290
ag11
ag90
ag10
aVgarlic
p2291
ag67
aVbalsamic vinegar
p2292
ag13
aVturkish bay leaf california
p2293
aVthyme sprig
p2294
aNag49
ag21
atp2295
sV36991
p2296
(VSpicy Vegetarian Chili
p2297
Vhttp://static.food2fork.com/vegetarianchilinew300x200b7e9cc1d.jpg
p2298
Vhttp://www.simplyrecipes.com/recipes/spicy_vegetarian_chili/
p2299
(lp2300
V-pound eggplant
p2301
aVolive oil
p2302
ag10
aVgarlic
p2303
aVzucchini
p2304
aVred bell pepper
p2305
aVjalapeo pepper
p2306
ag67
aVcumin
p2307
aVchili powder
p2308
aVoregano
p2309
aVfennel seed
p2310
ag6
ag179
ag143
aVcilantro
p2311
aVsalt
p2312
aVfreshly ground black pepper
p2313
atp2314
sVaf4f43
p2315
(VBacon S&#39;mores Recipe
p2316
Vhttp://static.food2fork.com/campfire_dessert_620x413_bacon_smoresb895.jpg
p2317
Vhttp://www.chow.com/recipes/31066-bacon-smores
p2318
(lp2319
Vmarshmallow
p2320
ag1217
ag95
ag6
atp2321
sV8d4118
p2322
(VCornish pasties
p2323
Vhttp://static.food2fork.com/7776_MEDIUMf01c.jpg
p2324
Vhttp://www.bbcgoodfood.com/recipes/7776/cornish-pasties
p2325
(lp2326
g94
aVlard
p2327
ag25
ag22
ag6
ag10
ag49
aVswede
p2328
aVblack pepper
p2329
atp2330
sV441627
p2331
(VPhilly Cheesesteaks
p2332
Vhttp://static.food2fork.com/cheesesteaks4b73.jpg
p2333
Vhttp://thepioneerwoman.com/cooking/2013/08/philly-cheesesteaks/
p2334
(lp2335
NaVblack pepper
p2336
aVcayenne pepper
p2337
ag95
ag94
ag1277
ag6
ag10
aVgreen bell pepper
p2338
aVyellow bell pepper
p2339
aVred bell pepper
p2340
aVspicy mustard
p2341
atp2342
sV4cf6b7
p2343
(VPot Pie
p2344
Vhttp://static.food2fork.com/potpied588.jpg
p2345
Vhttp://thepioneerwoman.com/cooking/2013/08/pot-pie/
p2346
(lp2347
g94
ag10
ag11
ag90
ag6
ag25
ag91
ag13
aVturmeric
p2348
aVsalt
p2349
aVpepper
p2350
aVthyme
p2351
aVhalf-and-half cream
p2352
aVunbaked pie crust
p2353
ag22
aNatp2354
sV41454
p2355
(VFrench Onion Soup Dip
p2356
Vhttp://static.food2fork.com/French2BOnion2BSoup2BDip2B5002B521577cc42d7.jpg
p2357
Vhttp://www.closetcooking.com/2013/02/french-onion-soup-dip.html
p2358
(lp2359
Voil
p2360
ag10
ag13
ag6
aVgarlic
p2361
aVthyme
p2362
aVsour cream
p2363
aVmayonnaise
p2364
ag179
aVworcestershire sauce
p2365
aVgruyere
p2366
aVsalt
p2367
atp2368
sV35249
p2369
(VCorned Beef Grilled Cheese Sandwich with Guinness Caramelized Onions
p2370
Vhttp://static.food2fork.com/Corned2BBeef2BSandwich2Bwith2BGuinness2BCaramelized2BOnions2Band2BGrainy2BMustard2B5002B8141fa33d765.jpg
p2371
Vhttp://www.closetcooking.com/2012/03/corned-beef-grilled-cheese-sandwich.html
p2372
(lp2373
Voil
p2374
ag10
aVguinness
p2375
aVworcestershire sauce
p2376
aVgrainy mustard
p2377
ag94
aVrye
p2378
ag64
ag6
atp2379
sV557cd2
p2380
(VEasy Apple Crisp with Oatmeal Streusel Recipe
p2381
Vhttp://static.food2fork.com/11416_RecipeImage_620x413_apple_crisp7a8c.jpg
p2382
Vhttp://www.chow.com/recipes/11416-apple-crisp-with-oatmeal-streusel
p2383
(lp2384
g405
ag143
aVcinnamon
p2385
aVsalt
p2386
ag6
ag25
ag94
atp2387
sVef4fd2
p2388
(VChilli con carne
p2389
Vhttp://static.food2fork.com/3228_MEDIUM5ea0.jpg
p2390
Vhttp://www.bbcgoodfood.com/recipes/3228/chilli-con-carne
p2391
(lp2392
Voil
p2393
ag10
aVred pepper
p2394
aVgarlic
p2395
aVheaped chilli powder
p2396
aVpaprika
p2397
aVcumin
p2398
ag6
ag67
aVmarjoram
p2399
ag143
ag65
ag79
aVsoured cream
p2400
atp2401
sV29102
p2402
(VSlow Cooker Taco Soup
p2403
Vhttp://static.food2fork.com/397705fb71.jpg
p2404
Vhttp://allrecipes.com/Recipe/Slow-Cooker-Taco-Soup/Detail.aspx
p2405
(lp2406
g6
ag10
ag65
ag512
ag67
aNaVdiced green chile pepper
p2407
aVtaco seasoning mix
p2408
atp2409
sV28878
p2410
(VSlow Cooker Beef Stroganoff
p2411
Vhttp://static.food2fork.com/569446a2c8.jpg
p2412
Vhttp://allrecipes.com/Recipe/Slow-Cooker-Beef-Stroganoff-I/Detail.aspx
p2413
(lp2414
g6
ag38
ag10
aVworcestershire sauce
p2415
aNaVcream cheese
p2416
atp2417
sV47857
p2418
(VPumpkin and Rice Soup
p2419
Vhttp://static.food2fork.com/pumpkin_rice_soup09d2.jpg
p2420
Vhttp://www.101cookbooks.com/archives/pumpkin-and-rice-soup-recipe.html
p2421
(lp2422
g94
ag10
aVshallot
p2423
aVserrano chile
p2424
aVsea salt
p2425
aVpumpkin squash flesh
p2426
aVginger juice
p2427
ag6
ag691
atp2428
sV47946
p2429
(VHeather
p2430
Vhttp://static.food2fork.com/heathers_quinoa5928.jpg
p2431
Vhttp://www.101cookbooks.com/archives/heathers-quinoa-recipe.html
p2432
(lp2433
Vsplash extra virgin olive oil
p2434
aVsea salt
p2435
aVshallot
p2436
ag6
ag512
aVkale
p2437
aVextra-firm nigari tofu
p2438
aNaVpesto
p2439
aVpumpkin seed
p2440
ag67
atp2441
sV47853
p2442
(VRoasted Vegetable Orzo
p2443
Vhttp://static.food2fork.com/roasted_vegetable_orzo6e12.jpg
p2444
Vhttp://www.101cookbooks.com/archives/roasted-vegetable-orzo-recipe.html
p2445
(lp2446
Vdelicata squash
p2447
aVshallot
p2448
ag94
aVsea salt
p2449
aVgarlic
p2450
aVkale leaf
p2451
ag6
ag691
aVserving slivered scallion
p2452
atp2453
sV47852
p2454
(VPosole in Broth
p2455
Vhttp://static.food2fork.com/posole_in_broth_recipe234a.jpg
p2456
Vhttp://www.101cookbooks.com/archives/posole-in-broth-recipe.html
p2457
(lp2458
NaVposole hominy
p2459
ag10
aVgreat-tasting broth
p2460
aVserrano chile
p2461
ag6
aVbunch scallion
p2462
aVserve olive
p2463
atp2464
sV47851
p2465
(VMoroccan Carrot and Chickpea Salad
p2466
Vhttp://static.food2fork.com/moroccan_carrot_salad_recipe41be.jpg
p2467
Vhttp://www.101cookbooks.com/archives/moroccan-carrot-and-chickpea-salad-recipe.html
p2468
(lp2469
NaVcumin seed
p2470
aVextra virgin olive oil
p2471
ag179
aVhoney
p2472
aVsea salt
p2473
aVcayenne pepper
p2474
ag11
ag6
aVpluots
p2475
aVmint
p2476
aVserving lot toasted almond
p2477
atp2478
sV47850
p2479
(VKale Rice Bowl
p2480
Vhttp://static.food2fork.com/kale_rice_bowl_recipe0b75.jpg
p2481
Vhttp://www.101cookbooks.com/archives/kale-rice-bowl-recipe.html
p2482
(lp2483
g94
aVbunch kale
p2484
ag6
aNaVcaper
p2485
ag22
ag691
aVbig drizzle good extra virgin olive oil
p2486
aVlot
p2487
aVza'atar
p2488
aVtoasted sesame seed
p2489
atp2490
sV64ee7a
p2491
(VSlow Cooker Chicken and Wild Rice Soup
p2492
Vhttp://static.food2fork.com/SlowCookerChickenandWildRiceSoup34153.jpg
p2493
Vhttp://www.twopeasandtheirpod.com/slow-cooker-chicken-and-wild-rice-soup/
p2494
(lp2495
g10
ag11
ag90
aVcloved garlic
p2496
ag6
aVbay leaf
p2497
aVthyme
p2498
aVsalt
p2499
aVblack pepper
p2500
ag91
aVparsley
p2501
atp2502
sV12481
p2503
(VEasy Yet Romantic Filet Mignon
p2504
Vhttp://static.food2fork.com/587653a60a.jpg
p2505
Vhttp://allrecipes.com/Recipe/Easy-Yet-Romantic-Filet-Mignon/Detail.aspx
p2506
(lp2507
g6
aVolive oil
p2508
ag10
aVsalt
p2509
aVpepper
p2510
aVshallot
p2511
ag206
atp2512
sV0c965f
p2513
(VMelt-in-your-mouth shin stew
p2514
Vhttp://static.food2fork.com/337_1_1349093216_lrg95ee.jpg
p2515
Vhttp://www.jamieoliver.com/recipes/beef-recipes/melt-in-your-mouth-shin-stew
p2516
(lp2517
Volive oil
p2518
ag10
ag11
ag90
aVgarlic
p2519
aVfew sprig rosemary
p2520
aVbay leaf
p2521
aVporcini
p2522
aVstick cinnamon
p2523
ag6
aVsea salt
p2524
aVblack pepper
p2525
ag25
ag67
aVbottle chianti
p2526
atp2527
sV13403
p2528
(VFlatlander Chili
p2529
Vhttp://static.food2fork.com/327343ead1.jpg
p2530
Vhttp://allrecipes.com/Recipe/Flatlander-Chili/Detail.aspx
p2531
(lp2532
g6
ag67
ag10
ag90
aVgreen bell pepper
p2533
aVchili powder
p2534
aVcumin
p2535
aVgarlic powder
p2536
aVsalt
p2537
aVblack pepper
p2538
aVoregano
p2539
ag143
aVcayenne pepper
p2540
ag65
atp2541
sV017218
p2542
(VSouthwestern Stuffed Portobello Mushrooms with Cumin Black Beans {Vegetarian}
p2543
Vhttp://static.food2fork.com/SouthwesternPortobelloMushrooms5fd1.jpg
p2544
Vhttp://www.cookincanuck.com/2013/08/southwestern-stuffed-portobello-mushroom-recipe-with-cumin-black-beans-vegetarian/
p2545
(lp2546
g13
aVolive oil
p2547
aVsalt
p2548
aVblack pepper
p2549
ag38
ag65
aVcumin
p2550
aVcilantro more garnish
p2551
aVgarlic
p2552
aVred bell pepper
p2553
aVjalapeno pepper
p2554
ag6
aVqueso fresco
p2555
aVsalsa
p2556
aVdiced avocado
p2557
atp2558
sV04abed
p2559
(VGreek Farro and Chickpea Salad with Herbed Yogurt
p2560
Vhttp://static.food2fork.com/greekfarroandchickpeasaladwithherbedyogurtb935.jpg
p2561
Vhttp://cookieandkate.com/2013/greek-farro-and-chickpea-salad-with-herbed-yogurt/
p2562
(lp2563
Vfarro
p2564
aVolive oil
p2565
aVgarlic
p2566
aVfine-grain sea salt
p2567
ag691
aVlightly packed mint
p2568
aVlightly packed dill
p2569
ag179
aVsalt
p2570
aVmixed green
p2571
ag67
aS'cucumbers'
p2572
ag10
aVkalamata olive
p2573
ag6
aVavocado
p2574
atp2575
sV690
p2576
(VAddictive Sweet Potato Burritos
p2577
Vhttp://static.food2fork.com/42134272.jpg
p2578
Vhttp://allrecipes.com/Recipe/Addictive-Sweet-Potato-Burritos/Detail.aspx
p2579
(lp2580
Vvegetable oil
p2581
ag10
aVgarlic
p2582
ag65
aNaVchili powder
p2583
aVcumin
p2584
aVprepared mustard
p2585
aVcayenne pepper
p2586
aVsoy sauce
p2587
ag6
ag25
ag64
atp2588
sV39468
p2589
(VChicken, Spinach, and Noodle Casserole
p2590
Vhttp://static.food2fork.com/chickenspinachcasserole_3008fb4a80c.jpg
p2591
Vhttp://www.realsimple.com/food-recipes/browse-all-recipes/chicken-noodle-casserole-00100000075552/index.html
p2592
(lp2593
g94
ag25
ag95
aVsour cream
p2594
aVkosher salt black pepper
p2595
ag22
ag21
ag6
aVspinach
p2596
atp2597
sV35768
p2598
(VBasil Chicken in Coconut Curry Sauce
p2599
Vhttp://static.food2fork.com/basilchickencoconutcurry290x200cabc2f98.jpg
p2600
Vhttp://www.simplyrecipes.com/recipes/basil_chicken_in_coconut_curry_sauce/
p2601
(lp2602
Vsalt
p2603
aVcoriander
p2604
aVcumin
p2605
aNaVcinnamon
p2606
aVcardamom
p2607
aVblack pepper
p2608
aVchili powder
p2609
aVturmeric
p2610
ag10
aVgarlic
p2611
aVjalapeo pepper
p2612
aVolive oil grapeseed oil
p2613
ag95
aVcornstarch
p2614
aVworcestershire sauce
p2615
aVbasil leaf
p2616
aVfinely ginger
p2617
ag6
atp2618
sV26076
p2619
(VQuinoa Side Dish
p2620
Vhttp://static.food2fork.com/36360842ce.jpg
p2621
Vhttp://allrecipes.com/Recipe/Quinoa-Side-Dish/Detail.aspx
p2622
(lp2623
g94
ag6
aVvegetable broth
p2624
aVgarlic
p2625
aVparsley
p2626
aVthyme
p2627
aVsalt
p2628
ag10
ag179
atp2629
sV47923
p2630
(VDouble Broccoli Quinoa
p2631
Vhttp://static.food2fork.com/broccoli_pesto_quinoa4c75.jpg
p2632
Vhttp://www.101cookbooks.com/archives/double-broccoli-quinoa-recipe.html
p2633
(lp2634
g6
ag402
aVgarlic
p2635
aVsliced slivered almond
p2636
aVparmesan
p2637
aVbig salt
p2638
ag179
aVolive oil
p2639
aVheavy cream
p2640
aVoptional topping slivered basil
p2641
aVcrumbled feta goat cheese
p2642
atp2643
sV9020e7
p2644
(VSucculent braised venison
p2645
Vhttp://static.food2fork.com/1935_MEDIUM2e08.jpg
p2646
Vhttp://www.bbcgoodfood.com/recipes/1935/succulent-braised-venison
p2647
(lp2648
g11
aVturnip swede
p2649
ag10
ag90
ag94
aVgarlic
p2650
aS'chicken legs'
p2651
ag25
aS'jelly '
p2652
ag13
ag6
aVthyme sprig
p2653
aVbay leaf
p2654
atp2655
sV54450
p2656
(VQuinoa Salad with Roasted Sweet Potatoes, Kale, Dried Cranberries, & Red Onion
p2657
Vhttp://static.food2fork.com/quinoasweetpotatokalesalad9b65.jpg
p2658
Vhttp://www.twopeasandtheirpod.com/quinoa-salad-with-roasted-sweet-potatoes-kale-dried-cranberries-red-onion/
p2659
(lp2660
g49
ag10
aVolive oil
p2661
aVsalt
p2662
aVpepper
p2663
aVkale
p2664
aVbalsamic vinegar
p2665
ag6
aNaVcranberry
p2666
atp2667
sV36873
p2668
(VSalmon Mousse
p2669
Vhttp://static.food2fork.com/salmonmousse520a300x200d796ef87.jpg
p2670
Vhttp://www.simplyrecipes.com/recipes/salmon_mousse/
p2671
(lp2672
g6
ag90
aVdiced green pepper
p2673
ag10
aVdill
p2674
aVmayonnaise
p2675
ag691
aVcream cheese
p2676
ag67
aVtabasco sauce
p2677
ag179
aNaVunflavored
p2678
aVone greased stick-free mold
p2679
atp2680
sV7fcd69
p2681
(VChicken Spaghetti
p2682
Vhttp://static.food2fork.com/496652595_50b3c3e3b92634.jpg
p2683
Vhttp://thepioneerwoman.com/cooking/2007/06/chicken_spaghet/
p2684
(lp2685
g6
aS'spaghetti and macaroni'
p2686
ag38
ag64
aVfinely diced green pepper
p2687
ag10
aVdiced pimento
p2688
ag91
aVlawry seasoned salt
p2689
aVcayenne pepper
p2690
aVsalt
p2691
aVpepper
p2692
atp2693
sV12438
p2694
(VEasy Tuna Casserole
p2695
Vhttp://static.food2fork.com/668635275c.jpg
p2696
Vhttp://allrecipes.com/Recipe/Easy-Tuna-Casserole/Detail.aspx
p2697
(lp2698
g6
aS'tuna'
p2699
ag91
ag64
ag10
atp2700
sVfa936b
p2701
(VMung Yoga Bowl
p2702
Vhttp://static.food2fork.com/mung_yoga_bowl8026.jpg
p2703
Vhttp://www.101cookbooks.com/archives/mung-yoga-bowl-recipe.html
p2704
(lp2705
g691
aVginger
p2706
aVserrano chile
p2707
aVcilantro
p2708
ag10
aVspinach
p2709
aVscant sea salt
p2710
ag6
aVtoasted almond pepitas
p2711
aVwarmed olive oil
p2712
aVsmoked paprika
p2713
aVlot squeezed lime juice
p2714
atp2715
sV830b00
p2716
(VWild Rice and Edamame Salad Recipe
p2717
Vhttp://static.food2fork.com/29466_rice_edamame_salad_2_6209beb.jpg
p2718
Vhttp://www.chow.com/recipes/29466-wild-rice-and-edamame-salad
p2719
(lp2720
Vblanched slivered almond
p2721
aVwhite sesame seed
p2722
aNaVscallion
p2723
ag6
ag11
aVcranberry
p2724
aVolive oil
p2725
aVtoasted sesame oil
p2726
ag79
aVhoney
p2727
aVkosher salt
p2728
aVblack pepper
p2729
atp2730
sV36299
p2731
(VFeijoada, Brazilian Black Bean Stew
p2732
Vhttp://static.food2fork.com/feijoadabrazilianbeanstew300x2008326b049.jpg
p2733
Vhttp://www.simplyrecipes.com/recipes/feijoada_brazilian_black_bean_stew/
p2734
(lp2735
g65
aVolive oil
p2736
ag987
ag10
aVgarlic
p2737
ag6
ag376
ag39
aVbay leaf
p2738
aNag67
aVsalt
p2739
atp2740
sV46980
p2741
(VPork Roast with Apples and Onions
p2742
Vhttp://static.food2fork.com/porkroastapplese1e2.jpg
p2743
Vhttp://thepioneerwoman.com/cooking/2011/11/pork-roast-with-apples-and-onions/
p2744
(lp2745
g987
aVolive oil
p2746
aVsalt
p2747
aVpepper
p2748
ag405
ag6
ag10
aVbay leaf
p2749
ag79
aNag91
ag94
aVpecan
p2750
atp2751
sV36290
p2752
(VEnchiladas
p2753
Vhttp://static.food2fork.com/enchiladas266x2008db6522c.jpg
p2754
Vhttp://www.simplyrecipes.com/recipes/enchiladas/
p2755
(lp2756
g249
ag512
ag10
aVgarlic
p2757
ag6
ag67
aNaVolive oil
p2758
aVjack cheese
p2759
aVcilantro
p2760
aVsour cream
p2761
ag208
atp2762
sV47639
p2763
(VThinnest Oatmeal Cookies
p2764
Vhttp://static.food2fork.com/thin_oatmeal_cookies53f8.jpg
p2765
Vhttp://www.101cookbooks.com/archives/thinnest-oatmeal-cookies-recipe.html
p2766
(lp2767
g25
aVbaking powder
p2768
aVsea salt
p2769
aVfennel seed
p2770
aVpoppy seed
p2771
ag94
ag6
ag22
ag143
atp2772
sV35356
p2773
(VGyro Grilled Cheese Sandwich (aka Gyro Melt)
p2774
Vhttp://static.food2fork.com/Gyro2BGrilled2BCheese2B2528aka2BGyro2BMelt25292B5002B010057580e31.jpg
p2775
Vhttp://www.closetcooking.com/2012/04/gyro-grilled-cheese-sandwich-aka-gyro.html
p2776
(lp2777
g21
ag94
aVkasseri mozzarella
p2778
aVfeta
p2779
ag6
ag67
ag10
aVtzatziki
p2780
atp2781
sVfe97a3
p2782
(VTaco Veggie Burgers
p2783
Vhttp://static.food2fork.com/205xNxglutenfreetacoveggieburger24e0.jpg.pagespeed.ic.FFxbXDd5GB.jpg
p2784
Vhttp://www.healthy-delicious.com/2014/10/gluten-free-taco-veggie-burger/
p2785
(lp2786
g11
ag10
ag6
ag65
aVpacket mccormick gluten free taco seasoning
p2787
ag64
ag1277
aVsour cream
p2788
aVtaco sauce
p2789
aVavocado
p2790
ag67
atp2791
sV47149
p2792
(VPassover Brisket
p2793
Vhttp://static.food2fork.com/4475462524_0903f9b850d4ea.jpg
p2794
Vhttp://thepioneerwoman.com/cooking/2010/03/passover-brisket-i-think/
p2795
(lp2796
g6
aVbottle ketchup chili sauce make sure kosher
p2797
ag10
atp2798
sV47020
p2799
(VPollo Asado
p2800
Vhttp://static.food2fork.com/polloasado2ab3.jpg
p2801
Vhttp://thepioneerwoman.com/cooking/2011/06/pollo-asado/
p2802
(lp2803
Volive oil
p2804
aS'oranges'
p2805
ag179
aVlime
p2806
aVgarlic
p2807
ag10
aVsalt
p2808
aVblack pepper
p2809
ag91
ag25
ag512
aVpico gallo
p2810
aVguacamole
p2811
ag6
atp2812
sV9307
p2813
(VColleen's Slow Cooker Jambalaya
p2814
Vhttp://static.food2fork.com/2585134ca2.jpg
p2815
Vhttp://allrecipes.com/Recipe/Colleens-Slow-Cooker-Jambalaya/Detail.aspx
p2816
(lp2817
Nag376
ag67
ag10
aVgreen bell pepper
p2818
ag90
ag91
aVoregano
p2819
aVparsley
p2820
aVcajun seasoning
p2821
aVcayenne pepper
p2822
aVthyme
p2823
ag6
atp2824
sV47146
p2825
(VSloppy Joes
p2826
Vhttp://static.food2fork.com/4512963320_bba26f6a97_oe22e.jpg
p2827
Vhttp://thepioneerwoman.com/cooking/2010/04/sloppy-joes/
p2828
(lp2829
g94
ag6
ag10
aVgreen bell pepper
p2830
aVgarlic
p2831
aVketchup
p2832
aNag143
aVchili powder
p2833
aVdry mustard
p2834
aVred pepper flake
p2835
aVworcestershire sauce
p2836
ag67
aVtabasco sauce optional
p2837
aVsalt
p2838
aVblack pepper
p2839
ag1277
atp2840
sV56823c
p2841
(VLadd's Grilled Tenderloin
p2842
Vhttp://static.food2fork.com/ladd40ad.jpg
p2843
Vhttp://thepioneerwoman.com/cooking/2015/07/ladds-grilled-tenderloin/
p2844
(lp2845
g6
ag94
aVseaoned salt
p2846
ag179
atp2847
sV15227
p2848
(VGreek Pasta Salad I
p2849
Vhttp://static.food2fork.com/647060c56c.jpg
p2850
Vhttp://allrecipes.com/Recipe/Greek-Pasta-Salad-I/Detail.aspx
p2851
(lp2852
Volive oil
p2853
ag13
aVgarlic powder
p2854
aVbasil
p2855
aVoregano
p2856
aVblack pepper
p2857
ag143
ag6
ag38
ag67
aVsliced red bell pepper
p2858
aVcrumbled feta cheese
p2859
ag10
aVblack olive
p2860
ag376
atp2861
sV2a9615
p2862
(VLasagna Rollups
p2863
Vhttp://static.food2fork.com/rollups3519b.jpg
p2864
Vhttp://thepioneerwoman.com/cooking/2014/05/lasagna-rollups/
p2865
(lp2866
Vlasagna noodle
p2867
aNaVolive oil
p2868
ag10
aVgarlic
p2869
ag6
ag376
aVsalt
p2870
aVblack pepper
p2871
aVparsley
p2872
aVbasil
p2873
aVfilling
p2874
ag22
aVparmesan cheese
p2875
aVpepper
p2876
aVmozzarella
p2877
atp2878
sV54525
p2879
(VCilantro Lime Rice
p2880
Vhttp://static.food2fork.com/cilantrolimericefd53.jpg
p2881
Vhttp://www.twopeasandtheirpod.com/cilantro-lime-rice/
p2882
(lp2883
g6
ag94
aVgarlic
p2884
aVsqueezed lime juice
p2885
aVvegetable broth
p2886
aNag143
aVcilantro
p2887
atp2888
sV33275
p2889
(VTuna Noodle Casserole from Scratch
p2890
Vhttp://static.food2fork.com/5356993458.jpg
p2891
Vhttp://allrecipes.com/Recipe/Tuna-Noodle-Casserole-From-Scratch/Detail.aspx
p2892
(lp2893
g94
ag6
ag10
ag90
aVgarlic
p2894
ag38
ag25
ag95
aVsalt
p2895
aVpepper
p2896
ag2699
ag629
ag21
ag64
atp2897
sV35517
p2898
(VReuben Quesadillas
p2899
Vhttp://static.food2fork.com/ReubenQuesadillas500dd54fe66.jpg
p2900
Vhttp://www.closetcooking.com/2010/03/reuben-quesadillas.html
p2901
(lp2902
Vtortilla
p2903
aVswiss cheese
p2904
ag6
aVsauerkraut
p2905
aVrussian dressing thousand island dressing
p2906
atp2907
sVabaffb
p2908
(VAll Recipes
p2909
Vhttp://static.food2fork.com/spicysweetpotatohummus6550x82169da.jpg
p2910
Vhttp://cookieandkate.com/2011/spicy-sweet-potato-hummus/
p2911
(lp2912
g49
aVolive oil
p2913
ag6
aVtahini
p2914
aVgarlic
p2915
ag179
aVsea salt
p2916
aVcayenne pepper start with
p2917
aVsmoked paprika
p2918
aVcumin
p2919
atp2920
sV35519
p2921
(VReuben Soup
p2922
Vhttp://static.food2fork.com/Reuben2BSoup2B5002B8764a93cf294.jpg
p2923
Vhttp://www.closetcooking.com/2012/03/reuben-soup.html
p2924
(lp2925
g94
ag10
aVgarlic
p2926
aVred pepper flake
p2927
ag25
ag91
ag6
aVsauerkraut
p2928
ag49
aVworcestershire sauce
p2929
aVpickling spice
p2930
aVcaraway seed
p2931
aVbay leaf
p2932
aVheavy cream
p2933
aVdark rye
p2934
aVswiss cheese
p2935
atp2936
sVce08ac
p2937
(VAll Recipes
p2938
Vhttp://static.food2fork.com/brusselssproutswithcranberries5550x82168b5.jpg
p2939
Vhttp://cookieandkate.com/2012/roasted-brussels-sprouts-with-cranberries-and-barley/
p2940
(lp2941
Vbrussels sprout
p2942
aVolive oil
p2943
aVsalt
p2944
aVcranberry cranberry
p2945
aVcrumbled gorgonzola goat cheese
p2946
aVtoasted pecan
p2947
ag6
aVmaple syrup
p2948
aVbalsamic vinegar
p2949
atp2950
sVbc8acd
p2951
(VA cracking burger
p2952
Vhttp://static.food2fork.com/7_1_1350663561_lrgf1c4.jpg
p2953
Vhttp://www.jamieoliver.com/recipes/beef-recipes/a-cracking-burger
p2954
(lp2955
g1217
aVsprig flat-leaf parsley
p2956
ag6
ag22
aVsea salt
p2957
aVblack pepper
p2958
aVolive oil
p2959
ag1126
ag67
ag10
aVgherkin
p2960
aVgood-quality burger bun
p2961
ag64
aVheaped dijon mustard
p2962
atp2963
sVa3c2a7
p2964
(VLayered squash, barley &amp; spinach pie
p2965
Vhttp://static.food2fork.com/8639_MEDIUMa9fc.jpg
p2966
Vhttp://www.bbcgoodfood.com/recipes/8639/layered-squash-barley-and-spinach-pie
p2967
(lp2968
Vbutternut squash
p2969
aVolive oil
p2970
ag10
aVgarlic
p2971
ag38
ag6
aVpearl barley
p2972
aVvegetable stock
p2973
aVdark soy sauce
p2974
ag179
aVtub ricotta
p2975
aVfull-fat soft cheese
p2976
ag376
aVspinach
p2977
aVpack parsley
p2978
ag25
ag94
aS'shortening'
p2979
ag95
ag22
aVfew bay leaf
p2980
atp2981
sVd971c8
p2982
(VPower Salad with Lemon Chia Seed Dressing
p2983
Vhttp://static.food2fork.com/PowerSalad2413e.jpg
p2984
Vhttp://www.twopeasandtheirpod.com/power-salad-with-lemon-chia-seed-dressing/
p2985
(lp2986
NaVpacked spinach
p2987
ag49
ag6
aVchickpea
p2988
aValmond
p2989
ag405
ag146
aVavocado
p2990
aVolive oil
p2991
ag179
aVgolden white balsamic vinegar
p2992
aVhoney agave nectar
p2993
aVchia seed
p2994
aVsalt black pepper
p2995
atp2996
sV36639
p2997
(VNew Jersey Italian Hot Dog
p2998
Vhttp://static.food2fork.com/jerseydog300x200be154eab.jpg
p2999
Vhttp://www.simplyrecipes.com/recipes/new_jersey_italian_hot_dog/
p3000
(lp3001
Volive oil
p3002
aVsalt
p3003
ag49
aVgreen pepper
p3004
ag10
aVitalian seasoning
p3005
ag6
aVsandwich bun
p3006
aVmustard
p3007
atp3008
sV432577
p3009
(VBroccoli Wild Rice Casserole
p3010
Vhttp://static.food2fork.com/broccoli7fd8.jpg
p3011
Vhttp://thepioneerwoman.com/cooking/2013/11/broccoli-wild-rice-casserole/
p3012
(lp3013
g6
ag91
ag774
ag38
ag94
ag10
ag11
ag90
ag25
aVheavy cream
p3014
aVsalt
p3015
aVblack pepper
p3016
aVpanko breadcrumb
p3017
atp3018
sV47487
p3019
(VCheese enchiladas: the essence of Tex-Mex
p3020
Vhttp://static.food2fork.com/cheeseenchiladas4d58c72cf.jpg
p3021
Vhttp://homesicktexan.blogspot.com/2007/01/essence-of-tex-mex.html
p3022
(lp3023
Vlard vegetable oil
p3024
ag25
aVblack pepper
p3025
aVkosher salt
p3026
aVpowdered garlic
p3027
aVcumin
p3028
aVoregano
p3029
aVchili power
p3030
ag6
atp3031
sV8b18a4
p3032
(VBerry Quinoa Salad
p3033
Vhttp://static.food2fork.com/BerryQuinoaSalad5972f.jpg
p3034
Vhttp://www.twopeasandtheirpod.com/berry-quinoa-salad/
p3035
(lp3036
Nag2805
ag179
aVlime juice
p3037
aVhoney
p3038
aVfinely mint
p3039
aVfinely basil
p3040
ag6
aVstrawberry
p3041
aVraspberry
p3042
aVblackberry
p3043
aVblueberry
p3044
aVroughly blue diamond honey roasted cinnamon almond
p3045
atp3046
sVe19701
p3047
(VAll Recipes
p3048
Vhttp://static.food2fork.com/stuffedtomatoeswithquinoa9550x8216c84.jpg
p3049
Vhttp://cookieandkate.com/2011/stuffed-tomatoes-with-quinoa/
p3050
(lp3051
g6
ag67
aVquartered artichoke about
p3052
aVfull fat feta
p3053
aVkalamata olive
p3054
aVolive oil
p3055
aVgarlic
p3056
aVsea salt
p3057
atp3058
sV3755
p3059
(VBest Spanish Rice
p3060
Vhttp://static.food2fork.com/66199cf55.jpg
p3061
Vhttp://allrecipes.com/Recipe/Best-Spanish-Rice/Detail.aspx
p3062
(lp3063
Voil
p3064
ag10
ag6
ag91
aVchunky salsa
p3065
atp3066
sV30937
p3067
(VStuffed Cabbage Rolls
p3068
Vhttp://static.food2fork.com/884216a22.jpg
p3069
Vhttp://allrecipes.com/Recipe/Stuffed-Cabbage-Rolls/Detail.aspx
p3070
(lp3071
Nag6
ag146
ag10
ag22
aVsalt
p3072
aVblack pepper
p3073
ag67
atp3074
sVfb6ac1
p3075
(VBobotie
p3076
Vhttp://static.food2fork.com/5109_MEDIUM97ec.jpg
p3077
Vhttp://www.bbcgoodfood.com/recipes/5109/bobotie
p3078
(lp3079
g21
ag10
ag94
aVgarlic
p3080
ag6
aVmadras curry paste
p3081
aVmixed herb
p3082
aNaVallspice berry
p3083
ag629
aVsultana
p3084
aVbay leaf
p3085
ag95
ag22
atp3086
sV36223
p3087
(VDad&#8217;s Stuffed Bell Peppers
p3088
Vhttp://static.food2fork.com/dadsstuffedbellpeppersa300x2000a7cf8d3.jpg
p3089
Vhttp://www.simplyrecipes.com/recipes/dads_stuffed_bell_peppers/
p3090
(lp3091
Vbell pepper
p3092
aVsalt
p3093
aVextra virgin olive oil
p3094
ag10
aVgarlic
p3095
ag6
ag67
aVoregano oregano
p3096
aVpepper
p3097
aVketchup
p3098
aVworcestershire sauce
p3099
aVtabasco sauce
p3100
atp3101
sV631647
p3102
(VAll Recipes
p3103
Vhttp://static.food2fork.com/lemonylentilandchickpeawithradishandherbsda39.jpg
p3104
Vhttp://cookieandkate.com/2014/lemony-lentil-and-chickpea-salad-with-radish-and-herbs/
p3105
(lp3106
Vblack beluga lentil french green lentil
p3107
aVgarlic
p3108
aVolive oil
p3109
ag179
aVdijon mustard
p3110
aVhoney agave nectar
p3111
aVfine-grain sea salt
p3112
aVblack pepper
p3113
ag6
ag892
aVpacked
p3114
aVoptional garnish sliced avocado
p3115
atp3116
sV35488
p3117
(VPot Roast Mushroom Soup
p3118
Vhttp://static.food2fork.com/PotRoastMushroomSoup500826d1f46.jpg
p3119
Vhttp://www.closetcooking.com/2009/01/pot-roast-mushroom-soup.html
p3120
(lp3121
g94
ag10
aVgarlic
p3122
aVthyme
p3123
ag38
ag25
ag13
ag6
ag49
aVparsley
p3124
atp3125
sV339ce3
p3126
(VItalian Turkey, Quinoa & Zucchini Meatballs Recipe in Lettuce Wraps
p3127
Vhttp://static.food2fork.com/MeatballLettuceWrapsSquare5a11.jpg
p3128
Vhttp://www.cookincanuck.com/2013/01/baked-turkey-quinoa-zucchini-meatballs-recipe-in-lettuce-wraps/
p3129
(lp3130
g420
ag6
ag10
aVgarlic
p3131
aVzucchini
p3132
aVitalian parsley
p3133
aVchile flake
p3134
aVsoy sauce
p3135
aVoregano
p3136
aVpepper
p3137
ag22
ag67
ag94
aVfinely parmesan cheese
p3138
atp3139
sV9a6a98
p3140
(VAll Recipes
p3141
Vhttp://static.food2fork.com/mangobreakfastquinoa1550x36897b2.jpg
p3142
Vhttp://cookieandkate.com/2011/breakfast-quinoa/
p3143
(lp3144
g6
ag95
ag1598
ag249
aVoptional sweetener honey
p3145
atp3146
sV6fab1c
p3147
(VPizza Potato Skins
p3148
Vhttp://static.food2fork.com/pizza3464.jpg
p3149
Vhttp://thepioneerwoman.com/cooking/2013/04/pizza-potato-skins/
p3150
(lp3151
g49
aVcanola oil
p3152
ag94
aVkosher salt
p3153
aVjarred marinara pizza sauce
p3154
aVmozzarella cheese
p3155
aVdiced pepperoni
p3156
aVparsley
p3157
ag6
atp3158
sV47987
p3159
(VChristmas Lima Bean Stew
p3160
Vhttp://static.food2fork.com/christmas_lima_bean_stew932c.jpg
p3161
Vhttp://www.101cookbooks.com/archives/christmas-lima-bean-stew-recipe.html
p3162
(lp3163
g65
ag6
aVextra virgin olive oil
p3164
ag90
aVbunch scallion
p3165
ag10
aVgarlic
p3166
aVscant caraway seed
p3167
aVsea salt
p3168
ag67
aVbroth -or combination
p3169
aVoily black olive
p3170
ag179
atp3171
sVbc1b59
p3172
(VBar Tartine Cauliflower Salad
p3173
Vhttp://static.food2fork.com/bar_tartine_cauliflower_salad_recipeb0ff.jpg
p3174
Vhttp://www.101cookbooks.com/archives/bar-tartine-cauliflower-salad-recipe.html
p3175
(lp3176
Nag691
aVunfiltered sunflower oil
p3177
aVgarlic
p3178
ag179
ag13
aVhoney
p3179
aVsea salt
p3180
aVpepper
p3181
aVone -ounce cauliflower
p3182
ag10
ag6
ag38
ag892
aVgreen serrano chile
p3183
aVsunflower seed
p3184
ag629
aVsweet paprika
p3185
atp3186
sVb6d4e8
p3187
(VThe Ultimate Summer Salad Recipe with Dill Buttermilk Dressing
p3188
Vhttp://static.food2fork.com/UltimateSummerSaladdc84.jpg
p3189
Vhttp://www.cookincanuck.com/2014/07/the-ultimate-summer-salad-recipe-with-dill-buttermilk-dressing/
p3190
(lp3191
g691
aVlow-fat buttermilk
p3192
aVdijon mustard
p3193
ag179
aVagave nectar honey
p3194
aVsalt
p3195
aVdill
p3196
ag208
aS'pears'
p3197
ag67
ag10
ag6
aVavocado
p3198
aVblueberry
p3199
ag402
atp3200
sV47989
p3201
(VMixed Mushroom Soup
p3202
Vhttp://static.food2fork.com/mixed_mushroom_soup_recipe7d46.jpg
p3203
Vhttp://www.101cookbooks.com/archives/mixed-mushroom-soup-recipe.html
p3204
(lp3205
g94
ag38
aVsea salt pepper
p3206
ag10
aVshoyu soy sauce
p3207
ag6
aVgood-tasting vegetable broth
p3208
aVtoasted sesame oil
p3209
aVfinely chive
p3210
atp3211
sV21636
p3212
(VPizza Casserole
p3213
Vhttp://static.food2fork.com/5100898cc5.jpg
p3214
Vhttp://allrecipes.com/Recipe/Pizza-Casserole/Detail.aspx
p3215
(lp3216
g6
ag10
aVgarlic
p3217
aVgreen bell pepper
p3218
ag376
aVpizza sauce
p3219
ag95
aVmozzarella cheese
p3220
atp3221
sV36259
p3222
(VEasy Shepherd&#8217;s Pie
p3223
Vhttp://static.food2fork.com/shepherdspie300x2003d240a98.jpg
p3224
Vhttp://www.simplyrecipes.com/recipes/easy_shepherds_pie/
p3225
(lp3226
g1126
ag10
ag11
ag49
ag94
ag6
aVworcestershire sauce
p3227
aVsalt
p3228
atp3229
sV28874
p3230
(VSlow Cooker Beef Stew I
p3231
Vhttp://static.food2fork.com/49092415ec.jpg
p3232
Vhttp://allrecipes.com/Recipe/Slow-Cooker-Beef-Stew-I/Detail.aspx
p3233
(lp3234
g6
ag25
aVsalt
p3235
aVblack pepper
p3236
aVgarlic
p3237
aVbay leaf
p3238
aVpaprika
p3239
aVworcestershire sauce
p3240
ag10
ag49
ag11
ag90
atp3241
sV50331
p3242
(VGrilled Cheese and Short Rib Sandwiches with Pickled Caramelized Onions and Arugula
p3243
Vhttp://static.food2fork.com/mare_grilled_cheese_and_short_rib_sandwiches_with_pickled_caramelized_onions_and_arugula_vc821.jpg
p3244
Vhttp://www.bonappetit.com/recipes/2010/02/grilled_cheese_and_short_rib_sandwiches_with_pickled_caramelized_onions_and_arugula
p3245
(lp3246
g6
ag94
ag90
ag11
ag10
ag13
aVmedium-dry sherry
p3247
aVgarlic
p3248
aVbay leaf
p3249
aVthyme sprig
p3250
ag143
ag21
aVpetit basque monterey
p3251
aVjack cheese
p3252
aVarugula
p3253
atp3254
sV35108
p3255
(VBacon Double Cheese Burger Salad
p3256
Vhttp://static.food2fork.com/Bacon2BDouble2BCheese2BBurger2BSalad2B5002B61668d04f9e9.jpg
p3257
Vhttp://www.closetcooking.com/2012/04/bacon-double-cheese-burger-salad.html
p3258
(lp3259
g206
ag10
aVgarlic
p3260
ag6
aVketchup
p3261
aVmustard
p3262
aVworcestershire sauce
p3263
aVsalt
p3264
aVpepper
p3265
ag13
ag143
aVdijon mustard
p3266
aVhamburger bun
p3267
ag208
ag67
ag64
aVmozzarella
p3268
aVdill pickle
p3269
atp3270
sV0304ff
p3271
(VAll Recipes
p3272
Vhttp://static.food2fork.com/sweetpotatoburritosmotheredwithavocadosauce1f0c.jpg
p3273
Vhttp://cookieandkate.com/2012/sweet-potato-burrito-smothered-in-avocado-salsa-verde/
p3274
(lp3275
g49
aVextra virgin olive oil
p3276
aVcumin
p3277
aVsmoked paprika
p3278
aVcayenne
p3279
aVsea salt black pepper
p3280
aVwheat tortilla
p3281
aVroasted red pepper
p3282
ag6
aVjack cheese
p3283
aVavocado from mexico
p3284
aVmild salsa verde
p3285
aVgarlic
p3286
aVjalapeo
p3287
aVlime
p3288
aVpacked cilantro leaf
p3289
aNaVsea salt
p3290
ag208
ag10
aVfinely jalapeo
p3291
aVsour cream
p3292
atp3293
sV47247
p3294
(VBBQ Meatballs
p3295
Vhttp://static.food2fork.com/3385764631_66b792bc72849b.jpg
p3296
Vhttp://thepioneerwoman.com/cooking/2009/03/bbq-meatballs-comfort-food-to-the-max/
p3297
(lp3298
Vmeatball
p3299
ag6
aVoat
p3300
ag95
ag10
aVsalt
p3301
aVplenty black pepper
p3302
aNaVcooking meatball
p3303
ag25
aVcanola oil
p3304
aVsauce
p3305
aVketchup
p3306
ag143
aVvinegar
p3307
aVworcestershire
p3308
aVtabasco
p3309
atp3310
sV99237a
p3311
(VOrzo Salad with Chickpeas, Cucumbers, Lemon, Dill, & Feta
p3312
Vhttp://static.food2fork.com/WholeWheatOrzoSaladwithCucumbersChickpeasFetaandDill3bcdc.jpg
p3313
Vhttp://www.twopeasandtheirpod.com/orzo-salad-with-chickpeas-cucumbers-lemon-dill-feta/
p3314
(lp3315
g6
aV-ounce chickpea
p3316
ag2572
aVcrumbled feta cheese
p3317
aVdill
p3318
ag10
aNaVolive oil
p3319
ag179
aVgarlic
p3320
aVfinely dill
p3321
aVsalt
p3322
aVfreshly ground black pepper
p3323
atp3324
sV3b4704
p3325
(VLittle Quinoa Patties
p3326
Vhttp://static.food2fork.com/36502969fd.jpg
p3327
Vhttp://www.epicurious.com/recipes/food/views/Little-Quinoa-Patties-365029
p3328
(lp3329
g6
ag22
aVfine-grain sea salt
p3330
aVfinely chive
p3331
ag10
aVparmesan gruyre cheese
p3332
aVgarlic
p3333
ag21
aNag94
atp3334
sV912947
p3335
(VCalifornia Barley Bowl
p3336
Vhttp://static.food2fork.com/barley_salad0314.jpg
p3337
Vhttp://www.101cookbooks.com/archives/california-barley-bowl-recipe.html
p3338
(lp3339
g6
ag65
aVcotija
p3340
aVtoasted almond
p3341
aVscant sea salt
p3342
ag691
ag179
aVchive
p3343
aVsea salt
p3344
aVavocado
p3345
atp3346
sV47184
p3347
(VBraised Short Ribs
p3348
Vhttp://static.food2fork.com/4101480755_98f352e336b174.jpg
p3349
Vhttp://thepioneerwoman.com/cooking/2009/11/braised-short-ribs-heaven-on-a-plate/
p3350
(lp3351
g6
aVkosher salt pepper
p3352
ag25
aVpiece pancetta
p3353
aVolive oil
p3354
ag10
ag11
aVshallot
p3355
ag13
aVsprig thyme
p3356
aVsprig rosemary
p3357
ag49
ag94
aVcream cheese
p3358
aVhalf-and-half
p3359
aVlawry seasoned salt
p3360
aVblack pepper
p3361
atp3362
sV47187
p3363
(VWhite Chicken Enchiladas
p3364
Vhttp://static.food2fork.com/4060528829_67db52b435ebe3.jpg
p3365
Vhttp://thepioneerwoman.com/cooking/2009/11/white-chicken-enchiladas/
p3366
(lp3367
g6
ag91
aVcanola oil
p3368
ag512
ag10
aVgreen chilies
p3369
aVjalapeno
p3370
aVpaprika
p3371
aVheavy cream
p3372
ag94
ag25
aVsour cream
p3373
aVmonterey jack cheese
p3374
aVsalt
p3375
aVpepper
p3376
aVpicante sauce
p3377
aVcilantro
p3378
atp3379
sV49482
p3380
(VFaux Pho
p3381
Vhttp://static.food2fork.com/FauxPho6462e78.jpg
p3382
Vhttp://www.bonappetit.com/recipes/quick-recipes/2011/12/faux-pho
p3383
(lp3384
Vvegetable oil
p3385
ag10
aVgarlic
p3386
aVpiece peeled ginger
p3387
ag6
aVstar anise
p3388
aVndash cinnamon stick
p3389
ag38
aVscallion
p3390
aVkosher salt
p3391
aVinstant ramen preferably not fried noodle only
p3392
ag65
atp3393
sV510c86
p3394
(VBeef Nachos with Slow Cooker Chili Con Carne
p3395
Vhttp://static.food2fork.com/IMG_3926180x1802c88.jpg
p3396
Vhttp://www.aspicyperspective.com/2013/01/beef-nachos-slow-cooker-chili-con-carne.html
p3397
(lp3398
Nag6
aVred enchilada sauce
p3399
ag405
ag10
aVgarlic
p3400
aVsalt
p3401
aVred pepper
p3402
ag206
ag146
aVmexican style cheese blend
p3403
aVsalsa
p3404
aVavocado
p3405
ag67
aVsliced black olive
p3406
aVcilantro
p3407
aVsour cream
p3408
atp3409
sV47068
p3410
(VMeatballs with Peppers and Pineapple
p3411
Vhttp://static.food2fork.com/5301946098_b8bf24c98e_od391.jpg
p3412
Vhttp://thepioneerwoman.com/cooking/2010/12/meatballs-with-peppers-and-pineapple/
p3413
(lp3414
g6
ag10
ag22
ag21
aVkosher salt
p3415
aVblack pepper
p3416
aVred pepper
p3417
ag25
aVcanola oil
p3418
aVgreen bell pepper
p3419
aVpineapple chunk
p3420
aVsoy sauce
p3421
ag13
ag143
aVcornstarch
p3422
aVsalt
p3423
atp3424
sV47062
p3425
(VBeef Stew with Beer and Paprika
p3426
Vhttp://static.food2fork.com/5337021451_e35711f343_o3593.jpg
p3427
Vhttp://thepioneerwoman.com/cooking/2011/01/beef-stew-with-beer-and-paprika/
p3428
(lp3429
Volive oil
p3430
ag94
aVmeat
p3431
ag10
aVgarlic
p3432
aVbeer
p3433
ag6
aVadditional
p3434
aVworcestershire sauce
p3435
ag67
aVpaprika
p3436
aVkosher salt
p3437
aVblack pepper
p3438
ag143
ag11
ag49
aVparsley
p3439
atp3440
sV46963
p3441
(VSpicy Whiskey BBQ Sliders
p3442
Vhttp://static.food2fork.com/sliders089d.jpg
p3443
Vhttp://thepioneerwoman.com/cooking/2011/12/spicy-whiskey-bbq-sliders/
p3444
(lp3445
g6
aVsalt
p3446
aVpepper
p3447
ag94
ag10
ag433
aVbarbecue sauce
p3448
aVjarred jalapeno
p3449
ag1277
atp3450
sV040eb7
p3451
(VItalian Meatloaf
p3452
Vhttp://static.food2fork.com/DSC_09679ec1.jpg
p3453
Vhttp://thepioneerwoman.com/cooking/2015/03/italian-meatloaf/
p3454
(lp3455
g6
ag21
ag95
aVparmesan
p3456
ag22
aVparsley
p3457
aVitalian seasoning
p3458
aVsalt
p3459
aVblack pepper
p3460
aVthin pancetta
p3461
ag67
ag143
aVdry mustard
p3462
aVcayenne pepper
p3463
aVworcestershire sauce
p3464
atp3465
sV15069
p3466
(VGrandpa's Classic Coney Sauce
p3467
Vhttp://static.food2fork.com/649489fb25.jpg
p3468
Vhttp://allrecipes.com/Recipe/Grandpas-Classic-Coney-Sauce/Detail.aspx
p3469
(lp3470
g6
ag10
aVketchup
p3471
ag143
aVwhite vinegar
p3472
aVprepared yellow mustard
p3473
ag90
aVworcestershire sauce
p3474
aVblack pepper
p3475
aVsalt
p3476
atp3477
sV35956
p3478
(VChicken Salad
p3479
Vhttp://static.food2fork.com/chickensalad5202300x200b7d86a9d.jpg
p3480
Vhttp://www.simplyrecipes.com/recipes/chicken_salad/
p3481
(lp3482
g6
ag90
aVred bell pepper
p3483
aVgreen olive
p3484
ag10
ag405
ag208
aVmayonnaise
p3485
aVplum preserve
p3486
ag179
aVsalt
p3487
aVpepper
p3488
atp3489
sV9a92dc
p3490
(VTriple-decker steak sandwich
p3491
Vhttp://static.food2fork.com/4682_MEDIUM2d90.jpg
p3492
Vhttp://www.bbcgoodfood.com/recipes/4682/tripledecker-steak-sandwich
p3493
(lp3494
g6
aVgarlic
p3495
aVbunch thyme
p3496
aVolive oil
p3497
ag21
ag67
ag208
aVcocktail gherkin
p3498
aVheaped caper
p3499
aVbunch flat-leaf parsley
p3500
aVgood-quality mayonnaise
p3501
aVsplash worcestershire sauce
p3502
aVshake tabasco sauce
p3503
ag10
atp3504
sV35777
p3505
(VBeef Bourguignon
p3506
Vhttp://static.food2fork.com/beefbourguignona300x200827c0acb.jpg
p3507
Vhttp://www.simplyrecipes.com/recipes/beef_bourguignon/
p3508
(lp3509
g987
ag94
ag6
aVsalt
p3510
aVshallot
p3511
aNaVgarlic
p3512
ag38
ag67
aVbrandy
p3513
aVbottle pinot noir
p3514
aVparsley
p3515
aVbay leaf
p3516
aVthyme
p3517
ag10
aVshiitake
p3518
ag25
atp3519
sV35078
p3520
(VApricot Glazed Corned Beef with Colcannon and Sauteed Cabbage
p3521
Vhttp://static.food2fork.com/ApricotGlazedCornedBeefwithSauteedCabbageandColcannan3500902f6e5f.jpg
p3522
Vhttp://www.closetcooking.com/2010/03/apricot-glazed-corned-beef-with-sauteed.html
p3523
(lp3524
Nag143
aVcider vinegar
p3525
aVgarlic
p3526
ag6
aVapricot preserve
p3527
aVdijon mustard
p3528
aVgrainy mustard
p3529
ag49
ag206
ag10
ag146
ag94
aVsalt
p3530
aVpepper
p3531
atp3532
sV5ad7fe
p3533
(VCorned Beef and Cabbage
p3534
Vhttp://static.food2fork.com/cornedbeef86e4.jpg
p3535
Vhttp://thepioneerwoman.com/cooking/2014/03/corned-beef-and-cabbage/
p3536
(lp3537
g6
aVblack pepper
p3538
ag146
aVolive oil
p3539
aVbottle guinness
p3540
aVbalsamic vinegar
p3541
ag143
atp3542
sV22690
p3543
(VMexican Pot Roast
p3544
Vhttp://static.food2fork.com/888127c2d7.jpg
p3545
Vhttp://allrecipes.com/Recipe/Mexican-Pot-Roast/Detail.aspx
p3546
(lp3547
Volive oil
p3548
ag6
aVsalt
p3549
aVblack pepper
p3550
ag10
aVdiced green chile pepper
p3551
aVbottle sauce
p3552
aVtaco seasoning
p3553
aVchili powder
p3554
aVcayenne pepper
p3555
aVgarlic powder
p3556
atp3557
sV10467
p3558
(VCreamy Rice Pudding
p3559
Vhttp://static.food2fork.com/1086813697.jpg
p3560
Vhttp://allrecipes.com/Recipe/Creamy-Rice-Pudding/Detail.aspx
p3561
(lp3562
g6
ag95
ag143
aVsalt
p3563
ag22
aVgolden raisin
p3564
ag94
aVvanilla extract
p3565
atp3566
sV22696
p3567
(VMexican Rice II
p3568
Vhttp://static.food2fork.com/437348343c.jpg
p3569
Vhttp://allrecipes.com/Recipe/Mexican-Rice-Ii/Detail.aspx
p3570
(lp3571
Vvegetable oil
p3572
ag6
aVgarlic salt
p3573
aVcumin
p3574
ag10
ag67
ag91
atp3575
sV9042
p3576
(VCocktail Meatballs
p3577
Vhttp://static.food2fork.com/123392b47b.jpg
p3578
Vhttp://allrecipes.com/Recipe/Cocktail-Meatballs/Detail.aspx
p3579
(lp3580
g6
ag22
aNag21
ag10
aVjellied cranberry sauce
p3581
aVchili sauce
p3582
ag143
ag179
atp3583
sVb81144
p3584
(VMeatballs &amp; pasta
p3585
Vhttp://static.food2fork.com/331_1_1350317953_lrg8595.jpg
p3586
Vhttp://www.jamieoliver.com/recipes/pasta-recipes/meatballs-and-pasta
p3587
(lp3588
Vsprig rosemary
p3589
ag1217
aVheaped dijon mustard
p3590
ag6
aVheaped oregano
p3591
ag22
aVsea salt
p3592
aVblack pepper
p3593
aVolive oil
p3594
aVbunch basil
p3595
ag10
aVgarlic
p3596
aVred chilli
p3597
ag67
aVbalsamic vinegar
p3598
ag2686
aVparmesan cheese
p3599
atp3600
sV4151
p3601
(VBlue Cheese Burgers
p3602
Vhttp://static.food2fork.com/382212430f.jpg
p3603
Vhttp://allrecipes.com/Recipe/Blue-Cheese-Burgers/Detail.aspx
p3604
(lp3605
g6
aVblue cheese
p3606
aVchive
p3607
aVpepper sauce
p3608
aVworcestershire sauce
p3609
aVcoarsely black pepper
p3610
aVsalt
p3611
aVdry mustard
p3612
ag1277
atp3613
sVeea8ce
p3614
(VBraised Brisket with Bourbon-Peach Glaze
p3615
Vhttp://static.food2fork.com/388709208e.jpg
p3616
Vhttp://www.epicurious.com/recipes/food/views/Braised-Brisket-with-Bourbon-Peach-Glaze-388709
p3617
(lp3618
Vplus kosher salt
p3619
aVblack pepper
p3620
aVsmoked paprika
p3621
aVcinnamon
p3622
aV-pound trimmed flat-cut brisket with about top layer fat
p3623
aVgrapeseed oil
p3624
ag10
aVgarlic
p3625
ag6
aV-ounce bottle stout
p3626
ag433
ag143
aVsoy sauce
p3627
aVsprig thyme
p3628
ag90
ag67
ag11
aVbalsamic vinegar
p3629
ag629
aVkosher salt black pepper
p3630
atp3631
sV295612
p3632
(VChicken Bacon and Ranch Stacked Enchiladas
p3633
Vhttp://static.food2fork.com/ChickenBaconandRanchStackedEnchiladas1t450x610715c.jpg
p3634
Vhttp://picky-palate.com/2013/02/27/chicken-bacon-and-ranch-stacked-enchiladas/
p3635
(lp3636
g94
ag25
ag91
ag64
aVdry ranch dressing seasoning packet
p3637
aVcumin
p3638
ag6
aVdiced green chilies
p3639
ag67
aVcanola oil
p3640
ag512
aVavocado
p3641
aVcilantro
p3642
atp3643
sV54277
p3644
(VCreamy Tomato Orzo Soup
p3645
Vhttp://static.food2fork.com/creamytomatoorzosoup30ac3.jpg
p3646
Vhttp://www.twopeasandtheirpod.com/creamy-tomato-orzo-soup/
p3647
(lp3648
Volive oil
p3649
ag10
aVgarlic
p3650
aVbay leaf
p3651
ag67
aVvegetable broth
p3652
ag143
aVbasil
p3653
aVred pepper flake
p3654
aVsalt
p3655
aVfreshly ground black pepper
p3656
ag691
ag6
atp3657
sV47915
p3658
(VTabasco & Asparagus Quinoa
p3659
Vhttp://static.food2fork.com/tabasco_quinoa_recipe08f6.jpg
p3660
Vhttp://www.101cookbooks.com/archives/tabasco-asparagus-quinoa-recipe.html
p3661
(lp3662
g94
aVdijon mustard
p3663
aVdrop tabasco sauce
p3664
ag179
aVsea salt
p3665
aVasparagus
p3666
ag6
ag249
aVscant creme fraiche optional
p3667
aVmore tabasco sauce
p3668
atp3669
sV39f7dd
p3670
(VPasta with Pistachio Pesto
p3671
Vhttp://static.food2fork.com/51117240836f.jpg
p3672
Vhttp://www.epicurious.com/recipes/food/views/Pasta-with-Pistachio-Pesto-51117240
p3673
(lp3674
Vunsalted
p3675
ag67
aVgarlic
p3676
aVmint leaf
p3677
aVparmesan
p3678
aVred pepper flake
p3679
aVblack pepper
p3680
aVolive oil
p3681
ag6
atp3682
sV48053
p3683
(VVegetarian Lentil Burgers
p3684
Vhttp://static.food2fork.com/lentilburgerrecipe_07405f.jpg
p3685
Vhttp://www.101cookbooks.com/archives/vegetarian-lentil-burgers-recipe.html
p3686
(lp3687
g6
ag22
aVfine-grain sea salt
p3688
ag10
ag21
aVextra virgin olive oil
p3689
atp3690
sVa55976
p3691
(VOnion Soup with Loads of Thyme and Giant Gruyre Crostini
p3692
Vhttp://static.food2fork.com/3517693d92.jpg
p3693
Vhttp://www.epicurious.com/recipes/food/views/Onion-Soup-with-Loads-of-Thyme-and-Giant-Gruyere-Crostini-351769
p3694
(lp3695
g10
aVsprig thyme
p3696
aVbay leaf
p3697
aVsea salt
p3698
aVcracked pepper
p3699
ag25
ag13
ag6
aNag21
ag94
aVswiss gruyre cheese
p3700
atp3701
sVf67bb3
p3702
(VGreen Curry Dumplings
p3703
Vhttp://static.food2fork.com/green_curry_dumplingsc40b.jpg
p3704
Vhttp://www.101cookbooks.com/archives/green-curry-dumplings-recipe.html
p3705
(lp3706
g95
aVleek
p3707
aVsalt
p3708
aVgreen curry paste
p3709
ag6
ag179
ag1126
aVhomemade
p3710
aVpre-made
p3711
atp3712
sV748a80
p3713
(VCarrot Cake Granola
p3714
Vhttp://static.food2fork.com/carrotcakegranola37db.jpg
p3715
Vhttp://www.healthy-delicious.com/2013/05/carrot-cake-granola/
p3716
(lp3717
Vrolled oat
p3718
ag11
ag6
aVwalnut
p3719
aVcoconut
p3720
ag143
aVcinnamon
p3721
aVginger
p3722
aVnutmeg
p3723
aVsalt
p3724
aVhoney
p3725
aVcoconut oil
p3726
aVvanilla
p3727
aVraisin
p3728
atp3729
sV5377
p3730
(VCabbage Roll Casserole
p3731
Vhttp://static.food2fork.com/906910b6fb.jpg
p3732
Vhttp://allrecipes.com/Recipe/Cabbage-Roll-Casserole/Detail.aspx
p3733
(lp3734
g6
ag10
ag67
ag146
aVsalt
p3735
atp3736
sV8eba92
p3737
(VEasy Beef Stew Recipe
p3738
Vhttp://static.food2fork.com/30301_RecipeImage_620x413_easy_beef_stew_22b9e.jpg
p3739
Vhttp://www.chow.com/recipes/30301-easy-beef-stew
p3740
(lp3741
g25
aVkosher salt
p3742
aVblack pepper
p3743
ag717
aVvegetable oil
p3744
ag10
ag67
ag13
ag6
aVbay leaf
p3745
aVthyme sprig
p3746
ag11
ag90
ag49
ag629
atp3747
sV27167
p3748
(VRosemary Braised Lamb Shanks
p3749
Vhttp://static.food2fork.com/991088d03a.jpg
p3750
Vhttp://allrecipes.com/Recipe/Rosemary-Braised-Lamb-Shanks/Detail.aspx
p3751
(lp3752
g1915
aVsalt
p3753
aVpepper
p3754
aVolive oil
p3755
ag10
ag11
aVgarlic
p3756
ag13
ag67
ag91
ag6
aVrosemary
p3757
aVthyme
p3758
atp3759
sVe3708d
p3760
(VHot Roast Beef Sandwiches
p3761
Vhttp://static.food2fork.com/sandwiches8607.jpg
p3762
Vhttp://thepioneerwoman.com/cooking/2013/03/hot-roast-beef-sandwiches/
p3763
(lp3764
g1277
ag6
aVcheese provolone
p3765
aVmayonnaise
p3766
ag10
aVpoppy seed
p3767
aVspicy mustard
p3768
aVhorseradish mayo straight prepared horseradish
p3769
aVworcestershire
p3770
aVoptional dressing ingredient sriracha
p3771
atp3772
sV8af145
p3773
(VBacon-Cheddar Meatloaf Recipe
p3774
Vhttp://static.food2fork.com/30345_RecipeImage_620x413_bacon_cheddar_meatloafcbc1.jpg
p3775
Vhttp://www.chow.com/recipes/30345-bacon-cheddar-meatloaf
p3776
(lp3777
g6
ag10
ag64
aVketchup
p3778
aNaVcoarsely italian parsley
p3779
ag22
aVgarlic
p3780
aVworcestershire sauce
p3781
aVkosher salt
p3782
aVblack pepper
p3783
ag206
atp3784
sVfe922c
p3785
(VSummer Vegetable Stir-Fry
p3786
Vhttp://static.food2fork.com/511082606e2d.jpg
p3787
Vhttp://www.epicurious.com/recipes/food/views/Summer-Vegetable-Stir-Fry-51108260
p3788
(lp3789
Vmixed tender herb such basil
p3790
aVthinly sliced scallion
p3791
aVpiece peeled ginger
p3792
aVgarlic
p3793
aVvegetable oil
p3794
ag79
aVsesame seed
p3795
aVkosher salt black pepper
p3796
ag6
aVmixed summer vegetable such bell pepper
p3797
atp3798
sV47233
p3799
(VPastor Ryan\u2019s Bolognese Sauce
p3800
Vhttp://static.food2fork.com/3544277679_04bcd3011b51c3.jpg
p3801
Vhttp://thepioneerwoman.com/cooking/2009/05/ryans-bolognese-sauce/
p3802
(lp3803
Volive oil
p3804
ag11
ag10
ag6
aVoregano
p3805
aVbasil flake
p3806
ag67
aVgarlic
p3807
ag13
aVworcestershire
p3808
ag95
aVsalt
p3809
aVpepper
p3810
aVparmesan cheese
p3811
atp3812
sV39941
p3813
(VShrimp and Corn Chowder With Fennel
p3814
Vhttp://static.food2fork.com/dinnershrimpchowder_300c032a1d9.jpg
p3815
Vhttp://www.realsimple.com/food-recipes/browse-all-recipes/shrimp-and-corn-chowder-with-fennel-recipe-00000000028079/index.html
p3816
(lp3817
g94
aVleek
p3818
aVfennel bulb
p3819
aVkosher salt black pepper
p3820
ag25
aV-ounce bottle clam juice
p3821
ag95
ag49
ag6
ag512
aVflat-leaf parsley
p3822
atp3823
sV16a21a
p3824
(VLoaded Baked Gnocchi
p3825
Vhttp://static.food2fork.com/LoadedBakedGnocchi53003.jpg
p3826
Vhttp://www.twopeasandtheirpod.com/loaded-baked-gnocchi/
p3827
(lp3828
g49
ag94
aVgarlic
p3829
ag25
ag95
aVsour cream
p3830
ag64
aVsalt
p3831
aVblack pepper
p3832
ag10
ag6
atp3833
sV25519
p3834
(VPumpkin Black Bean Soup
p3835
Vhttp://static.food2fork.com/7572934dee.jpg
p3836
Vhttp://allrecipes.com/Recipe/Pumpkin-Black-Bean-Soup/Detail.aspx
p3837
(lp3838
g65
ag67
ag94
ag10
aVgarlic
p3839
aVsalt
p3840
aVblack pepper
p3841
ag6
aVpumpkin puree
p3842
aVsherry vinegar
p3843
atp3844
sV47e19a
p3845
(VEasy Potato Skins Recipe
p3846
Vhttp://static.food2fork.com/29404_potato_skins_62094ce.jpg
p3847
Vhttp://www.chow.com/recipes/29404-basic-potato-skins
p3848
(lp3849
g49
ag94
aVkosher salt
p3850
aVblack pepper
p3851
ag64
ag6
aVsour cream
p3852
aVfinely chive
p3853
atp3854
sV47522
p3855
(VTex-Mex sloppy Joe sandwich
p3856
Vhttp://static.food2fork.com/TexMex2BSloppy2BJoe_DSC3332b4e92bb4.jpg
p3857
Vhttp://homesicktexan.blogspot.com/2012/01/tex-mex-sloppy-joe-chipotle-sandwich.html
p3858
(lp3859
g6
aVchipotle chile adobo add you like
p3860
ag10
aVbell pepper
p3861
aVgarlic
p3862
ag67
aVoregano
p3863
aVcumin
p3864
aVsmoked paprika
p3865
aVallspice
p3866
aVcayenne
p3867
aVworcestershire sauce
p3868
aVbeer
p3869
aVketchup
p3870
aVcilantro
p3871
aVlime juice
p3872
aVsalt
p3873
aVblack pepper
p3874
aVbun serving
p3875
aVguacamole
p3876
atp3877
sV46889
p3878
(VItalian Pot Roast
p3879
Vhttp://static.food2fork.com/italianpotroast2440.jpg
p3880
Vhttp://thepioneerwoman.com/cooking/2012/10/italian-pot-roast/
p3881
(lp3882
g6
aVroasted red pepper
p3883
aVartichoke heart
p3884
ag67
ag10
aNaVparsley flake
p3885
aVgarlic
p3886
ag13
ag25
aVsalt
p3887
aVpepper
p3888
aVparsley
p3889
atp3890
sV47651
p3891
(VBaked Quinoa Patties
p3892
Vhttp://static.food2fork.com/baked_quinoa_patties9077.jpg
p3893
Vhttp://www.101cookbooks.com/archives/baked-quinoa-patties-recipe.html
p3894
(lp3895
g6
ag22
aVfine-grain sea salt
p3896
aVfinely chive
p3897
aVfinely dill
p3898
aVfinely kale
p3899
ag10
aVgarlic
p3900
aVcumin
p3901
aVbaking powder
p3902
ag21
ag25
aVcrumbled feta
p3903
ag94
atp3904
sV47716
p3905
(VCorned Beef Poutine with Guinness Gravy
p3906
Vhttp://static.food2fork.com/GuinnessandCornedBeefPoutine50056911a5672e7.jpg
p3907
Vhttp://feedproxy.google.com/~r/ClosetCooking/~3/ohA9X2Ojav8/corned-beef-poutine-with-guinness-gravy.html
p3908
(lp3909
g94
ag10
aVgarlic
p3910
ag25
aVguinness irish stout
p3911
aVgrainy mustard
p3912
aVworcestershire sauce
p3913
ag143
aVsalt
p3914
aVpepper
p3915
aVfrench fry
p3916
aVcheese curd
p3917
ag6
atp3918
sV782ae2
p3919
(VAvocado-Bacon Toasts
p3920
Vhttp://static.food2fork.com/AvocadoBaconToastsvert3757da8.jpg
p3921
Vhttp://paninihappy.com/avocado-bacon-toasts/
p3922
(lp3923
g21
aVextra virgin olive oil
p3924
ag6
aVavocado
p3925
aVlime
p3926
aVcoarse salt
p3927
atp3928
sVbae63c
p3929
(VCuban Sandwiches Recipe
p3930
Vhttp://static.food2fork.com/30428_RecipeImage_620x413_cuban_sandwichdb56.jpg
p3931
Vhttp://www.chow.com/recipes/30428-cuban-sandwiches
p3932
(lp3933
g21
aVmayonnaise
p3934
ag6
aVthinly sliced swiss cheese
p3935
aVdill pickle
p3936
aVyellow mustard
p3937
ag94
atp3938
sV9491f8
p3939
(VOaty fish &amp; prawn gratins
p3940
Vhttp://static.food2fork.com/1959672_MEDIUMb158.jpg
p3941
Vhttp://www.bbcgoodfood.com/recipes/1959672/oaty-fish-and-prawn-gratins
p3942
(lp3943
g146
ag67
aVsustainable white fish fillet
p3944
aVbunch basil
p3945
ag6
aVfinely parmesan
p3946
aVbreadcrumb
p3947
aVoat
p3948
ag774
atp3949
sV0c8922
p3950
(VBeef &amp; vegetable casserole
p3951
Vhttp://static.food2fork.com/3923_MEDIUM2a00.jpg
p3952
Vhttp://www.bbcgoodfood.com/recipes/3923/beef-and-vegetable-casserole
p3953
(lp3954
Volive oil
p3955
ag10
ag11
aVleek
p3956
ag90
aVgarlic
p3957
ag38
ag852
ag25
aVsprig thyme
p3958
ag6
ag67
aVworcestershire sauce
p3959
atp3960
sV64904b
p3961
(Vfrench onion tart + uk cookbook release
p3962
Vhttp://static.food2fork.com/8512728543_7fdac68deef655.jpg
p3963
Vhttp://smittenkitchen.com/blog/2013/03/french-onion-tart-uk-cookbook-release/
p3964
(lp3965
g25
aVtable salt
p3966
aVstick
p3967
aNag10
ag94
aVolive oil
p3968
aVscant table salt
p3969
ag143
ag6
aVcognac
p3970
aVblack pepper
p3971
aVgruyere
p3972
ag22
ag95
atp3973
sV28800
p3974
(VSlider-Style Mini Burgers
p3975
Vhttp://static.food2fork.com/4124619927.jpg
p3976
Vhttp://allrecipes.com/Recipe/Slider-Style-Mini-Burgers/Detail.aspx
p3977
(lp3978
g6
ag10
aVmayonnaise
p3979
ag64
ag1277
aVsliced pickle
p3980
atp3981
sV46954
p3982
(VSpicy Stewed Beef with Creamy Cheddar Grits
p3983
Vhttp://static.food2fork.com/stewedbeefbc6d.jpg
p3984
Vhttp://thepioneerwoman.com/cooking/2012/01/spicy-stewed-beef-with-creamy-cheddar-grits/
p3985
(lp3986
Vcanola oil
p3987
ag94
ag717
aVchipotle pepper adobo sauce
p3988
ag6
aVgarlic
p3989
aVcumin
p3990
aVchili powder
p3991
ag10
aVred bell pepper
p3992
aVchilies any variety
p3993
aVstone grit
p3994
ag91
aNaVhalf-and-half
p3995
ag64
atp3996
sV22388
p3997
(VMeatball Nirvana
p3998
Vhttp://static.food2fork.com/934357341a.jpg
p3999
Vhttp://allrecipes.com/Recipe/Meatball-Nirvana/Detail.aspx
p4000
(lp4001
g6
aVsea salt
p4002
ag10
aVgarlic salt
p4003
aVitalian seasoning
p4004
aVoregano
p4005
aVred pepper flake
p4006
aS'frankfurters'
p4007
aVworcestershire sauce
p4008
ag95
aVparmesan cheese
p4009
ag21
atp4010
sV26540
p4011
(VRempel Family Meatloaf
p4012
Vhttp://static.food2fork.com/3247332e7.jpg
p4013
Vhttp://allrecipes.com/Recipe/Rempel-Family-Meatloaf/Detail.aspx
p4014
(lp4015
g6
ag1126
ag64
ag10
ag22
aVketchup
p4016
ag852
atp4017
sV46952
p4018
(VPork Chops with Wine and Garlic
p4019
Vhttp://static.food2fork.com/pork045e.jpg
p4020
Vhttp://thepioneerwoman.com/cooking/2012/02/pork-chops-with-garlic-and-wine/
p4021
(lp4022
g987
aVolive oil
p4023
ag94
aVsalt
p4024
aVpepper
p4025
ag13
ag6
aVbay leaf
p4026
aVbalsamic vinegar
p4027
aVpeeled garlic
p4028
atp4029
sV4d2f73
p4030
(VCoconut Quinoa Bowl
p4031
Vhttp://static.food2fork.com/coconut_quinoa_bowl_recipe6dbc.jpg
p4032
Vhttp://www.101cookbooks.com/archives/coconut-quinoa-bowl-recipe.html
p4033
(lp4034
g6
ag691
aVsea salt
p4035
aVextra virgin olive oil
p4036
aVsliced almond
p4037
aVcoconut
p4038
aVgarlic
p4039
aVkale leaf
p4040
ag179
aVavocado
p4041
aVedible flower
p4042
atp4043
sV35305
p4044
(VFrench Onion Soup
p4045
Vhttp://static.food2fork.com/FrenchOnionSoupwithStringyMeltedCheese500b74184cb.jpg
p4046
Vhttp://www.closetcooking.com/2010/10/french-onion-soup.html
p4047
(lp4048
g94
ag10
aVgarlic
p4049
aVthyme
p4050
ag25
ag13
ag6
aVbay leaf
p4051
aVsalt
p4052
aVpepper
p4053
ag21
aVgruyere
p4054
aVparmesan
p4055
atp4056
sV5123
p4057
(VBurrito Pie
p4058
Vhttp://static.food2fork.com/76304025.jpg
p4059
Vhttp://allrecipes.com/Recipe/Burrito-Pie/Detail.aspx
p4060
(lp4061
g6
ag10
aVgarlic
p4062
aVblack olive
p4063
aVdiced green chili pepper
p4064
ag67
aVtaco sauce
p4065
ag65
ag25
aVcolby cheese
p4066
atp4067
sV1c4f33
p4068
(VEasy Apple and Pear Crisp with Oatmeal Streusel Recipe
p4069
Vhttp://static.food2fork.com/31110_RecipeImage_620x413_apple_pear_crisp_33121.jpg
p4070
Vhttp://www.chow.com/recipes/31110-easy-apple-and-pear-crisp-with-oatmeal-streusel
p4071
(lp4072
g405
ag3197
ag143
aVcinnamon
p4073
aVsalt
p4074
ag6
ag25
ag94
atp4075
sV35689
p4076
(VAlbondigas Soup
p4077
Vhttp://static.food2fork.com/albondigassoup300x200d72a293c.jpg
p4078
Vhttp://www.simplyrecipes.com/recipes/albondigas_soup/
p4079
(lp4080
Volive oil
p4081
ag10
aVgarlic
p4082
ag91
ag67
ag65
ag11
ag402
ag6
aVmint leaf
p4083
aVparsley
p4084
aVsalt
p4085
aVblack pepper
p4086
aVcayenne
p4087
ag629
aVoregano
p4088
aVpepper
p4089
aVcilantro
p4090
atp4091
sV33410
p4092
(VTurkey Veggie Meatloaf Cups
p4093
Vhttp://static.food2fork.com/658635ec58.jpg
p4094
Vhttp://allrecipes.com/Recipe/Turkey-Veggie-Meatloaf-Cups/Detail.aspx
p4095
(lp4096
Vcoarsely zucchini
p4097
ag10
aVred bell pepper
p4098
ag420
ag6
ag22
aVworcestershire sauce
p4099
aVdijon mustard
p4100
aVbarbecue sauce
p4101
atp4102
sV28153
p4103
(VSeven-Layer Dip I
p4104
Vhttp://static.food2fork.com/672622cb84.jpg
p4105
Vhttp://allrecipes.com/Recipe/Seven-Layer-Dip-I/Detail.aspx
p4106
(lp4107
g6
ag65
aVcheddar-monterey jack cheese blend
p4108
aVcontainer sour cream
p4109
aVguacamole
p4110
aVsalsa
p4111
aVblack olive
p4112
ag67
ag10
atp4113
sV36919
p4114
(VShort-Rib Beef Stew with Ale
p4115
Vhttp://static.food2fork.com/shortribstew520300x200ea5ee321.jpg
p4116
Vhttp://www.simplyrecipes.com/recipes/short-rib_beef_stew_with_ale/
p4117
(lp4118
g25
aVpaprika
p4119
aVsmoked paprika
p4120
aVsalt
p4121
aVblack pepper
p4122
ag6
ag206
ag10
aVgarlic
p4123
aVbottle malty brown ale
p4124
ag67
ag49
ag11
aVturnip
p4125
atp4126
sV36525
p4127
(VKentucky Burgoo
p4128
Vhttp://static.food2fork.com/burgooa300x200aebde45b.jpg
p4129
Vhttp://www.simplyrecipes.com/recipes/kentucky_burgoo/
p4130
(lp4131
Vvegetable oil
p4132
ag987
ag717
ag91
aVgreen pepper
p4133
ag10
ag11
ag90
aVgarlic
p4134
ag6
ag67
ag49
ag146
aVsalt
p4135
aVpepper
p4136
aVworcestershire sauce
p4137
ag354
atp4138
sVd39f78
p4139
(VChinese-style braised beef one-pot
p4140
Vhttp://static.food2fork.com/9646_MEDIUM02d4.jpg
p4141
Vhttp://www.bbcgoodfood.com/recipes/9646/chinesestyle-braised-beef-onepot
p4142
(lp4143
Volive oil
p4144
aVgarlic
p4145
aVgood thumb-size piece root ginger
p4146
ag10
aVred chilli
p4147
ag6
ag25
aVchinese five-spice powder
p4148
aVstar anise
p4149
ag143
ag13
aVdark soy sauce
p4150
ag79
atp4151
sVcc4af0
p4152
(VShrimp Puttanesca Rice Bowl Recipe with Capers & Tomatoes
p4153
Vhttp://static.food2fork.com/ShrimpPuttanescaBowl9b3e.jpg
p4154
Vhttp://www.cookincanuck.com/2013/09/shrimp-puttanesca-rice-bowl-recipe-with-capers-tomatoes/
p4155
(lp4156
Volive oil
p4157
aVgarlic
p4158
aVanchovy fillet
p4159
aVred pepper flake
p4160
ag67
aVcaper
p4161
aVquartered kalamata olive
p4162
aVshrimp
p4163
aVitalian parsley
p4164
ag6
atp4165
sV710dcd
p4166
(VStuffed Poblanos with Black Beans and Cheese Recipe
p4167
Vhttp://static.food2fork.com/spanishstuffedpepp_2903aae.jpg
p4168
Vhttp://www.chow.com/recipes/10921-stuffed-poblanos-with-black-beans-and-cheese
p4169
(lp4170
g6
aNaVkosher salt
p4171
aVpoblano pepper
p4172
aVtoasted cumin seed
p4173
aVsour cream
p4174
aVcrumbled cotija cheese
p4175
aVcilantro
p4176
ag67
aVscallion
p4177
aVblack pepper
p4178
atp4179
sVe2bfde
p4180
(V5-Ingredient Spinach Parmesan Pasta
p4181
Vhttp://static.food2fork.com/SpinachParmesanPasta226727.jpg
p4182
Vhttp://www.twopeasandtheirpod.com/5-ingredient-spinach-parmesan-pasta/
p4183
(lp4184
g6
ag94
aVgarlic
p4185
aVpacked spinach
p4186
aVparmesan cheese
p4187
aVsalt
p4188
aVfreshly ground black pepper
p4189
atp4190
sV6219ad
p4191
(VGet Your Greens Salad
p4192
Vhttp://static.food2fork.com/GetYourGreensSalad43e9c.jpg
p4193
Vhttp://www.twopeasandtheirpod.com/get-your-greens-salad/
p4194
(lp4195
NaVpacked spinach
p4196
aVshelled pistachio
p4197
ag774
ag6
ag2572
aVavocado
p4198
aVgarlic
p4199
ag179
aVolive oil
p4200
aVsalt
p4201
aVblack pepper
p4202
atp4203
sVe43ab5
p4204
(VAll Recipes
p4205
Vhttp://static.food2fork.com/quickveganchanamasalad53b.jpg
p4206
Vhttp://cookieandkate.com/2014/quick-vegan-chana-masala/
p4207
(lp4208
Vcoconut oil olive oil
p4209
aVcumin seed scale back little you 're not crazy about cumin
p4210
ag10
aVpressed garlic
p4211
aVpeeled ginger about -inch piece
p4212
aVgreen serrano pepper
p4213
aVgaram masala
p4214
aVcoriander
p4215
aVturmeric
p4216
aVfine-grain sea salt
p4217
aVcayenne pepper
p4218
ag67
aVchickpea
p4219
ag6
ag179
aVcilantro
p4220
atp4221
sV72abe1
p4222
(VChili Tortellini
p4223
Vhttp://static.food2fork.com/ChiliTortellini4t111f7.jpg
p4224
Vhttp://picky-palate.com/2013/04/10/chili-tortellini/
p4225
(lp4226
Vdry tortellini
p4227
aVextra virgin olive oil
p4228
ag10
aVgarlic
p4229
ag6
aVkosher salt
p4230
aVblack pepper
p4231
aVgarlic salt
p4232
ag91
ag65
ag67
aVcumin
p4233
aVchili powder
p4234
aVcilantro
p4235
atp4236
sV86a83a
p4237
(VNo-fuss shepherd's pie
p4238
Vhttp://static.food2fork.com/9644_MEDIUM60f8.jpg
p4239
Vhttp://www.bbcgoodfood.com/recipes/9644/nofuss-shepherds-pie
p4240
(lp4241
Vsunflower oil
p4242
ag10
ag11
ag1915
ag67
aVsplash worcestershire sauce
p4243
ag6
ag49
ag94
ag95
atp4244
sVa723e8
p4245
(VBarbecue Chicken Pizza
p4246
Vhttp://static.food2fork.com/BBQChickenPizza3e2b.jpg
p4247
Vhttp://www.mybakingaddiction.com/barbecue-chicken-pizza-recipe/
p4248
(lp4249
Vstore bought pizza crust refrigerated crust
p4250
aVbarbecue sauce
p4251
ag6
ag10
ag2805
aVsargento monterey jack cheese
p4252
atp4253
sV18509
p4254
(VOutrageous Warm Chicken Nacho Dip
p4255
Vhttp://static.food2fork.com/9636374728.jpg
p4256
Vhttp://allrecipes.com/Recipe/Outrageous-Warm-Chicken-Nacho-Dip/Detail.aspx
p4257
(lp4258
g67
ag1023
ag6
aVsour cream
p4259
ag10
aVtaco seasoning mix
p4260
aVjalapeno pepper
p4261
ag65
atp4262
sV17352
p4263
(VIrish Lamb Stew
p4264
Vhttp://static.food2fork.com/371864e394.jpg
p4265
Vhttp://allrecipes.com/Recipe/Irish-Lamb-Stew/Detail.aspx
p4266
(lp4267
g206
ag1915
aVsalt
p4268
aVblack pepper
p4269
ag25
aVgarlic
p4270
ag10
aNag6
ag143
ag11
ag49
aVthyme
p4271
aVbay leaf
p4272
ag13
atp4273
sV54367
p4274
(VBBQ Chicken with Pineapple Bacon Salsa
p4275
Vhttp://static.food2fork.com/BBQChickenwithPineappleBaconSalsa3bc8c.jpg
p4276
Vhttp://www.twopeasandtheirpod.com/bbq-chicken-with-pineapple-bacon-salsa/
p4277
(lp4278
g91
aVsalt
p4279
aVpepper
p4280
aVyour favorite barbecue sauce
p4281
aVolive oil
p4282
aNaVdiced pineapple
p4283
ag6
aVcilantro
p4284
ag10
aVfinely jalapeno pepper
p4285
aVgarlic
p4286
aVjuice lime
p4287
atp4288
sV38579
p4289
(VSouthwestern Chicken Soup
p4290
Vhttp://static.food2fork.com/spoonglass_300b75fcf00.jpg
p4291
Vhttp://www.realsimple.com/food-recipes/browse-all-recipes/southwestern-chicken-soup-10000000780308/index.html
p4292
(lp4293
V-ounce salsa verde
p4294
ag6
ag65
ag91
aVcumin
p4295
ag10
atp4296
sV12970
p4297
(VFabulous Wet Burritos
p4298
Vhttp://static.food2fork.com/6160322aab.jpg
p4299
Vhttp://allrecipes.com/Recipe/Fabulous-Wet-Burritos/Detail.aspx
p4300
(lp4301
g6
ag10
aVgarlic
p4302
aVcumin
p4303
aVsalt
p4304
aVpepper
p4305
aVdiced green chile pepper
p4306
ag65
ag67
aVenchilada sauce
p4307
ag25
ag208
aVmexican blend cheese
p4308
atp4309
sV47870
p4310
(VTortilla Salad
p4311
Vhttp://static.food2fork.com/tortilla_salad_recipeddda.jpg
p4312
Vhttp://www.101cookbooks.com/archives/tortilla-salad-recipe.html
p4313
(lp4314
g6
aVtoasted sunflower seed
p4315
aNaVthis dressing
p4316
aVbig cauliflower stem
p4317
ag276
aVcrumbled feta
p4318
ag892
aVavocado
p4319
atp4320
sV47873
p4321
(VBaked Farro Risotto
p4322
Vhttp://static.food2fork.com/baked_farro_risotto_recipe8fcf.jpg
p4323
Vhttp://www.101cookbooks.com/archives/baked-farro-risotto-recipe.html
p4324
(lp4325
Vextra virgin olive oil
p4326
ag179
ag10
aVsea salt
p4327
ag6
ag67
aVgood-tasting vegetable broth
p4328
aVparmesan
p4329
aVoregano
p4330
atp4331
sV39224
p4332
(VSouthwestern Stuffed Peppers
p4333
Vhttp://static.food2fork.com/stuffedpeppers_30088d0171b.jpg
p4334
Vhttp://www.realsimple.com/food-recipes/browse-all-recipes/stuffed-peppers-recipe-00100000074106/index.html
p4335
(lp4336
g79
aVolive oil
p4337
aVscallion
p4338
ag6
ag512
aV-ounce green chilies
p4339
aVcumin
p4340
aVmonterey jack
p4341
aVkosher salt black pepper
p4342
aVbell pepper
p4343
atp4344
sV28881
p4345
(VSlow Cooker Beef Vegetable Soup
p4346
Vhttp://static.food2fork.com/103074cb4b.jpg
p4347
Vhttp://allrecipes.com/Recipe/Slow-Cooker-Beef-Vegetable-Soup/Detail.aspx
p4348
(lp4349
g6
ag512
ag65
ag11
ag49
ag67
aVsalt
p4350
aVpepper
p4351
atp4352
sV33a2c6
p4353
(VSweet Potato and Quinoa Salad with Soft-Boiled Eggs
p4354
Vhttp://static.food2fork.com/IMG_2858200x3000c71.jpg
p4355
Vhttp://naturallyella.com/2013/01/18/sweet-potato-and-quinoa-salad-with-soft-boiled-eggs/
p4356
(lp4357
g49
ag10
aVolive oil
p4358
aVrosemary
p4359
ag6
aNag208
aVgorgonzola
p4360
aVsunflower seed
p4361
aVbalsamic vinegar
p4362
ag22
atp4363
sV35162
p4364
(VBraised Short Rib Ragu
p4365
Vhttp://static.food2fork.com/Braised2BShort2BRib2BRagu2Bon2BPolenta2Bwith2BGremolata2B22B500747b7489.jpg
p4366
Vhttp://www.closetcooking.com/2011/04/braised-short-rib-ragu.html
p4367
(lp4368
g38
aVolive oil
p4369
ag1460
ag10
ag90
ag11
aVgarlic
p4370
aVanchovy paste
p4371
ag13
ag67
aVdijon mustard
p4372
aVworcestershire sauce
p4373
aVoregano
p4374
aVthyme
p4375
aVrosemary
p4376
aVfennel seed
p4377
aVpiece parmigano reggiano rind
p4378
aVbay leaf
p4379
aVsalt
p4380
aVpepper
p4381
ag6
aVparsley
p4382
atp4383
sVb59126
p4384
(VEnglish Muffin Breakfast Pizzas
p4385
Vhttp://static.food2fork.com/EnglishMuffinBreakfastPizzas48303.jpg
p4386
Vhttp://www.twopeasandtheirpod.com/english-muffin-breakfast-pizzas/
p4387
(lp4388
g22
aVenglish muffin
p4389
ag64
ag6
ag10
aVsalt
p4390
aVblack pepper
p4391
atp4392
sV49082
p4393
(VKerala-Style Beef Stew
p4394
Vhttp://static.food2fork.com/keralastylebeefstew6469e86.jpg
p4395
Vhttp://www.bonappetit.com/recipes/quick-recipes/2012/09/kerala-style-beef-stew
p4396
(lp4397
Vvegetable oil
p4398
ag6
aVkosher salt
p4399
aVcoarsely black pepper plus more seasoning
p4400
aVgarlic
p4401
aVserrano chile
p4402
aV-inch piece ginger
p4403
aVturmeric
p4404
ag91
ag11
ag49
aNag95
aVcilantro sprig
p4405
atp4406
sV47586
p4407
(VBrisket tacos, Dallas style
p4408
Vhttp://static.food2fork.com/briskettacos_DSC376842029820.jpg
p4409
Vhttp://homesicktexan.blogspot.com/2011/01/brisket-tacos-recipe-dallas.html
p4410
(lp4411
NaVbrisket
p4412
aVsalt
p4413
aVblack pepper
p4414
ag206
ag10
aVgarlic
p4415
ag13
ag6
aVcumin
p4416
aVjalapeos
p4417
aVleafy stem cilantro
p4418
aVbay leaf
p4419
atp4420
sV25841
p4421
(VQuick and Easy Chicken Noodle Soup
p4422
Vhttp://static.food2fork.com/62671f645.jpg
p4423
Vhttp://allrecipes.com/Recipe/Quick-And-Easy-Chicken-Noodle-Soup/Detail.aspx
p4424
(lp4425
g94
ag10
ag90
ag91
aVvegetable broth
p4426
ag6
ag22
ag11
aVbasil
p4427
aVoregano
p4428
aVsalt
p4429
aVpepper
p4430
atp4431
sVa7841a
p4432
(VMushroom stroganoff
p4433
Vhttp://static.food2fork.com/1898646_MEDIUM6f1a.jpg
p4434
Vhttp://www.bbcgoodfood.com/recipes/1898646/mushroom-stroganoff
p4435
(lp4436
Volive oil
p4437
ag10
aVpaprika
p4438
aVgarlic
p4439
ag38
ag6
aVworcestershire sauce
p4440
aVhalf-fat soured cream
p4441
aVbunch parsley
p4442
atp4443
sV606bf4
p4444
(VBBQ Chicken Quinoa Salad
p4445
Vhttp://static.food2fork.com/BBQChickenQuinoaSalad1a0f2.jpg
p4446
Vhttp://whatsgabycooking.com/bbq-chicken-quinoa-salad/
p4447
(lp4448
g6
ag512
ag65
ag91
aVavocado
p4449
ag64
aVbbq sauce
p4450
aVscallion
p4451
aVcilantro garnish
p4452
atp4453
sV35174
p4454
(VBuffalo Chicken Sushi
p4455
Vhttp://static.food2fork.com/Buffalo2BChicken2BSushi2B5002B37560ff57bba.jpg
p4456
Vhttp://www.closetcooking.com/2012/07/buffalo-chicken-sushi.html
p4457
(lp4458
g79
aNag143
aVsalt
p4459
aVsheet nori
p4460
ag6
aVsauce
p4461
ag1460
ag11
aVblue cheese
p4462
ag276
atp4463
sV63ac6d
p4464
(VMarinara Sauce
p4465
Vhttp://static.food2fork.com/marinara27e65.jpg
p4466
Vhttp://thepioneerwoman.com/cooking/2015/06/marinara-sauce/
p4467
(lp4468
Volive oil
p4469
ag10
aVgarlic
p4470
ag11
ag67
aVsalt
p4471
aVblack pepper
p4472
ag143
aVoregano optional use whatever herb you like
p4473
aVparsley
p4474
ag6
aVparmesan cheese
p4475
atp4476
sV35647
p4477
(VThe Rachel Sandwich (aka Roast Turkey Reuben Sandwich)
p4478
Vhttp://static.food2fork.com/The2BRachel2BSandwich2B2528aka2BRoast2BTurkey2BReuben2BSandwich25292Bwith2BSlaw2B5002B88571f2c6619.jpg
p4479
Vhttp://www.closetcooking.com/2011/01/rachel-sandwich-aka-roast-turkey-reuben.html
p4480
(lp4481
g94
aVrye
p4482
aVswiss cheese
p4483
ag6
aVcoleslaw sauerkraut
p4484
aVrussian dressing thousand island dressing
p4485
atp4486
sV47906
p4487
(VShichimi Mushroom Rice Bowl
p4488
Vhttp://static.food2fork.com/mushroom_rice_bowl68ce.jpg
p4489
Vhttp://www.101cookbooks.com/archives/shichimi-mushroom-rice-bowl-recipe.html
p4490
(lp4491
g6
aVextra virgin olive oil
p4492
ag94
aVgarlic
p4493
aVfine-grain sea salt
p4494
ag38
aVfirm tofu
p4495
aVbunch kale
p4496
aVshichimi togarashi red pepper flake
p4497
atp4498
sV26057
p4499
(VQuinoa and Black Beans
p4500
Vhttp://static.food2fork.com/357989401d.jpg
p4501
Vhttp://allrecipes.com/Recipe/Quinoa-And-Black-Beans/Detail.aspx
p4502
(lp4503
Vvegetable oil
p4504
ag10
aVgarlic
p4505
ag6
aVvegetable broth
p4506
aVcumin
p4507
aVcayenne pepper
p4508
aVsalt
p4509
aVpepper
p4510
ag512
ag65
aVcilantro
p4511
atp4512
sV36768
p4513
(VPot Roast
p4514
Vhttp://static.food2fork.com/potroastnew300x200a144d258.jpg
p4515
Vhttp://www.simplyrecipes.com/recipes/pot_roast/
p4516
(lp4517
g6
aVolive grapeseed oil
p4518
aVsalt
p4519
ag10
aVgarlic
p4520
ag13
aVbay leaf
p4521
ag11
atp4522
sV36883
p4523
(VSanta Maria Style Tri Tip
p4524
Vhttp://static.food2fork.com/grilledtritipsantamariaa300x200c834aed6.jpg
p4525
Vhttp://www.simplyrecipes.com/recipes/santa_maria_style_tri_tip/
p4526
(lp4527
g6
aVkosher salt
p4528
aVfinely black pepper
p4529
aVgarlic powder
p4530
ag10
aVcayenne
p4531
aVoregano
p4532
aVdry rosemary
p4533
ag376
atp4534
sV47757
p4535
(VGuinness Glazed Slow Cooker Corned Beef
p4536
Vhttp://static.food2fork.com/GuinnessGlazedSlowCookerCornedBeef5004859withText0615e97c.jpg
p4537
Vhttp://feedproxy.google.com/~r/ClosetCooking/~3/vAcIfmhtbHc/guinness-glazed-slow-cooker-corned-beef.html
p4538
(lp4539
g6
aVbottle guinness irish stout
p4540
ag10
aVgarlic
p4541
ag143
aVgrainy mustard
p4542
aVworcestershire sauce
p4543
aVsalt
p4544
aVpepper
p4545
atp4546
sV47058
p4547
(VShrimpo de Gallo
p4548
Vhttp://static.food2fork.com/5389463004_88a6d41fda_od9e5.jpg
p4549
Vhttp://thepioneerwoman.com/cooking/2011/01/shrimpo-de-gallo/
p4550
(lp4551
g6
ag10
aVgreen black olive
p4552
ag67
aVjalapeno pepper
p4553
aVavocado
p4554
aVlime
p4555
aVkosher salt
p4556
aVcilantro
p4557
atp4558
sV316ca9
p4559
(VJoolss favourite beef stew
p4560
Vhttp://static.food2fork.com/299_1_1350900322_lrgbeb4.jpg
p4561
Vhttp://www.jamieoliver.com/recipes/beef-recipes/jools-s-favourite-beef-stew
p4562
(lp4563
Volive oil
p4564
ag94
ag10
ag376
ag852
aVsea salt
p4565
aVblack pepper
p4566
ag25
aVparsnip
p4567
ag11
aVbutternut squash
p4568
aVjerusalem artichoke
p4569
ag49
ag67
ag13
ag6
ag179
aVrosemary
p4570
aVgarlic
p4571
atp4572
sV47297
p4573
(VSimple, Perfect Enchiladas!
p4574
Vhttp://static.food2fork.com/Enchiladas23ee.jpg
p4575
Vhttp://thepioneerwoman.com/cooking/2008/09/simple-perfect-enchiladas/
p4576
(lp4577
NaVcanola oil
p4578
ag25
aVenchilada red sauce
p4579
ag91
aVsalt
p4580
aVblack pepper
p4581
aVcilantro
p4582
ag6
ag10
aVdiced green chilies
p4583
ag512
ag64
aVblack olive
p4584
atp4585
sV35392
p4586
(VKimchi Reuben Sandwich
p4587
Vhttp://static.food2fork.com/Kimchi2BReuben2B5002B841818c89a16.jpg
p4588
Vhttp://www.closetcooking.com/2011/03/kimchi-reuben-sandwich.html
p4589
(lp4590
g94
aVkimchi
p4591
aVsauerkraut
p4592
aVrye
p4593
aVswiss
p4594
aVrussian dressing
p4595
ag6
aVmayonnaise
p4596
aVsour cream
p4597
aVketchup
p4598
aVworcestershire sauce
p4599
ag10
ag892
ag179
aVgochujang
p4600
aVpaprika
p4601
aVsalt
p4602
aVpepper
p4603
atp4604
sV35823
p4605
(VBorscht
p4606
Vhttp://static.food2fork.com/borscht1300x197c817b5bd.jpg
p4607
Vhttp://www.simplyrecipes.com/recipes/borscht/
p4608
(lp4609
g6
ag10
aVbeet
p4610
ag11
ag49
ag146
aVdill
p4611
ag13
aVsour cream
p4612
aVsalt
p4613
aVpepper
p4614
atp4615
sV12362
p4616
(VEasy Slow Cooker Meatballs
p4617
Vhttp://static.food2fork.com/674463490b.jpg
p4618
Vhttp://allrecipes.com/Recipe/Easy-Slow-Cooker-Meatballs/Detail.aspx
p4619
(lp4620
g6
ag21
aVparsley
p4621
aVgarlic
p4622
ag10
ag22
ag2686
ag67
atp4623
sV12360
p4624
(VEasy Slow Cooker French Dip
p4625
Vhttp://static.food2fork.com/103167cea.jpg
p4626
Vhttp://allrecipes.com/Recipe/Easy-Slow-Cooker-French-Dip/Detail.aspx
p4627
(lp4628
g6
ag10
aVbottle beer
p4629
ag1277
ag94
atp4630
sV1b74c7
p4631
(VRoast beef &amp; carrots with easy gravy
p4632
Vhttp://static.food2fork.com/1580653_MEDIUM4afa.jpg
p4633
Vhttp://www.bbcgoodfood.com/recipes/1580653/roast-beef-and-carrots-with-easy-gravy
p4634
(lp4635
g25
aVmustard powder
p4636
ag6
ag10
ag11
atp4637
sV10691d
p4638
(VFig Leaf Coconut Rice
p4639
Vhttp://static.food2fork.com/coconut_rice_recipe_20147439.jpg
p4640
Vhttp://www.101cookbooks.com/archives/fig-leaf-coconut-rice-recipe.html
p4641
(lp4642
g6
ag95
aNaVsea salt
p4643
aVfig leaf
p4644
aVserve lot lot scallion
p4645
atp4646
sV36818
p4647
(VRed Lentil Dal
p4648
Vhttp://static.food2fork.com/redlentildal300x20070170412.jpg
p4649
Vhttp://www.simplyrecipes.com/recipes/red_lentil_dal/
p4650
(lp4651
Vred lentil
p4652
aNag67
aVgrapeseed
p4653
ag10
aVgarlic
p4654
aVbengali five spice mix black sesame seed
p4655
aVbay leaf
p4656
aVturmeric
p4657
aVkosher salt plus more
p4658
aVlime
p4659
aVsprig cilantro
p4660
ag6
atp4661
sV12204
p4662
(VEasy Mexican Casserole
p4663
Vhttp://static.food2fork.com/92266d77b.jpg
p4664
Vhttp://allrecipes.com/Recipe/Easy-Mexican-Casserole/Detail.aspx
p4665
(lp4666
g6
aVsalsa
p4667
ag65
ag276
aVsour cream
p4668
aVsliced black olive
p4669
ag10
ag67
ag64
atp4670
sV3fe9fd
p4671
(VEasy tomato pizzas
p4672
Vhttp://static.food2fork.com/12389_MEDIUMb5b0.jpg
p4673
Vhttp://www.bbcgoodfood.com/recipes/12389/easy-tomato-pizzas
p4674
(lp4675
g21
aVsachet fast-action yeast
p4676
aVextra virgin olive oil
p4677
aNag6
ag67
aVyour choice topping goat cheese
p4678
atp4679
sV12202
p4680
(VEasy Meatloaf
p4681
Vhttp://static.food2fork.com/6822829d16.jpg
p4682
Vhttp://allrecipes.com/Recipe/Easy-Meatloaf/Detail.aspx
p4683
(lp4684
g6
ag22
ag10
ag95
ag21
aVsalt
p4685
aVpepper
p4686
ag143
aVprepared mustard
p4687
aVketchup
p4688
atp4689
s.