(dp0
V47040
p1
(VBeef with Peppers
p2
Vhttp://static.food2fork.com/5572969276_8f4385a0e2_o081c.jpg
p3
Vhttp://thepioneerwoman.com/cooking/2011/03/beef-with-peppers/
p4
(lp5
S'steak'
p6
aVlow sodium soy sauce
p7
aVsherry
p8
aS'sugar'
p9
aVcornstarch
p10
aVginger
p11
aVgarlic
p12
aVred chile paste
p13
aVcanola oil
p14
aS'onions'
p15
aVred bell pepper
p16
aVdiced jalapeno
p17
aVred pepper flake
p18
aVcilantro leaf
p19
atp20
sVb097d5
p21
(VBasic Napa Cabbage Kimchi (Kimchee) Recipe
p22
Vhttp://static.food2fork.com/29505_kimchi_620d8bd.jpg
p23
Vhttp://www.chow.com/recipes/29505-basic-napa-cabbage-kimchi-kimchee
p24
(lp25
S'cabbage'
p26
aVkosher salt
p27
aVabout
p28
aS'radishes '
p29
aVscallion
p30
aVkorean red pepper powder
p31
aVfish sauce
p32
aVpeeled ginger from about -ounce piece
p33
aVgarlic
p34
aVkorean salted shrimp
p35
ag9
atp36
sVd191c7
p37
(VKabocha Squash Scotch Eggs Recipe
p38
Vhttp://static.food2fork.com/30317_RecipeImage_620x413_squash_scotch_egg_2269e.jpg
p39
Vhttp://www.chow.com/recipes/30317-kabocha-squash-scotch-eggs
p40
(lp41
Vkabocha squash
p42
aS'potatoes'
p43
aVquart vegetable oil
p44
aVkosher salt
p45
aVred miso
p46
aS'eggs'
p47
aS'flour'
p48
aVpanko
p49
aVsriracha sauce
p50
atp51
sVf487f9
p52
(VBeef with Broccoli &quot;Takeout&quot; Noodles Recipe
p53
Vhttp://static.food2fork.com/31094_620x620_beef_broccoli_takeout_noodles9fa9.jpg
p54
Vhttp://www.chow.com/recipes/31094-beef-with-broccoli-takeout-noodles
p55
(lp56
g9
aVgarlic
p57
aVginger
p58
ag15
aVreduced-sodium tamari soy sauce
p59
aS'rice'
p60
aVcanola oil
p61
aVtoasted sesame oil
p62
ag6
aS'broccoli'
p63
ag47
aS'carrots'
p64
aVred bell pepper
p65
aVsriracha
p66
aVtoasted cashew
p67
atp68
sV48354
p69
(VHainanese Chicken Rice Recipe
p70
Vhttp://static.food2fork.com/hainanesechickenlg6911200x150187b.jpg
p71
Vhttp://www.steamykitchen.com/5068-hainanese-chicken-rice.html
p72
(lp73
S'chicken'
p74
aVkosher salt
p75
aVsection ginger
p76
ag15
aVsesame oil
p77
aS'corn on the cob'
p78
aVgarlic
p79
aS'uncooked beef roasts'
p80
aVlime juice
p81
ag9
aVsriracha chili sauce
p82
aVginger
p83
aVgenerous salt
p84
aVdark soy sauce
p85
aVfew sprig cilantro
p86
aS'cucumbers'
p87
atp88
sV851bc5
p89
(VDouble-Dipped Buttermilk Fried Chicken
p90
Vhttp://static.food2fork.com/3581384811.jpg
p91
Vhttp://www.epicurious.com/recipes/food/views/Double-Dipped-Buttermilk-Fried-Chicken-358138
p92
(lp93
Vbuttermilk
p94
aVthyme
p95
aVtabasco sauce
p96
aVworcestershire sauce
p97
aVkosher salt
p98
aVblack pepper
p99
ag74
ag48
aVcajun seasoning
p100
aVolive oil vegetable oil
p101
atp102
sV50480
p103
(VPork Meatball Banh Mi
p104
Vhttp://static.food2fork.com/mare_pork_meatball_banh_mi_vb507.jpg
p105
Vhttp://www.bonappetit.com/recipes/2010/01/pork_meatball_banh_mi
p106
(lp107
Vmayonnaise
p108
ag15
aVchili sauce
p109
aS'pork chops'
p110
aVfinely basil
p111
aVgarlic
p112
aVfish sauce
p113
ag9
aVcornstarch
p114
aVblack pepper
p115
aVcoarse kosher salt
p116
ag64
aVcoarsely peeled daikon
p117
ag60
aVasian sesame oil
p118
aV-inch-long individual baguette four -inch-long piece french-bread baguette
p119
aVthinly sliced jalape chile
p120
aVcilantro sprig
p121
atp122
sVcacc8a
p123
(VGrilled Shishito Peppers
p124
Vhttp://static.food2fork.com/GrilledShishitoPeppers683a0.jpg
p125
Vhttp://www.twopeasandtheirpod.com/grilled-shishito-peppers/
p126
(lp127
Volive oil
p128
aVsesame oil
p129
aVlite soy sauce tamari
p130
aVshishito pepper
p131
aVsea salt
p132
aVroughly blue diamond sriracha almond
p133
atp134
sV37843
p135
(VHoney Chicken Skewers With Grilled-Corn Salad
p136
Vhttp://static.food2fork.com/20meals11_300e6362172.jpg
p137
Vhttp://www.realsimple.com/food-recipes/browse-all-recipes/honey-chicken-skewers-00000000000701/index.html
p138
(lp139
Vketchup
p140
aVhoney
p141
aVworcestershire sauce
p142
aNaVkosher salt pepper
p143
aVcanola oil
p144
aS'pears'
p145
atp146
sV08de30
p147
(VBlack-Eyed Pea Vegan Burgers  Recipe
p148
Vhttp://static.food2fork.com/29433_black_bean_burger_620b533.jpg
p149
Vhttp://www.chow.com/recipes/29433-black-eyed-pea-vegan-burgers
p150
(lp151
Vvegetable oil
p152
aS'mushrooms '
p153
aVkosher salt
p154
aVblack pepper
p155
aVshallot
p156
aVgarlic
p157
aS'peaches'
p158
aVscallion
p159
aVfinely cilantro leaf stem
p160
aVtamari
p161
aVtabasco sauce
p162
aS'rolls'
p163
atp164
sV35781
p165
(VBeef Kebabs
p166
Vhttp://static.food2fork.com/beefkebabsa1300x200ae235276.jpg
p167
Vhttp://www.simplyrecipes.com/recipes/beef_kebabs/
p168
(lp169
Volive oil
p170
aVsoy sauce
p171
aS'wine'
p172
aVhoney
p173
aVgarlic
p174
aVginger
p175
aVblack pepper
p176
aS'pork sirloin roast'
p177
aVbell pepper
p178
ag15
ag153
aVabout bamboo wooden skewer
p179
atp180
sV28854
p181
(VSlow Cooker Barbeque Ribs
p182
Vhttp://static.food2fork.com/3636148e95.jpg
p183
Vhttp://allrecipes.com/Recipe/Slow-Cooker-Barbecue-Ribs/Detail.aspx
p184
(lp185
g110
aVsalt
p186
aVpepper
p187
aVketchup
p188
aVchili sauce
p189
ag9
aVvinegar
p190
aVoregano
p191
aVworcestershire sauce
p192
aVsauce
p193
atp194
sV94a4d1
p195
(VHomemade Enchilada Sauce
p196
Vhttp://static.food2fork.com/205xNxHomemadeRedEnchiladaSaucecopyb656.jpg.pagespeed.ic.mbb09hSCm_.jpg
p197
Vhttp://www.healthy-delicious.com/2014/02/meatballs-homemade-enchilada-sauce/
p198
(lp199
Vancho chile pepper
p200
aNaS'tomatoes'
p201
aVgarlic
p202
aVcumin
p203
ag74
aS'apple sauce'
p204
aVsalt
p205
ag110
ag15
ag64
aVjalapeo pepper
p206
aS'bread'
p207
ag47
aVhomemade enchilada sauce
p208
atp209
sVb8e9fe
p210
(VKorean Kalbi Baby Back Ribs
p211
Vhttp://static.food2fork.com/koreankalbibabybackribsrecipefeatured9339200x1500c0d.jpg
p212
Vhttp://www.steamykitchen.com/27226-korean-kalbi-baby-back-ribs-recipe-video.html
p213
(lp214
S'short ribs'
p215
aVsalt black pepper
p216
ag15
aVgarlic
p217
aVginger
p218
aVhoney
p219
ag9
aVsoy sauce
p220
aVsesame seed
p221
aVdark sesame oil
p222
ag60
atp223
sV1775
p224
(VAsian Orange Chicken
p225
Vhttp://static.food2fork.com/659677f9bc.jpg
p226
Vhttp://allrecipes.com/Recipe/Asian-Orange-Chicken/Detail.aspx
p227
(lp228
NaS'oranges'
p229
aS'lemons'
p230
ag60
aVsoy sauce
p231
ag9
aVginger root
p232
aVgarlic
p233
ag15
aVred pepper flake
p234
aVnbsp
p235
aVcornstarch
p236
ag48
aVsalt
p237
aVpepper
p238
aVolive oil
p239
atp240
sV18796
p241
(VKung Pao Chicken
p242
Vhttp://static.food2fork.com/290890bd01.jpg
p243
Vhttp://allrecipes.com/Recipe/Kung-Pao-Chicken/Detail.aspx
p244
(lp245
Nag172
aVsoy sauce
p246
aVsesame oil
p247
aVcornstarch
p248
aVchile paste
p249
aVdistilled white vinegar
p250
ag9
ag15
aVgarlic
p251
aVchestnut
p252
aS'peanut butter'
p253
atp254
sV80b773
p255
(VGrilled Chicken with Blackberry Sweet and Sour Sauce Recipe
p256
Vhttp://static.food2fork.com/blackberrycognacsweetandsourchickenrecipefeatured9264200x150f3b5.jpg
p257
Vhttp://www.steamykitchen.com/27061-grilled-chicken-with-blackberry-sweet-and-sour-sauce-recipe-video.html
p258
(lp259
g74
aVcooking oil
p260
aVsalt
p261
aVpepper
p262
aVblackberry jam
p263
aVcognac
p264
ag60
aVginger
p265
aVsoy sauce
p266
aVkosher sea salt
p267
aVblackberry
p268
aVmint
p269
atp270
sV527f1c
p271
(VAll Recipes
p272
Vhttp://static.food2fork.com/curriedcoconutquinoaandgreenswithroastedcauliflowerc86f.jpg
p273
Vhttp://cookieandkate.com/2014/curried-coconut-quinoa-greens-roasted-cauliflower/
p274
(lp275
Vcauliflower
p276
aVmelted coconut oil olive oil
p277
aVcayenne pepper
p278
aVsea salt
p279
ag15
aVginger
p280
aVturmeric
p281
aVcurry powder choice
p282
aVcardamom
p283
aS'milk'
p284
aNaVquinoa
p285
aVraisin
p286
ag204
aVarugula chard
p287
atp288
sVfa8d56
p289
(Vcheddar, beer and mustard pull-apart bread
p290
Vhttp://static.food2fork.com/6813622849_dbd0933bda7481.jpg
p291
Vhttp://smittenkitchen.com/blog/2012/02/cheddar-beer-and-mustard-pull-apart-bread/
p292
(lp293
S'butter'
p294
aVplus beer
p295
ag48
ag9
aVenvelope
p296
aVtable salt
p297
ag47
aVdijon mustard your choice
p298
aVworcestershire sauce
p299
aVsauce
p300
aVmustard powder
p301
aVpaprika
p302
aVseveral grind black pepper
p303
aS'cheddar cheese'
p304
atp305
sV48355
p306
(VChinese Broccoli Beef Noodle Stir Fry Recipe
p307
Vhttp://static.food2fork.com/broccolibeefnoodles591200x150b058.jpg
p308
Vhttp://www.steamykitchen.com/4997-broccoli-beef-noodle-stir-fry.html
p309
(lp310
Vsoy sauce
p311
aVoyster sauce
p312
ag172
ag9
aVtapioca starch cornstarch
p313
aVdark sesame oil
p314
ag80
aVnoodle
p315
aVvegetable oil
p316
aVgarlic
p317
ag74
ag63
aVblack pepper
p318
atp319
sV13007
p320
(VFamous Japanese Restaurant-Style Salad Dressing
p321
Vhttp://static.food2fork.com/2158489906.jpg
p322
Vhttp://allrecipes.com/Recipe/Famous-Japanese-Restaurant-Style-Salad-Dressing/Detail.aspx
p323
(lp324
g15
ag253
ag60
aNaVginger root
p325
aS'celery'
p326
aVketchup
p327
aVsoy sauce
p328
ag9
ag230
aVgarlic
p329
aVsalt
p330
aVblack pepper
p331
atp332
sV34889
p333
(VZesty Slow Cooker Chicken Barbeque
p334
Vhttp://static.food2fork.com/4515542dbb.jpg
p335
Vhttp://allrecipes.com/Recipe/Zesty-Slow-Cooker-Chicken-Barbecue/Detail.aspx
p336
(lp337
NaVbottle barbeque sauce
p338
aVitalian salad dressing
p339
ag9
aVworcestershire sauce
p340
atp341
sV39108
p342
(VSlow Cooker Soy-Braised Chicken
p343
Vhttp://static.food2fork.com/chickenabodo_3003ccadb1d.jpg
p344
Vhttp://www.realsimple.com/food-recipes/browse-all-recipes/chicken-adobo-with-bok-choy-00000000050978/index.html
p345
(lp346
g15
aVgarlic
p347
ag204
aVsoy sauce
p348
ag9
aVbay leaf
p349
aVblack pepper
p350
aNaVpaprika
p351
ag60
aVbok choy
p352
atp353
sV35845
p354
(VBroccoli Beef
p355
Vhttp://static.food2fork.com/jadenbroccolibeefhoriz300x2006f7741d2.jpg
p356
Vhttp://www.simplyrecipes.com/recipes/broccoli_beef/
p357
(lp358
g177
ag63
aVhigh-heat cooking oil
p359
aVgarlic
p360
aVcornstarch
p361
aVsoy sauce
p362
ag60
aVblack pepper
p363
aVoyster sauce
p364
ag74
atp365
sVde9921
p366
(VSea bass with sizzled ginger, chilli &amp; spring onions
p367
Vhttp://static.food2fork.com/3366_MEDIUM7344.jpg
p368
Vhttp://www.bbcgoodfood.com/recipes/3366/sea-bass-with-sizzled-ginger-chilli-and-spring-oni
p369
(lp370
Vsea bass fillet
p371
aVabout sunflower oil
p372
aVknob ginger
p373
aVgarlic
p374
aVfat
p375
ag15
aVsoy sauce
p376
atp377
sV36357
p378
(VGazpacho
p379
Vhttp://static.food2fork.com/gazpacho266x200d41c3529.jpg
p380
Vhttp://www.simplyrecipes.com/recipes/gazpacho/
p381
(lp382
g201
ag15
ag87
aVsweet red bell pepper seeded
p383
ag326
aVparsley
p384
aVchive
p385
aVgarlic
p386
ag172
aVolive oil
p387
ag230
ag9
aVsalt
p388
aVfresh ground pepper
p389
aVmore drop tabasco sauce
p390
aVworcestershire sauce
p391
atp392
sV36770
p393
(VPotato Leek Soup
p394
Vhttp://static.food2fork.com/potatoleeksoup500300x2003404f597.jpg
p395
Vhttp://www.simplyrecipes.com/recipes/potato_leek_soup/
p396
(lp397
Vleek
p398
ag294
aNag74
ag43
aVmarjoram
p399
aVparsley
p400
aVthyme
p401
aVtabasco sauce red chili sauce
p402
aVsalt pepper
p403
atp404
sV066913
p405
(Vcharred pepper steak sauce
p406
Vhttp://static.food2fork.com/7734913732_3238e2c2b2b8cd.jpg
p407
Vhttp://smittenkitchen.com/blog/2012/08/charred-pepper-steak-sauce/
p408
(lp409
Vred bell pepper
p410
ag201
ag229
aVworcestershire sauce
p411
aVolive oil
p412
aVbalsamic vinegar
p413
aVmolasses
p414
aVtable salt more
p415
aVmustard
p416
aVginger
p417
aVblack pepper
p418
ag15
aVallspice
p419
atp420
sVd7d9c4
p421
(VAsian Salad with Soy-Ginger Vinaigrette
p422
Vhttp://static.food2fork.com/AsianSaladwithGingerSoyVinaigrette13b68.jpg
p423
Vhttp://www.twopeasandtheirpod.com/asian-salad-with-soy-ginger-vinaigrette/
p424
(lp425
NaVspring mix salad mix
p426
ag64
ag87
aVsheet toasted seaweed
p427
aVtoasted sesame seed
p428
aVcilantro leaf
p429
aVavocado
p430
aVblue diamond wasabi soy sauce almond
p431
ag78
ag60
aVtamari soy sauce
p432
aVtoasted sesame oil
p433
aVcanola oil
p434
ag9
aVgarlic
p435
aVginger
p436
aVblack pepper
p437
atp438
sV34642
p439
(VWisconsin Native's Beer Cheese Soup
p440
Vhttp://static.food2fork.com/3186623a1.jpg
p441
Vhttp://allrecipes.com/Recipe/Wisconsin-Natives-Beer-Cheese-Soup/Detail.aspx
p442
(lp443
g64
ag15
ag326
aVgarlic
p444
aVpepper sauce
p445
aVcayenne pepper
p446
aVsalt
p447
aVblack pepper
p448
ag74
aVbeer
p449
ag294
ag48
ag284
ag304
aVdijon mustard
p450
aVworcestershire sauce
p451
aVdry mustard
p452
aVpopped popcorn
p453
atp454
sVd9c513
p455
(VSpicy Korean Tacos
p456
Vhttp://static.food2fork.com/koreanbulgogitacos33723.jpg
p457
Vhttp://www.healthy-delicious.com/2013/08/spicy-korean-tacos/
p458
(lp459
Vchili-garlic sauce
p460
aVreduced sodium soy sauce
p461
ag9
ag60
aS'ground chuck'
p462
aVolive oil
p463
aVold paso stand stuff soft taco shell
p464
aVkimchi
p465
ag87
atp466
sV20a6fc
p467
(VAll Recipes
p468
Vhttp://static.food2fork.com/thaipineapplefriedrice270x372de7f.jpg
p469
Vhttp://cookieandkate.com/2015/thai-pineapple-fried-rice-recipe/
p470
(lp471
Vcoconut oil quality vegetable oil
p472
ag47
aVpineapple
p473
aVred bell pepper
p474
ag15
aVgarlic
p475
aS'strawberries'
p476
ag80
aVreduced-sodium tamari soy sauce
p477
aVchili garlic sauce sriracha
p478
aVlime
p479
aVseason with salt
p480
aVcilantro leaf
p481
atp482
sV47572
p483
(VBacon jam recipe: make it at home
p484
Vhttp://static.food2fork.com/baconjambiscuit_DSC11743b6c3298.jpg
p485
Vhttp://homesicktexan.blogspot.com/2009/09/bacon-jam-recipe-make-it-at-home.html
p486
(lp487
S'bacon'
p488
aVgarlic
p489
ag15
aVchipotle adobo
p490
aVadobo sauce
p491
aVancho chile powder
p492
aVallspice
p493
aVmexican chocolate
p494
aS'coffee'
p495
ag204
aVblack pepper
p496
atp497
sV14380
p498
(VGeneral Tsao's Chicken II
p499
Vhttp://static.food2fork.com/9653423a76.jpg
p500
Vhttp://allrecipes.com/Recipe/General-Tsaos-Chicken-Ii/Detail.aspx
p501
(lp502
Vvegetable oil frying
p503
ag47
aNaVsalt
p504
ag9
aVwhite pepper
p505
aVcornstarch
p506
aVnbsp
p507
aVvegetable oil
p508
ag15
aVgarlic
p509
aVred chilies
p510
ag229
aVginger
p511
ag74
ag60
aVsoy sauce
p512
aVsesame oil
p513
ag253
atp514
sV35276
p515
(VDakkochi (Korean Skewered Chicken)
p516
Vhttp://static.food2fork.com/Dakkochi(KoreanSkeweredChicken)500b18d8857.jpg
p517
Vhttp://www.closetcooking.com/2010/06/dakkochi-korean-skewered-chicken.html
p518
(lp519
g74
aVgarlic
p520
aVinch ginger
p521
ag15
ag145
aVsoy sauce
p522
aVsesame oil
p523
ag9
aVpepper
p524
atp525
sV36906
p526
(VSeared Ahi Tuna
p527
Vhttp://static.food2fork.com/searedahituna300x20017169c85.jpg
p528
Vhttp://www.simplyrecipes.com/recipes/seared_ahi_tuna/
p529
(lp530
S'tuna'
p531
aVdark sesame oil
p532
aVsoy sauce wheat-free tamari gluten-free option
p533
aVginger
p534
aVgarlic
p535
ag15
aVlime juice
p536
atp537
sVdb83f1
p538
(VKorean Pancakes - Pajun
p539
Vhttp://static.food2fork.com/IMG_5212180x18034ef.jpg
p540
Vhttp://www.aspicyperspective.com/2013/02/korean-pancakes-pajun-pajeon.html
p541
(lp542
Nag48
ag47
aVsea salt
p543
aVhash brown
p544
ag64
aVred bell pepper
p545
aVzucchini
p546
ag15
aVpepper
p547
aVvegetable oil cooking
p548
aVlow-sodium soy sauce
p549
ag60
ag9
aVsesame oil
p550
aVgarlic
p551
aVsesame seed
p552
aVred pepper
p553
atp554
sV25187
p555
(VPot Stickers Traditional
p556
Vhttp://static.food2fork.com/38279cbd5.jpg
p557
Vhttp://allrecipes.com/Recipe/Pot-Stickers-Traditional/Detail.aspx
p558
(lp559
g110
ag26
ag15
aVginger root
p560
aVchestnut
p561
aVsalt
p562
ag9
aVsesame oil
p563
aVwonton wrapper
p564
aVvegetable oil
p565
aNaVchili oil
p566
aVsoy sauce
p567
ag60
atp568
sV46939
p569
(VSimple, Scrumptious Grilled Chicken
p570
Vhttp://static.food2fork.com/scrumptiousb65f.jpg
p571
Vhttp://thepioneerwoman.com/cooking/2012/04/simple-scrumptious-grilled-chicken-grillin-recipe-contest/
p572
(lp573
NaVbalsamic vinegar
p574
aVolive oil
p575
ag9
ag6
aVhoney
p576
ag488
aVworcestershire sauce
p577
aVsauce
p578
aS'beans'
p579
atp580
sV7fc84d
p581
(VMile High Crush/ Emerald City Crush
p582
Vhttp://static.food2fork.com/Chooseyourowndrinke194.gif.pagespeed.ce.aFsSQ5kaki.gif
p583
Vhttp://www.healthy-delicious.com/2014/01/pulled-jerk-chicken-mile-high-emerald-city-crusher/
p584
(lp585
g60
aVcaptain morgan original spiced rum
p586
aVtriple sec
p587
ag229
aVsprite
p588
aVblue curaao
p589
aNaVmolasses
p590
aVsoy sauce
p591
ag204
aVlime
p592
ag15
aVgarlic
p593
ag163
aVcole slaw mix
p594
aVolive oil
p595
aVsalt
p596
atp597
sV6234fd
p598
(VSteamed fish with ginger &amp; spring onion
p599
Vhttp://static.food2fork.com/2778669_MEDIUMff04.jpg
p600
Vhttp://www.bbcgoodfood.com/recipes/2778669/steamed-fish-with-ginger-and-spring-onion
p601
(lp602
Vpak choi
p603
aVfillet firm white fish
p604
aVpiece ginger
p605
aVgarlic
p606
aVlow-salt soy sauce
p607
ag60
ag15
aVcoriander
p608
aVlime
p609
atp610
sV02aaf0
p611
(VAsian-Marinated Baked Chicken Recipe
p612
Vhttp://static.food2fork.com/30350_RecipeImage_620x413_asian_marinated_chickena896.jpg
p613
Vhttp://www.chow.com/recipes/30350-asian-marinated-baked-chicken
p614
(lp615
Vsoy sauce
p616
ag9
aVpeeled finely ginger from -inch piece
p617
aVfinely garlic
p618
aVtoasted sesame oil
p619
aVblack pepper
p620
aVbone-in
p621
atp622
sV47033
p623
(VBarbecue Chicken Legs
p624
Vhttp://static.food2fork.com/5630304858_69493eccda_z24a3.jpg
p625
Vhttp://thepioneerwoman.com/cooking/2011/04/barbecue-chicken/
p626
(lp627
g74
aVcanola oil
p628
ag15
aVgarlic
p629
aVketchup
p630
ag9
aVdistilled vinegar
p631
aVworcestershire sauce
p632
aVmolasses
p633
aVchipotle adobo sauce
p634
aVsalt
p635
atp636
sV54281
p637
(VCauliflower Steaks with Ginger-Soy Sauce
p638
Vhttp://static.food2fork.com/cauliflowersteaks33aca.jpg
p639
Vhttp://www.twopeasandtheirpod.com/cauliflower-steaks-with-ginger-soy-sauce/
p640
(lp641
Vcauliflower
p642
aVolive oil
p643
aVlow-sodium soy sauce
p644
aNag9
ag15
aVfinely ginger
p645
aVtoasted sesame seed
p646
atp647
sV47334
p648
(VAsian Noodle Salad
p649
Vhttp://static.food2fork.com/AsianNoodleSalad1754.jpg
p650
Vhttp://thepioneerwoman.com/cooking/2008/03/my_most_favorite_salad_ever_ever_ever_ever/
p651
(lp652
NaVlinguine noodle
p653
ag26
aVred bell pepper
p654
aVyellow bell pepper
p655
ag229
aVcilantro
p656
aVscallion
p657
ag87
aVabout cashew
p658
aVlime
p659
aVolive oil
p660
aVsoy sauce
p661
aVsesame oil
p662
ag9
aVginger
p663
aVgarlic
p664
aVpepper jalapeno
p665
atp666
sV3633b2
p667
(VVietnamese-Style Summer Rolls with Peanut Sauce Recipe
p668
Vhttp://static.food2fork.com/10641_RecipeImage_620x413_vietnamese_summer_rolls53fd.jpg
p669
Vhttp://www.chow.com/recipes/10641-vietnamese-style-summer-rolls-with-peanut-sauce
p670
(lp671
g253
aNaVhoisin sauce
p672
aVsqueezed lime juice
p673
aVsoy sauce
p674
ag9
aVchile-garlic paste
p675
aVgarlic
p676
aVtoasted sesame oil
p677
aVshrimp
p678
ag60
aS'round roast'
p679
ag579
aVmint leaf
p680
aVbasil thai basil leaf
p681
aVcilantro sprig
p682
aVserrano chile
p683
ag87
aVscallion
p684
aS'lettuce'
p685
atp686
sV46946
p687
(VPork Chops with Pineapple Fried Rice
p688
Vhttp://static.food2fork.com/pineappled39c.jpg
p689
Vhttp://thepioneerwoman.com/cooking/2012/03/pork-chops-with-pineapple-fried-rice/
p690
(lp691
Vpineapple
p692
ag60
ag110
ag294
ag253
ag15
aVsoy sauce more
p693
aVhoney
p694
aVsriracha
p695
aVsalt
p696
aVgarlic
p697
ag47
aVdrained pimento
p698
ag158
aVsoy sauce
p699
atp700
sVb327ff
p701
(VTriple Pork Fried Rice
p702
Vhttp://static.food2fork.com/IMG_5525180x180eadb.jpg
p703
Vhttp://www.aspicyperspective.com/2013/04/triple-pork-fried-rice.html
p704
(lp705
g80
ag110
aS'ham'
p706
ag488
ag47
ag15
aVginger
p707
aVgarlic
p708
ag158
ag64
aVsoy sauce
p709
aVgarlic chile sauce sriracha
p710
aVlime
p711
aVoil
p712
atp713
sV47930
p714
(VAsparagus Stir-Fry
p715
Vhttp://static.food2fork.com/asparagus_stirfry_recipea599.jpg
p716
Vhttp://www.101cookbooks.com/archives/asparagus-stirfry-recipe.html
p717
(lp718
Vtoasted sesame oil
p719
aVextra-firm tofu
p720
ag15
aVscant ginger
p721
aVred pepper flake
p722
aVbunch asparagus
p723
aVcouple big fine-grain sea salt
p724
aVgarlic
p725
aVbig toasted cashew
p726
aVfew spinach
p727
aVzest
p728
aVjuice of one lime
p729
aVhoisin sauce
p730
aVmint
p731
aVbasil
p732
atp733
sV28789
p734
(VSlammin' Salmon
p735
Vhttp://static.food2fork.com/44537d933.jpg
p736
Vhttp://allrecipes.com/Recipe/Slammin-Salmon/Detail.aspx
p737
(lp738
Vbalsamic vinegar
p739
ag230
aVsoy sauce
p740
aVsalt
p741
ag9
aVginger
p742
aVpaprika
p743
aVblack pepper
p744
aVred pepper flake
p745
aVgarlic
p746
ag15
aVsesame oil
p747
ag253
aNatp748
sV4c8b32
p749
(VThai-style steamed fish
p750
Vhttp://static.food2fork.com/1031_MEDIUM5e70.jpg
p751
Vhttp://www.bbcgoodfood.com/recipes/1031/thaistyle-steamed-fish
p752
(lp753
Vtrout fillet
p754
aVknob root ginger
p755
aVgarlic
p756
aVred chilli not bird eye
p757
aVzest juice lime
p758
aVpak choi
p759
aVsoy sauce
p760
atp761
sV13314
p762
(VFirecracker Grilled Alaska Salmon
p763
Vhttp://static.food2fork.com/9973478ef5.jpg
p764
Vhttp://allrecipes.com/Recipe/Firecracker-Grilled-Alaska-Salmon/Detail.aspx
p765
(lp766
Vfillet salmon
p767
ag253
aVsoy sauce
p768
aVbalsamic vinegar
p769
ag15
ag9
aVgarlic
p770
aVginger
p771
aVred pepper flake
p772
aVsesame oil
p773
aVsalt
p774
atp775
sVbedf9d
p776
(VThai chicken curry
p777
Vhttp://static.food2fork.com/1788_MEDIUMe870.jpg
p778
Vhttp://www.bbcgoodfood.com/recipes/1788/thai-chicken-curry
p779
(lp780
Vshallot
p781
aVstalk lemongrass
p782
aVvegetable oil
p783
aVred thai curry paste
p784
ag74
aVfish sauce
p785
ag9
aVfreeze-dried kaffir lime leaf
p786
ag284
aVpack coriander
p787
atp788
sV35144
p789
(VBlackened Catfish Tacos
p790
Vhttp://static.food2fork.com/Blackened2BCatfish2BTacos2B5002B93500140f445.jpg
p791
Vhttp://www.closetcooking.com/2012/04/blackened-catfish-tacos.html
p792
(lp793
Vcatfish white fish
p794
ag294
aVcreole seasoning
p795
aVtortilla
p796
ag685
aVpico gallo
p797
aVremoulade sauce
p798
aVsauce
p799
atp800
sVe971a6
p801
(VEasy Chickpea Vegetable Stir Fry
p802
Vhttp://static.food2fork.com/EasyChickpeaVegetableStirFry6024c.jpg
p803
Vhttp://www.twopeasandtheirpod.com/easy-chickpea-vegetable-stir-fry/
p804
(lp805
NaVkroger lite soy sauce tamari sauce
p806
aVkroger vegetable broth
p807
ag60
aVsesame oil
p808
ag9
aVgarlic chile sauce
p809
aVfinely ginger
p810
aS'corn'
p811
aVolive oil
p812
ag63
ag64
ag153
aVred pepper
p813
aVyellow pepper
p814
aVkroger sliced chestnut
p815
aVkroger chickpea
p816
ag80
atp817
sV28131
p818
(VSesame Pasta Chicken Salad
p819
Vhttp://static.food2fork.com/929408403.jpg
p820
Vhttp://allrecipes.com/Recipe/Sesame-Pasta-Chicken-Salad/Detail.aspx
p821
(lp822
Vsesame seed
p823
aVbow tie pasta
p824
aVvegetable oil
p825
aVlight soy sauce
p826
ag60
aVsesame oil
p827
ag9
aVginger
p828
aVblack pepper
p829
aNaVcilantro
p830
ag15
atp831
sV1389bf
p832
(VSauted Bok Choy Recipe
p833
Vhttp://static.food2fork.com/28079_sauteed_bok_choy_600182a.jpg
p834
Vhttp://www.chow.com/recipes/28071-sauteed-bok-choy
p835
(lp836
Vvegetable oil
p837
aVgarlic
p838
aVginger from -inch piece
p839
aVred pepper flake
p840
aVbok choy
p841
aVinto -inch piece
p842
aVsoy sauce
p843
aNaVtoasted sesame oil
p844
aVsalt
p845
atp846
sV5853
p847
(VCaramel Apple Pork Chops
p848
Vhttp://static.food2fork.com/163843c1dd.jpg
p849
Vhttp://allrecipes.com/Recipe/Caramel-Apple-Pork-Chops/Detail.aspx
p850
(lp851
g110
aVvegetable oil
p852
ag9
aVsalt
p853
aVpepper
p854
aVcinnamon
p855
aVnutmeg
p856
ag294
ag204
aVpecan
p857
atp858
sVf3ceb9
p859
(VThai Red Curry with Kabocha Squash Recipe
p860
Vhttp://static.food2fork.com/30268_Recipeimage_620x413_thai_curry_squash8dfe.jpg
p861
Vhttp://www.chow.com/recipes/30268-thai-red-curry-with-kabocha-squash
p862
(lp863
Vvegetable oil
p864
ag15
aVkosher salt
p865
aVgreen bell pepper
p866
aVgarlic
p867
aVpeeled finely ginger from about -inch piece
p868
aVthai red curry paste
p869
ag284
aNaVsoy sauce
p870
aVkabocha squash
p871
aVsqueezed lime juice
p872
aVcoarsely cilantro
p873
atp874
sV41461
p875
(VDan Dan Mian
p876
Vhttp://static.food2fork.com/Dan2BDan2BMian2B5002B3718d0ad1c3c.jpg
p877
Vhttp://www.closetcooking.com/2008/04/dan-dan-mian.html
p878
(lp879
g110
ag60
aVoil
p880
aVgarlic
p881
aVginger
p882
aVsesame paste
p883
aVsoy sauce
p884
aVsesame oil
p885
ag9
aVchili oil chili sauce
p886
aVsichuan peppercorn
p887
aVtianjin preserved vegetable
p888
ag74
aVnoodle
p889
ag15
ag87
atp890
sV35452
p891
(VPad Thai
p892
Vhttp://static.food2fork.com/PadThai500f54a3331.jpg
p893
Vhttp://www.closetcooking.com/2008/11/pad-thai.html
p894
(lp895
Vtamarind concentrate
p896
aVfish sauce
p897
ag9
aVchili sauce
p898
ag60
ag253
aVserving shrimp
p899
aVshallot
p900
aVgarlic
p901
ag47
ag579
ag15
aVcilantro
p902
aVlime wedge
p903
atp904
sV30850
p905
(VStrawberry Spinach Salad I
p906
Vhttp://static.food2fork.com/111394449f.jpg
p907
Vhttp://allrecipes.com/Recipe/Strawberry-Spinach-Salad-I/Detail.aspx
p908
(lp909
Vsesame seed
p910
aVpoppy seed
p911
ag9
aVolive oil
p912
aVdistilled white vinegar
p913
aVpaprika
p914
aVworcestershire sauce
p915
ag15
aVspinach rinsed
p916
aVquart strawberry cleaned
p917
aValmond
p918
atp919
sVb5acb9
p920
(VChicken noodle soup
p921
Vhttp://static.food2fork.com/1869_MEDIUMb748.jpg
p922
Vhttp://www.bbcgoodfood.com/recipes/1869/chicken-noodle-soup
p923
(lp924
g74
aNaVroot ginger
p925
aVgarlic
p926
ag60
aVsweetcorn
p927
ag153
ag15
aVsoy sauce
p928
aVmint basil leaf little chilli
p929
atp930
sVd91c10
p931
(VShrimp & Zucchini Stir-Fry Recipe with Miso Lime Sauce
p932
Vhttp://static.food2fork.com/MisoShrimpZucchini661b.jpg
p933
Vhttp://www.cookincanuck.com/2013/07/shrimp-zucchini-stir-fry-recipe-with-miso-lime-sauce/
p934
(lp935
Vcanola oil
p936
aVginger
p937
aVgarlic
p938
aVred chili flake
p939
ag74
aVlime juice
p940
ag229
ag60
aVwhite miso
p941
aVsesame oil
p942
aVagave nectar
p943
aVshrimp
p944
aVzucchini
p945
atp946
sV46925
p947
(VBarbecue Chicken Sandwiches
p948
Vhttp://static.food2fork.com/bbqchickenbdf3.jpg
p949
Vhttp://thepioneerwoman.com/cooking/2012/05/barbecue-chicken-sandwiches/
p950
(lp951
g74
aVsalt
p952
aVpepper
p953
aVcanola oil
p954
aVbottle barbecue sauce
p955
ag15
aVgarlic
p956
aNag26
ag284
aVmayonnaise
p957
aVwhite vinegar
p958
ag9
aVcayenne pepper
p959
aVbunch cilantro
p960
atp961
sV47027
p962
(VMM Sandwich, Adorned
p963
Vhttp://static.food2fork.com/sandaac8.jpg
p964
Vhttp://thepioneerwoman.com/cooking/2011/05/make-this-today/
p965
(lp966
g15
ag294
ag6
aVkosher salt
p967
aVblack pepper
p968
aVworcestershire sauce
p969
aVtabasco sauce
p970
ag163
aVmozzarella
p971
ag201
aVarugula
p972
atp973
sV028167
p974
(VSesame Chicken Salad
p975
Vhttp://static.food2fork.com/DSC_7994a656.jpg
p976
Vhttp://thepioneerwoman.com/cooking/2014/11/sesame-chicken-salad/
p977
(lp978
NaVsalt
p979
aVpepper
p980
aVolive oil
p981
aVlow sodium soy sauce
p982
ag60
aVgarlic
p983
aVginger
p984
aVtoasted sesame oil
p985
ag9
aVred pepper flake
p986
aVmixed green
p987
ag15
aS'grapefruit'
p988
ag229
aVsesame seed
p989
aVblack sesame seed
p990
atp991
sV26417
p992
(VRed Lentil Curry
p993
Vhttp://static.food2fork.com/490284baac.jpg
p994
Vhttp://allrecipes.com/Recipe/Red-Lentil-Curry/Detail.aspx
p995
(lp996
Vred lentil
p997
ag15
aVvegetable oil
p998
aVcurry paste
p999
aVcurry powder
p1000
aVturmeric
p1001
aVcumin
p1002
aVchili powder
p1003
aVsalt
p1004
ag9
aVgarlic
p1005
aVginger root
p1006
ag201
atp1007
sV7988ff
p1008
(VAsian Cucumber Noodle Salad
p1009
Vhttp://static.food2fork.com/AsianCucumberNoodleSalad64f17.jpg
p1010
Vhttp://www.twopeasandtheirpod.com/asian-cucumber-noodle-salad/
p1011
(lp1012
NaVlite soy sauce tamari sauce
p1013
aVsesame oil
p1014
ag60
aVlime juice
p1015
ag15
aVcilantro
p1016
aVsesame seed
p1017
aVginger
p1018
aVred pepper flake
p1019
aVsalt
p1020
aVblack pepper
p1021
ag87
ag80
aVred bell pepper
p1022
aVyellow bell pepper
p1023
ag64
ag26
atp1024
sVf96caf
p1025
(VSoy-baked salmon with zingy salsa
p1026
Vhttp://static.food2fork.com/519_1_1350907886_lrg2005.jpg
p1027
Vhttp://www.jamieoliver.com/recipes/fish-recipes/soy-baked-salmon-with-zingy-salsa
p1028
(lp1029
Vlow-salt soy sauce
p1030
ag60
aVthumb-sized piece ginger
p1031
ag230
aVlime
p1032
aVside salmon
p1033
aNaVred pepper
p1034
aVgreen chilli
p1035
aVextra virgin olive oil
p1036
aVfew sprig mint
p1037
aVsea salt
p1038
aVblack pepper
p1039
atp1040
sV963cb1
p1041
(VSticky duck-dogs with chopped mango slaw &amp; Chinese crisps
p1042
Vhttp://static.food2fork.com/2972683_MEDIUM0018.jpg
p1043
Vhttp://www.bbcgoodfood.com/recipes/2972683/sticky-duckdogs-with-chopped-mango-slaw-and-chines
p1044
(lp1045
Vpack crispy duck with pancake hoisin sauce
p1046
aVvegetable oil
p1047
aVchinese five-spice powder
p1048
ag201
aVclear honey
p1049
aVsoy sauce
p1050
aVginger pure
p1051
ag47
ag163
aVsesame seed
p1052
ag60
aVjuice lime
p1053
ag9
aVmango
p1054
ag26
aVred chilli
p1055
ag15
aVcoriander leaf
p1056
atp1057
sV47028
p1058
(VBeef Noodle Salad Bowls
p1059
Vhttp://static.food2fork.com/5712043212_092a8fe85d_oef65.jpg
p1060
Vhttp://thepioneerwoman.com/cooking/2011/05/beef-noodle-salad-bowls/
p1061
(lp1062
g177
aVkosher salt
p1063
aVponzo regular soy sauce
p1064
aVpure sesame oil
p1065
aVolive oil
p1066
ag60
aVchili oil you n't handle heat
p1067
aVgarlic
p1068
aVginger
p1069
ag9
ag15
aNaVcilantro leaf
p1070
atp1071
sV4d930f
p1072
(VSpicy Broccoli Saut
p1073
Vhttp://static.food2fork.com/13341054025_b15a8f29b5_o6119.png
p1074
Vhttp://www.healthy-delicious.com/2014/03/spicy-broccoli-saute/
p1075
(lp1076
Vponzu sauce
p1077
aVsesame oil
p1078
aVchili-garlic sauce
p1079
ag204
aVhoney
p1080
aVscallion
p1081
ag63
aVmarzetti asian sesame salad accent
p1082
atp1083
sV4129
p1084
(VBlooming Onion and Dipping Sauce
p1085
Vhttp://static.food2fork.com/46371172ce.jpg
p1086
Vhttp://allrecipes.com/Recipe/Blooming-Onion-And-Dipping-Sauce/Detail.aspx
p1087
(lp1088
NaVnbsp
p1089
aVmayonnaise
p1090
aVketchup
p1091
aVcream-style horseradish sauce
p1092
aVpaprika
p1093
aVsalt
p1094
aVoregano
p1095
aVblack pepper
p1096
aVcayenne pepper
p1097
ag47
ag284
ag48
aVthyme
p1098
aVcumin
p1099
ag15
aVvegetable oil frying
p1100
atp1101
sV016366
p1102
(VPork and Pt Vietnamese Sandwich (Banh Mi) Recipe
p1103
Vhttp://static.food2fork.com/11211_RecipeImage_620x413_banh_mib3e3.jpg
p1104
Vhttp://www.chow.com/recipes/11211-pork-and-pate-vietnamese-sandwich-banh-mi
p1105
(lp1106
Vsimmering
p1107
aVkosher salt
p1108
ag9
aVgarlic
p1109
aVserrano chile
p1110
aVblack peppercorn
p1111
aNaVdistilled white vinegar
p1112
ag64
aVvietnamese french baguette
p1113
aVhigh-quality store-bought mayonnaise
p1114
ag110
ag87
aVpacked cilantro leaf
p1115
aVjalapeos
p1116
aVlight soy sauce
p1117
aVtoothpick
p1118
atp1119
sV3a6137
p1120
(VAsian Quinoa Salad
p1121
Vhttp://static.food2fork.com/AsianQuinoaSalad1c875.jpg
p1122
Vhttp://www.twopeasandtheirpod.com/asian-quinoa-salad/
p1123
(lp1124
Vquinoa
p1125
aNaVsalt
p1126
ag26
ag80
aVred bell pepper
p1127
ag64
ag87
aVlite soy sauce tamari sauce
p1128
aVsesame oil
p1129
ag60
ag15
aVcilantro
p1130
aVsesame seed
p1131
aVginger
p1132
aVred pepper flake
p1133
aVblack pepper
p1134
atp1135
sV1cb26a
p1136
(VHamburger Hamlets Zucchini Zircles
p1137
Vhttp://static.food2fork.com/DSC_43793a28.jpg
p1138
Vhttp://thepioneerwoman.com/cooking/2014/08/hamburger-hamlets-zucchini-zircles/
p1139
(lp1140
NaVpineapple juice
p1141
aVsoy sauce
p1142
aVdry mustard powder
p1143
aVapricot preserve
p1144
aVzucchini
p1145
ag48
ag284
aVseasoned breadcrumb
p1146
aVsalt sprinkling
p1147
aVquart vegetable oil
p1148
atp1149
sVa949b4
p1150
(VPulled Jerk Chicken Sandwiches Recipe
p1151
Vhttp://static.food2fork.com/27788_Pulled_Jerk_Chicken_Sandwiches_6205f88.jpg
p1152
Vhttp://www.chow.com/recipes/27788-pulled-jerk-chicken-sandwiches
p1153
(lp1154
Vcinnamon
p1155
aVallspice
p1156
aVkosher salt
p1157
aVnutmeg
p1158
aVbone-in
p1159
aVvegetable oil
p1160
ag230
aVdark molasses
p1161
aVdistilled white vinegar
p1162
ag229
aVsoy sauce
p1163
aVpeppercorn
p1164
aVgarlic
p1165
aVscallion
p1166
aVcilantro
p1167
aVfinely thyme leaf
p1168
aV-inch piece ginger
p1169
aVscotch bonnet habanero pepper
p1170
ag163
atp1171
sV5f48e5
p1172
(VAll Recipes
p1173
Vhttp://static.food2fork.com/thairedcurrywithvegetables270x37201a7.jpg
p1174
Vhttp://cookieandkate.com/2015/thai-red-curry-recipe/
p1175
(lp1176
g60
aVcoconut oil olive oil
p1177
ag15
aVsalt
p1178
aVfinely ginger about -inch nub ginger
p1179
aVgarlic
p1180
aVred bell pepper
p1181
aVyellow green bell pepper
p1182
ag64
aVthai red curry paste*
p1183
ag284
aVpacked thinly sliced kale
p1184
ag9
aVsoy sauce used reduced-sodium tamari
p1185
aVgarnish side basil cilantro
p1186
atp1187
sV49421
p1188
(VCrispy Baked Chicken Wings
p1189
Vhttp://static.food2fork.com/crispybakedchickenwingswithbuffalosauce6468aa9.jpg
p1190
Vhttp://www.bonappetit.com/recipes/2012/02/crispy-baked-chicken-wings
p1191
(lp1192
g294
aVcayenne pepper
p1193
aVblack pepper
p1194
aVkosher salt
p1195
aS'frankfurters'
p1196
aVhoney
p1197
aVsoy sauce
p1198
aVgarlic
p1199
aVpiece ginger
p1200
ag74
aVvegetable oil
p1201
atp1202
sV3a5a9c
p1203
(VEgg-fried rice
p1204
Vhttp://static.food2fork.com/eggfriedrice_67782_16x93d71.jpg
p1205
Vhttp://www.bbc.co.uk/food/recipes/eggfriedrice_67782
p1206
(lp1207
g47
aVsesame oil
p1208
aVvegetable oil
p1209
ag60
ag158
ag15
aVbeansprouts
p1210
aVsoy sauce
p1211
aVwhite pepper
p1212
atp1213
sVdce2cf
p1214
(VAll Recipes
p1215
Vhttp://static.food2fork.com/quickroastedbrusselssproutswithcoconutgingersaucerecipe1226c.jpg
p1216
Vhttp://cookieandkate.com/2013/quick-roasted-brussels-sprouts-coconut-ginger-sauce/
p1217
(lp1218
g284
aVginger powdered ginger
p1219
ag9
aVreduced sodium tamari soy sauce*
p1220
aVchili garlic sauce
p1221
ag60
aVbrussels sprout
p1222
aVcoconut oil
p1223
aVsprinkle sea salt
p1224
atp1225
sV28133
p1226
(VSesame Seared Tuna
p1227
Vhttp://static.food2fork.com/398430628.jpg
p1228
Vhttp://allrecipes.com/Recipe/Sesame-Seared-Tuna/Detail.aspx
p1229
(lp1230
Vsoy sauce
p1231
aVmirin
p1232
aVhoney
p1233
aVsesame oil
p1234
ag60
ag531
aVsesame seed
p1235
aVwasabi paste
p1236
aVolive oil
p1237
atp1238
sVf2db24
p1239
(VSpiced Lentil Tacos
p1240
Vhttp://static.food2fork.com/351390cc8e.jpg
p1241
Vhttp://www.epicurious.com/recipes/food/views/Spiced-Lentil-Tacos-351390
p1242
(lp1243
Volive oil
p1244
ag15
aVgarlic
p1245
aVsalt
p1246
aVbrown lentil
p1247
aVtaco seasoning
p1248
aVvegetable broth
p1249
aVfat-free sour cream
p1250
aVchipotle chile adobo sauce
p1251
aVadobo sauce
p1252
aVtaco shell
p1253
ag685
ag201
ag304
atp1254
sV28127
p1255
(VSesame Noodles
p1256
Vhttp://static.food2fork.com/3764322255.jpg
p1257
Vhttp://allrecipes.com/Recipe/Sesame-Noodles/Detail.aspx
p1258
(lp1259
Vlinguine pasta
p1260
aVgarlic
p1261
ag9
aVsafflower oil
p1262
ag60
aVsoy sauce
p1263
aVsesame oil
p1264
aVchili sauce
p1265
ag15
aVsesame seed
p1266
atp1267
sV430a8b
p1268
(VAll Recipes
p1269
Vhttp://static.food2fork.com/choppedkalesaladwithedamamecarrotandavocadorecipe62c0.jpg
p1270
Vhttp://cookieandkate.com/2013/chopped-kale-salad-with-edamame-carrot-and-avocado/
p1271
(lp1272
g253
aVfine-grain sea salt
p1273
ag158
ag64
aVred bell pepper
p1274
aVheaping organic edamame using edamame
p1275
aVavocado
p1276
aVshallot
p1277
aVcilantro
p1278
aVthai basil
p1279
aVolive oil
p1280
ag60
aVfinely ginger
p1281
aVlow-sodium tamari low-sodium soy sauce*
p1282
aVlime juice
p1283
aVgarlic
p1284
atp1285
sV91bc14
p1286
(V10-Minute Thai Shrimp, Cucumber & Avocado Salad Recipe
p1287
Vhttp://static.food2fork.com/ThaiShrimpCucumber6e25.jpg
p1288
Vhttp://www.cookincanuck.com/2013/04/10-minute-thai-shrimp-cucumber-avocado-salad-recipe/
p1289
(lp1290
g60
aVfish sauce
p1291
aVagave nectar
p1292
aVchili garlic sauce
p1293
aVshrimp
p1294
ag87
aVavocado
p1295
aVcilantro
p1296
atp1297
sV19b785
p1298
(VOrange Chicken
p1299
Vhttp://static.food2fork.com/DSC_5209d0ac.jpg
p1300
Vhttp://thepioneerwoman.com/cooking/2014/09/orange-chicken/
p1301
(lp1302
g253
ag74
ag47
aVcornstarch
p1303
aNag229
aVsoy sauce
p1304
ag9
ag60
aVsesame oil
p1305
aVsalt
p1306
aVred pepper
p1307
aVgarlic
p1308
aVginger
p1309
ag15
atp1310
sV32482
p1311
(VThe Best Steak Marinade
p1312
Vhttp://static.food2fork.com/4767242a28.jpg
p1313
Vhttp://allrecipes.com/Recipe/The-Best-Steak-Marinade/Detail.aspx
p1314
(lp1315
Volive oil
p1316
aVbalsamic vinegar
p1317
aVworcestershire sauce
p1318
aVsoy sauce
p1319
aVdijon mustard
p1320
aVgarlic
p1321
aVsalt
p1322
aVpepper
p1323
atp1324
sV35615
p1325
(VSweet Chili Chicken Grilled Cheese Sandwich
p1326
Vhttp://static.food2fork.com/Sweet2BChili2BChicken2BGrilled2BCheese2BSandwich2B5002B69783b2f8247.jpg
p1327
Vhttp://www.closetcooking.com/2012/04/sweet-chili-chicken-grilled-cheese.html
p1328
(lp1329
Voil
p1330
ag15
ag294
ag207
aVjack
p1331
ag304
ag229
aVsalsa naranja sweet chili sauce
p1332
aVtoasted sesame seed
p1333
aVloosly packed basil
p1334
aVloosly packed cilantro
p1335
atp1336
sV35616
p1337
(VSweet Chili Chicken Quesadilla
p1338
Vhttp://static.food2fork.com/Sweet2BChili2BChicken2BQuesadilla2B5002B459829a2ca63.jpg
p1339
Vhttp://www.closetcooking.com/2012/05/sweet-chili-chicken-quesadilla.html
p1340
(lp1341
Voil
p1342
ag15
aVtortilla
p1343
aVjack
p1344
ag304
aNaVsalsa naranja sweet chili sauce
p1345
aVtoasted sesame seed
p1346
aVbasil
p1347
aVcilantro
p1348
atp1349
sV16553
p1350
(VHomemade Black Bean Veggie Burgers
p1351
Vhttp://static.food2fork.com/507107991f.jpg
p1352
Vhttp://allrecipes.com/Recipe/Homemade-Black-Bean-Veggie-Burgers/Detail.aspx
p1353
(lp1354
g579
aVgreen bell pepper
p1355
ag15
aVgarlic
p1356
ag47
aVchili powder
p1357
aVcumin
p1358
aVthai chili sauce sauce
p1359
ag207
atp1360
sV2287ec
p1361
(VGrilled Shrimp with Chile, Cilantro, and Lime
p1362
Vhttp://static.food2fork.com/51104470741d.jpg
p1363
Vhttp://www.epicurious.com/recipes/food/views/Grilled-Shrimp-with-Chile-Cilantro-and-Lime-51104470
p1364
(lp1365
Vjumbo shrimp
p1366
aVfish sauce
p1367
aVvegetable oil
p1368
aVturmeric
p1369
aVcilantro sprig
p1370
aVlong red chile
p1371
aVgarlic
p1372
aVpiece ginger
p1373
aVlime juice
p1374
ag9
atp1375
sV32bd33
p1376
(VRoasted butternut squash salad with soy balsamic dressing
p1377
Vhttp://static.food2fork.com/4107_MEDIUM2c08.jpg
p1378
Vhttp://www.bbcgoodfood.com/recipes/4107/roasted-butternut-squash-salad-with-soy-balsamic-d
p1379
(lp1380
Vbutternut squash
p1381
aVolive oil
p1382
aVpuy lentil
p1383
aVrocket
p1384
aVsesame seed
p1385
ag15
aVbalsamic vinegar
p1386
aVsoy sauce
p1387
aVred chilli
p1388
aVgarlic
p1389
aVclear honey
p1390
atp1391
sV47091
p1392
(VSteak Salad
p1393
Vhttp://static.food2fork.com/5095710774_9a8833d919_zc9c0.jpg
p1394
Vhttp://thepioneerwoman.com/cooking/2010/10/big-steak-salad/
p1395
(lp1396
g6
aNaVcanola oil
p1397
ag172
aVbalsamic vinegar
p1398
aVworcestershire sauce
p1399
aVsoy sauce
p1400
aVlime juice
p1401
ag9
aVgarlic
p1402
aVginger
p1403
aVchili oil
p1404
aVkosher salt
p1405
aVlot black pepper
p1406
ag15
aVbuttermilk
p1407
ag48
aVsalt
p1408
aVcayenne pepper
p1409
aVquart canola oil
p1410
aVblack pepper
p1411
aVpecan
p1412
ag685
ag988
aVcrumbled blue cheese
p1413
atp1414
sV47090
p1415
(VBeef with Snow Peas
p1416
Vhttp://static.food2fork.com/5112225022_e4d9aef755_zb721.jpg
p1417
Vhttp://thepioneerwoman.com/cooking/2010/10/beef-with-snow-peas/
p1418
(lp1419
g6
aVlow sodium soy sauce
p1420
aVsherry cooking sherry
p1421
ag9
aVcornstarch
p1422
aVginger
p1423
aNaVscallion
p1424
aVsalt
p1425
ag253
aVred pepper
p1426
ag60
atp1427
sV5c8d9c
p1428
(VAll Recipes
p1429
Vhttp://static.food2fork.com/thaigreencurry1270x372d9ff.jpg
p1430
Vhttp://cookieandkate.com/2015/thai-green-curry-with-spring-vegetables/
p1431
(lp1432
g60
aVcoconut oil olive oil
p1433
ag15
aVfinely ginger about -inch nub ginger
p1434
aVgarlic
p1435
aVsalt
p1436
aVbunch asparagus
p1437
ag64
aVthai green curry paste*
p1438
ag284
aNag9
aVpacked spinach
p1439
aVsoy sauce** used reduced-sodium tamari
p1440
aVgarnish cilantro red pepper flake
p1441
atp1442
sV9f7d11
p1443
(VPork Meatball Banh Mi
p1444
Vhttp://static.food2fork.com/356790e492.jpg
p1445
Vhttp://www.epicurious.com/recipes/food/views/Pork-Meatball-Banh-Mi-356790
p1446
(lp1447
Vmayonnaise
p1448
ag15
aVchili sauce
p1449
ag110
aVfinely basil
p1450
aVgarlic
p1451
aVfish sauce
p1452
ag9
aVcornstarch
p1453
aVblack pepper
p1454
aVcoarse kosher salt
p1455
ag64
aVcoarsely peeled daikon
p1456
ag60
aVasian sesame oil
p1457
aV-inch-long individual baguette four -inch-long piece french-bread baguette
p1458
aVthinly sliced jalapeo chile
p1459
aVcilantro sprig
p1460
atp1461
sV48164
p1462
(VCurried Beef Dumplings
p1463
Vhttp://static.food2fork.com/curriedbeefdumplingsrecipefeatured1124200x1501ea9.jpg
p1464
Vhttp://www.steamykitchen.com/25753-curried-beef-dumplings-recipe-video.html
p1465
(lp1466
g80
aVginger
p1467
aVgarlic
p1468
aVyellow curry powder
p1469
aVsoy sauce
p1470
aVcornstarch
p1471
aVkosher salt
p1472
aVdark sesame oil
p1473
ag47
aVred bell pepper
p1474
ag15
aVcooking oil
p1475
ag679
atp1476
sV33c0ee
p1477
(VGreen Juice
p1478
Vhttp://static.food2fork.com/IMG_00293ef0.png
p1479
Vhttp://whatsgabycooking.com/juice-cleanse-2/
p1480
(lp1481
Vleaf kale
p1482
aVspinach leaf
p1483
ag685
aVbunch parsley
p1484
ag87
ag326
ag204
aVinch piece ginger
p1485
ag230
aVinstructionsplace everything into juicer juice
p1486
aVred beet
p1487
ag64
ag229
aV-inch piece ginger
p1488
aVspinach
p1489
aVpineapple
p1490
aVinch turmeric root
p1491
aVnatural almond
p1492
aNaVagave nectar
p1493
aVcinnamon
p1494
ag579
aVstrawberry
p1495
atp1496
sV0e9d42
p1497
(VPad Thai
p1498
Vhttp://static.food2fork.com/380593c2ac.jpg
p1499
Vhttp://www.epicurious.com/recipes/food/views/Pad-Thai-380593
p1500
(lp1501
g60
aVvegetable oil
p1502
ag47
aVshrimp
p1503
aVpressed tofu
p1504
ag29
ag579
aVtamarind
p1505
aVthai fish sauce
p1506
aVsimple syrup
p1507
aVgarlic chive
p1508
aVthai chile
p1509
aVroasted
p1510
aVlime wedge
p1511
atp1512
sV9135d8
p1513
(VSesame Salmon Burgers
p1514
Vhttp://static.food2fork.com/glutenfreesesamesalmonburgerrecipe3fc1.jpg
p1515
Vhttp://www.elanaspantry.com/sesame-salmon-burgers/
p1516
(lp1517
Vsalmon
p1518
aVtoasted sesame oil
p1519
aVume plum vinegar
p1520
aVgarlic
p1521
aVpeeled ginger
p1522
aVscallion
p1523
aVtoasted sesame seed
p1524
ag47
aVgrapeseed oil
p1525
atp1526
sV32005
p1527
(VTangy Slow Cooker Pork Roast
p1528
Vhttp://static.food2fork.com/530271f254.jpg
p1529
Vhttp://allrecipes.com/Recipe/Tangy-Slow-Cooker-Pork-Roast/Detail.aspx
p1530
(lp1531
g15
ag110
aNag9
ag172
aVsoy sauce
p1532
aVketchup
p1533
aVblack pepper
p1534
aVsalt
p1535
aVgarlic powder
p1536
aVpepper sauce
p1537
atp1538
sV47249
p1539
(VGinger Steak Salad
p1540
Vhttp://static.food2fork.com/3327439142_56c49630a69bee.jpg
p1541
Vhttp://thepioneerwoman.com/cooking/2009/03/ginger-steak-salad/
p1542
(lp1543
NaVsoy sauce
p1544
aVsherry
p1545
aVgarlic
p1546
ag9
aVrib-eye
p1547
aVolive oil
p1548
aVlime juice
p1549
aVginger
p1550
aVjalapeno
p1551
ag15
atp1552
sV14526
p1553
(VGinger-Glazed Mahi Mahi
p1554
Vhttp://static.food2fork.com/1007425b694.jpg
p1555
Vhttp://allrecipes.com/Recipe/Ginger-Glazed-Mahi-Mahi/Detail.aspx
p1556
(lp1557
Vhoney
p1558
aVsoy sauce
p1559
aVbalsamic vinegar
p1560
aVginger root
p1561
aVgarlic
p1562
aVolive oil
p1563
aVmahi mahi fillet
p1564
aVsalt
p1565
aVpepper
p1566
aVvegetable oil
p1567
atp1568
sV6a8a41
p1569
(VHearty Mushroom, Farro &amp; Ginger Soup {Whole Grains Challenge}
p1570
Vhttp://static.food2fork.com/HeartyMushroomFarroGingerSoup300x300dee5.jpg
p1571
Vhttp://www.cookincanuck.com/2015/01/hearty-mushroom-farro-ginger-soup-recipe/
p1572
(lp1573
g153
aVboiling
p1574
aVolive oil
p1575
ag15
ag64
aVginger
p1576
aVgarlic
p1577
aVred pepper flake
p1578
aVpepper
p1579
aVsalt
p1580
aVbob red mill farro
p1581
aVvegetable broth
p1582
aVsoy sauce
p1583
ag60
aVflat-leaf parsley
p1584
atp1585
sV35908
p1586
(VCelery Stir Fry
p1587
Vhttp://static.food2fork.com/celerystirfryc300x2009bfe4679.jpg
p1588
Vhttp://www.simplyrecipes.com/recipes/celery_stir_fry/
p1589
(lp1590
Vhigh quality rapeseed oil light sesame oil
p1591
aVchile pepper
p1592
ag326
aVsoy sauce
p1593
atp1594
sV20020
p1595
(VPeanut Butter Noodles
p1596
Vhttp://static.food2fork.com/422062488c.jpg
p1597
Vhttp://allrecipes.com/Recipe/Peanut-Butter-Noodles/Detail.aspx
p1598
(lp1599
g74
aVginger root
p1600
aVsoy sauce
p1601
ag253
aVhoney
p1602
aVchile paste
p1603
aVgarlic
p1604
aVudon noodle
p1605
ag15
atp1606
sV269069
p1607
(VHoliday Apple-Raisin Challah
p1608
Vhttp://static.food2fork.com/3680691818.jpg
p1609
Vhttp://www.epicurious.com/recipes/food/views/Holiday-Apple-Raisin-Challah-368069
p1610
(lp1611
Vdry yeast
p1612
ag9
ag47
aVvegetable oil
p1613
aVkosher salt
p1614
ag48
ag204
aVraisin
p1615
ag230
aVhoney
p1616
aVcinnamon
p1617
atp1618
sV4b5d5d
p1619
(VSimple Smoked Beef Short Ribs
p1620
Vhttp://static.food2fork.com/3952513818.jpg
p1621
Vhttp://www.epicurious.com/recipes/food/views/Simple-Smoked-Beef-Short-Ribs-395251
p1622
(lp1623
g80
aVbarbecue sauce
p1624
aVprepared yellow mustard
p1625
aVdill pickle juice
p1626
ag172
aVworcestershire sauce
p1627
aVsoy sauce
p1628
aVgranulated garlic
p1629
aVginger
p1630
aVsea salt
p1631
aVcoarse restaurant grind black pepper
p1632
ag9
atp1633
sVbf227e
p1634
(VAsian Salmon Bowl with Lime Drizzle
p1635
Vhttp://static.food2fork.com/51101210977e.jpg
p1636
Vhttp://www.epicurious.com/recipes/food/views/Asian-Salmon-Bowl-with-Lime-Drizzle-51101210
p1637
(lp1638
g60
ag294
aVgarlic
p1639
aVred pepper flake
p1640
aVpure maple syrup
p1641
aVlime juice
p1642
aVreduced-sodium soy sauce
p1643
aVcornstarch
p1644
aVsalmon fillet
p1645
aVcanola oil
p1646
aVspinach
p1647
aVblack sesame seed
p1648
atp1649
sV35860
p1650
(VButtermilk Biscuits and Sausage Gravy
p1651
Vhttp://static.food2fork.com/biscuitsgravysas283x2006f30d866.jpg
p1652
Vhttp://www.simplyrecipes.com/recipes/buttermilk_biscuits_and_sausage_gravy/
p1653
(lp1654
g48
ag9
aVkosher salt
p1655
aS'shortening'
p1656
ag294
aVchilled buttermilk plus more
p1657
ag110
ag15
ag284
aVpoultry seasoning
p1658
aVnutmeg
p1659
aVsalt
p1660
aVworcestershire sauce
p1661
aVtabasco sauce
p1662
atp1663
sV82877e
p1664
(VChili Rubbed Pork Loin with Apple Salsa (Gluten Free)
p1665
Vhttp://static.food2fork.com/205xNxchilirubbedporkloinwithapplesandcranberries62af.jpg.pagespeed.ic.qRvYFk1R7j.jpg
p1666
Vhttp://www.healthy-delicious.com/2014/10/chili-rubbed-pork-loin-apple-salsa-gluten-free/
p1667
(lp1668
Vmccormick gluten-free chili seasoning mix
p1669
ag9
ag204
ag15
aVcranberry
p1670
aVhoney
p1671
aVlime
p1672
aVcilantro
p1673
ag110
aVoil
p1674
atp1675
sV9122
p1676
(VCoconut Curry Tofu
p1677
Vhttp://static.food2fork.com/4639243f0.jpg
p1678
Vhttp://allrecipes.com/Recipe/Coconut-Curry-Tofu/Detail.aspx
p1679
(lp1680
g15
ag284
aVsoy sauce
p1681
ag9
aVcurry powder
p1682
aVginger
p1683
aVchile paste
p1684
aVfirm tofu
p1685
ag201
aVyellow bell pepper
p1686
ag153
aVbasil
p1687
aVbok choy
p1688
aVsalt
p1689
atp1690
sV2c7dc5
p1691
(Vscallion meatballs with soy-ginger glaze
p1692
Vhttp://static.food2fork.com/6602480103_b8a97818191b09.jpg
p1693
Vhttp://smittenkitchen.com/blog/2011/12/scallion-meatballs-with-soy-ginger-glaze/
p1694
(lp1695
g9
aNaVsoy sauce
p1696
aVmirin
p1697
aVpeeled
p1698
aVcoriander
p1699
aVblack peppercorn
p1700
aS'turkey'
p1701
aVscallion
p1702
aVbunch cilantro
p1703
ag47
aVsesame oil
p1704
aVblack pepper
p1705
aVvegetable oil
p1706
atp1707
sV62df8e
p1708
(VSlow Cooker Chicken Adobo Recipe
p1709
Vhttp://static.food2fork.com/30473_RecipeImage_620x413_slow_cooker_chicken_adoboa7ea.jpg
p1710
Vhttp://www.chow.com/recipes/30473-slow-cooker-chicken-adobo
p1711
(lp1712
g15
aVgarlic
p1713
aV-inch piece ginger
p1714
aVbay leaf
p1715
aVbone-in
p1716
aVsoy sauce
p1717
ag60
ag9
aVblack pepper
p1718
atp1719
sV1068df
p1720
(VTricolor Thai Salad Recipe with Zucchini & Yellow Squash
p1721
Vhttp://static.food2fork.com/ThaiZucchiniSalad5082.jpg
p1722
Vhttp://www.cookincanuck.com/2013/07/tricolor-thai-salad-zucchini-squash/
p1723
(lp1724
Vzucchini
p1725
aVyellow squash
p1726
aVred bell pepper
p1727
aVcilantro
p1728
aVmint leaf
p1729
aVlime juice
p1730
aVsoy sauce
p1731
aVfish sauce
p1732
ag60
aVagave nectar honey
p1733
aVchili garlic paste
p1734
aVinstructionsthe salad medium-sized bowl
p1735
atp1736
sV37871
p1737
(VGlazed Salmon With Broccoli Rice
p1738
Vhttp://static.food2fork.com/salmonbrocollirice_300e31c16aa.jpg
p1739
Vhttp://www.realsimple.com/food-recipes/browse-all-recipes/gkazed-salmon-broccoli-rice-00000000012566/index.html
p1740
(lp1741
g9
aVlow-sodium soy sauce
p1742
ag60
ag63
aVpiece salmon fillet
p1743
ag15
aVolive oil
p1744
atp1745
sV54552
p1746
(VSlow Cooker Pulled Pork Sandwiches
p1747
Vhttp://static.food2fork.com/slowcookerpulledpork586a.jpg
p1748
Vhttp://www.twopeasandtheirpod.com/slow-cooker-pulled-pork-sandwiches/
p1749
(lp1750
g15
aVketchup
p1751
ag204
ag9
ag201
aVpaprika
p1752
aVcayenne pepper
p1753
aVworcestershire sauce
p1754
aVsalt
p1755
aVblack pepper
p1756
ag110
ag163
atp1757
sV18607
p1758
(VOven Roasted Teriyaki Chicken
p1759
Vhttp://static.food2fork.com/824418f30d.jpg
p1760
Vhttp://allrecipes.com/Recipe/Oven-Roasted-Teriyaki-Chicken/Detail.aspx
p1761
(lp1762
Vcornstarch
p1763
aNaVsplenda calorie sweetener
p1764
aVsoy sauce
p1765
aVcider vinegar
p1766
aVgarlic
p1767
aVginger
p1768
aVblack pepper
p1769
ag74
atp1770
sV3757
p1771
(VBest Steak Marinade in Existence
p1772
Vhttp://static.food2fork.com/225844ae6e.jpg
p1773
Vhttp://allrecipes.com/Recipe/Best-Steak-Marinade-In-Existence/Detail.aspx
p1774
(lp1775
Vsoy sauce
p1776
aVolive oil
p1777
ag230
aVworcestershire sauce
p1778
aVgarlic powder
p1779
aVbasil
p1780
aVparsley flake
p1781
aVwhite pepper
p1782
aVpepper sauce
p1783
aVgarlic
p1784
atp1785
sV13877
p1786
(VFried Rice Restaurant Style
p1787
Vhttp://static.food2fork.com/1923784ae3.jpg
p1788
Vhttp://allrecipes.com/Recipe/Fried-Rice-Restaurant-Style/Detail.aspx
p1789
(lp1790
g60
aNag64
ag158
aVvegetable oil
p1791
ag47
aVsoy sauce
p1792
aVsesame oil
p1793
atp1794
sV46869
p1795
(VThai Chicken Wraps
p1796
Vhttp://static.food2fork.com/wraps46e9.jpg
p1797
Vhttp://thepioneerwoman.com/cooking/2013/02/thai-chicken-wraps/
p1798
(lp1799
NaVoption marinade sauce
p1800
ag60
aVsoy sauce
p1801
aVpure sesame oil
p1802
aVchili oil
p1803
aVjuice lime
p1804
aVginger
p1805
ag9
aVcornstarch
p1806
aVhoney
p1807
ag253
aVred pepper
p1808
aVwrap
p1809
aVwhole-wheat tortilla
p1810
ag685
ag64
ag87
aVcilantro leaf
p1811
ag579
aValfalfa sprout
p1812
aVspinach leaf
p1813
ag15
aVblanched asparagus
p1814
aVsalt
p1815
aVpepper
p1816
aVsriracha
p1817
atp1818
sV49308
p1819
(VSpicy Chicken Thighs with Rhubarb-Cucumber Salsa
p1820
Vhttp://static.food2fork.com/spicychickenthighswithruhbardcucumbersalsa6463a62.jpg
p1821
Vhttp://www.bonappetit.com/recipes/quick-recipes/2012/04/spicy-chicken-thighs-with-rhubarb-cucumber-salsa
p1822
(lp1823
Vhabanero
p1824
aVgarlic
p1825
aVscallion
p1826
aVsoy sauce
p1827
aVolive oil
p1828
aVskin-on
p1829
aVkosher salt
p1830
aV-inch cube rhubarb
p1831
ag87
aVcoarsely cilantro
p1832
aVhoney
p1833
aVvegetable oil
p1834
aVlime juice
p1835
aVblack pepper
p1836
atp1837
sVcac2ca
p1838
(VChickpea Curry
p1839
Vhttp://static.food2fork.com/DSC_04911866a.jpg
p1840
Vhttp://thepioneerwoman.com/cooking/2015/08/chickpea-curry/
p1841
(lp1842
g60
aVvegetable oil
p1843
ag15
aVsalt
p1844
aVpepper
p1845
aVcurry powder
p1846
aVgarlic
p1847
aVvegetable stock
p1848
aVchickpea
p1849
ag284
aVhoney
p1850
aVsriracha sauce
p1851
aVlime wedge
p1852
aVcilantro leaf
p1853
atp1854
sV8a32f4
p1855
(VJapchae (Korean Stir-Fried Sweet Potato Noodles) Recipe
p1856
Vhttp://static.food2fork.com/30269_RecipeImage_620x413_japchaebe59.jpg
p1857
Vhttp://www.chow.com/recipes/30269-japchae-korean-stir-fried-sweet-potato-noodles
p1858
(lp1859
g43
aVtoasted sesame oil
p1860
aVsoy sauce
p1861
ag9
aVvegetable oil
p1862
ag64
ag15
aVkosher salt
p1863
aVblack pepper
p1864
ag153
aVgarlic
p1865
aVspinach
p1866
aVscallion
p1867
aVtoasted sesame seed
p1868
atp1869
sV47000
p1870
(VOne Basic Pizza Crust
p1871
Vhttp://static.food2fork.com/steakhousepizza0b87.jpg
p1872
Vhttp://thepioneerwoman.com/cooking/2011/09/steakhouse-pizza/
p1873
(lp1874
Vactive dry yeast
p1875
aNag48
aVkosher salt
p1876
aVolive oil
p1877
aVrecipe pizza crust
p1878
ag6
aVsalt
p1879
aVpepper
p1880
ag15
ag294
aVbalsamic vinegar
p1881
aVworcestershire sauce
p1882
aVmarinara sauce
p1883
aVshaved parmesan cheese
p1884
atp1885
sV48017
p1886
(VJamaican Veggie Patties
p1887
Vhttp://static.food2fork.com/jamaican_veggie_patties5d2b.jpg
p1888
Vhttp://www.101cookbooks.com/archives/jamaican-veggie-patties-recipe.html
p1889
(lp1890
Vcoconut oil
p1891
ag15
aVcinnamon
p1892
aVallspice
p1893
aVcumin
p1894
aVred pepper flake
p1895
aVcayenne
p1896
aVcoarse sea salt
p1897
aVgarlic
p1898
ag284
ag64
ag43
ag158
ag811
ag26
aVthyme
p1899
ag230
aVwhite pepper
p1900
aNag48
aVturmeric
p1901
aVsea salt
p1902
aVchilled coconut oil
p1903
ag204
ag60
atp1904
sV3fae51
p1905
(VPluot Summer Salad
p1906
Vhttp://static.food2fork.com/pluot_summer_salad_recipef6ef.jpg
p1907
Vhttp://www.101cookbooks.com/archives/pluot-summer-salad-recipe.html
p1908
(lp1909
g294
aVshallot
p1910
aVgarlic
p1911
aV-inch chunk ginger
p1912
aVlime juice
p1913
aVsoy sauce shoyu
p1914
aVrunny honey
p1915
aVpluots
p1916
aVcherry
p1917
aVfig
p1918
ag253
ag158
atp1919
sV3c9b09
p1920
(Vcold rice noodles with peanut-lime chicken
p1921
Vhttp://static.food2fork.com/7403723994_a94a921dd6ef3f.jpg
p1922
Vhttp://smittenkitchen.com/blog/2012/06/cold-rice-noodles-with-peanut-lime-chicken/
p1923
(lp1924
Vasian fish sauce
p1925
ag9
aVlime juice
p1926
aVgarlic
p1927
aVthai serrano chile
p1928
ag60
aVsoy sauce
p1929
aVone-and-a-half inch chunk ginger
p1930
ag253
aVtoasted sesame oil
p1931
aVcayenne
p1932
ag74
ag87
ag64
aVadditional vegetable
p1933
aVbasil mint cilantro sprig
p1934
aVmore scallion
p1935
aVlime wedge
p1936
atp1937
sV686088
p1938
(VThe Marlboro Man Sandwich
p1939
Vhttp://static.food2fork.com/445199228_8f4145eedc671d.jpg
p1940
Vhttp://thepioneerwoman.com/cooking/2007/06/marlboro_mans_f/
p1941
(lp1942
g15
ag294
ag6
aVlawry seasoned salt
p1943
aVworcestershire sauce
p1944
aVtabasco sauce
p1945
ag163
atp1946
sV48364
p1947
(VVietnamese Pho: Beef Noodle Soup Recipe
p1948
Vhttp://static.food2fork.com/vietnamesephorecipe2200x150b8fd.jpg
p1949
Vhttp://www.steamykitchen.com/271-vietnamese-beef-noodle-soup-pho.html
p1950
(lp1951
g78
ag15
aVnub ginger
p1952
ag80
aVquart
p1953
aVpho spice cinnamon stick
p1954
aVkosher salt
p1955
aVfish sauce
p1956
ag9
ag60
aVflank
p1957
ag158
aVlime
p1958
aVchili pepper
p1959
ag579
aVhoisin sauce
p1960
aVsriracha sauce
p1961
atp1962
sV292405
p1963
(VEmpire roast chicken
p1964
Vhttp://static.food2fork.com/192_1_1349713459_lrg492f.jpg
p1965
Vhttp://www.jamieoliver.com/recipes/chicken-recipes/empire-roast-chicken
p1966
(lp1967
g74
aVheaped garlic
p1968
aVheaped ginger
p1969
aVheaped red chilli
p1970
ag201
aVheaped coriander
p1971
aVheaped turmeric
p1972
aVheaped garam masala
p1973
aVheaped cumin
p1974
aVheaped natural yoghurt
p1975
aVzest
p1976
aVjuice of lemon
p1977
aVlevel sea salt
p1978
ag15
aVstick cinnamon
p1979
aNag172
aVworcestershire sauce
p1980
ag48
aVfat-free natural yoghurt
p1981
ag43
aVsea salt
p1982
aVpepper
p1983
ag230
aVolive oil
p1984
aVheaped black mustard seed
p1985
aVheaped cumin seed
p1986
aVbulb garlic
p1987
aVred chilli
p1988
aVbunch coriander
p1989
atp1990
sVf9acb6
p1991
(VAll Recipes
p1992
Vhttp://static.food2fork.com/spinachartichokeenchiladasrecipe270x3729203.jpg
p1993
Vhttp://cookieandkate.com/2015/spinach-artichoke-enchiladas/
p1994
(lp1995
Volive oil
p1996
ag48
aVchili powder
p1997
aVcumin
p1998
aVgarlic powder
p1999
aVoregano
p2000
aVsalt
p2001
aVcinnamon
p2002
ag201
aVvegetable broth
p2003
ag204
aVblack pepper
p2004
ag15
aVgarlic
p2005
aVheaping drained artichoke
p2006
aV-ounce green chili
p2007
aVspinach
p2008
ag579
aVsour cream
p2009
aV-inch wheat tortilla
p2010
aVhomemade red sauce
p2011
aVmonterey jack cheese
p2012
aVcilantro
p2013
atp2014
sV36928
p2015
(VShrimp Fried Rice
p2016
Vhttp://static.food2fork.com/jadenshrimpfriedrice300x200f9ec6736.jpg
p2017
Vhttp://www.simplyrecipes.com/recipes/shrimp_fried_rice/
p2018
(lp2019
g476
aVkosher salt
p2020
aVblack pepper
p2021
aVcornstarch
p2022
aVcooking oil
p2023
ag47
ag15
ag60
ag158
aVsoy sauce use gluten-free soy sauce you are making gluten-free version
p2024
aVsesame oil
p2025
atp2026
sV6d6f11
p2027
(VEasy Grilled Salmon Recipe in Foil with Ginger & Soy Sauce
p2028
Vhttp://static.food2fork.com/FoilSalmonSoy7898.jpg
p2029
Vhttp://www.cookincanuck.com/2013/08/easy-grilled-salmon-recipe-foil-ginger-soy-sauce/
p2030
(lp2031
Vsalmon
p2032
aVsoy sauce
p2033
ag60
aVcanola oil
p2034
aV-inch piece ginger
p2035
aVgarlic
p2036
ag15
atp2037
sV29159
p2038
(VSlow Cooker Chicken Tortilla Soup
p2039
Vhttp://static.food2fork.com/19321150c4.jpg
p2040
Vhttp://allrecipes.com/Recipe/Slow-Cooker-Chicken-Tortilla-Soup/Detail.aspx
p2041
(lp2042
Nag201
aVenchilada sauce
p2043
ag15
aVgreen chile pepper
p2044
aVgarlic
p2045
ag74
aVcumin
p2046
aVchili powder
p2047
aVsalt
p2048
aVblack pepper
p2049
aVbay leaf
p2050
ag811
aVcilantro
p2051
aVvegetable oil
p2052
atp2053
sV35474
p2054
(VPineapple and Shrimp Fried Quinoa
p2055
Vhttp://static.food2fork.com/Pineapple2Band2BShrimp2BFried2BQuinoa2B5002B41842465b4b66.jpg
p2056
Vhttp://www.closetcooking.com/2012/07/pineapple-and-shrimp-fried-quinoa.html
p2057
(lp2058
Vquinoa
p2059
ag284
aVvegetable broth
p2060
aVoil
p2061
aVshrimp
p2062
aVshallot
p2063
aVgarlic
p2064
aVginger
p2065
aVbird eye chilies
p2066
aVred pepper
p2067
aVpineapple
p2068
ag47
ag158
aVraisin
p2069
ag253
aVcurry powder
p2070
aVfish sauce
p2071
aVlime
p2072
ag15
aVcilantro
p2073
atp2074
sV47982
p2075
(VSunchoke and Cashew Stir-fry
p2076
Vhttp://static.food2fork.com/sunchoke_cashew_stirfry_recipe9ba2.jpg
p2077
Vhttp://www.101cookbooks.com/archives/sunchoke-and-cashew-stirfry-recipe.html
p2078
(lp2079
g253
ag47
aVginger
p2080
aVgarlic
p2081
aVshallot
p2082
aVserrano chile pepper
p2083
aVvery thinly sliced sunchoke
p2084
ag145
aVday-old
p2085
aVsoy sauce
p2086
aVtoasted almond
p2087
aVtoasted cashew
p2088
aVsea salt pepper
p2089
aVplenty basil
p2090
atp2091
sV70981b
p2092
(VOven Roasted BBQ Chicken Thighs
p2093
Vhttp://static.food2fork.com/bbqchicken8114.jpg
p2094
Vhttp://thepioneerwoman.com/cooking/2014/06/oven-bbq-chicken/
p2095
(lp2096
Vyour favorite bbq sauce
p2097
ag158
aVgarlic
p2098
aVsauce
p2099
ag74
aVolive oil brushing
p2100
atp2101
sV388153
p2102
(VChicken chow mein
p2103
Vhttp://static.food2fork.com/126_1_1350895875_lrgb37f.jpg
p2104
Vhttp://www.jamieoliver.com/recipes/chicken-recipes/chicken-chow-mein
p2105
(lp2106
Vthumb-sized piece root ginger
p2107
aVgarlic
p2108
aVred chilli
p2109
ag74
aVsea salt
p2110
aVblack pepper
p2111
ag15
aVbunch coriander
p2112
aVbok choi
p2113
ag153
ag47
aVgroundnut oil
p2114
aVheaped cornflour
p2115
aVtinned chestnut
p2116
aVlow-salt soy sauce
p2117
aVlime
p2118
atp2119
sV16100
p2120
(VHawaiian Chicken Kabobs
p2121
Vhttp://static.food2fork.com/393772cf31.jpg
p2122
Vhttp://allrecipes.com/Recipe/Hawaiian-Chicken-Kabobs/Detail.aspx
p2123
(lp2124
Vsoy sauce
p2125
ag9
aVsherry
p2126
aVsesame oil
p2127
aVginger
p2128
aVgarlic powder
p2129
aNaVpineapple chunk
p2130
aVskewer
p2131
atp2132
sV3760f7
p2133
(VMichelada Recipe
p2134
Vhttp://static.food2fork.com/10662_RecipeImage_620x413_michelada0349.jpg
p2135
Vhttp://www.chow.com/recipes/10662-michelada
p2136
(lp2137
Vsalt
p2138
aVsqueezed lime juice
p2139
ag60
aVlight mexican beer
p2140
aVworcestershire sauce
p2141
aVsauce
p2142
aVmaggi soy sauce
p2143
aVblack pepper
p2144
atp2145
sV17759
p2146
(VJapanese Chicken Wings
p2147
Vhttp://static.food2fork.com/395383ebe.jpg
p2148
Vhttp://allrecipes.com/Recipe/Japanese-Chicken-Wings/Detail.aspx
p2149
(lp2150
g74
ag47
ag48
ag294
aVsauce
p2151
aVsoy sauce
p2152
aNag9
aVwhite vinegar
p2153
aVgarlic powder
p2154
aVsalt
p2155
atp2156
sV17c529
p2157
(VApple Cider Sufganiyot (Hanukkah Donuts) with Salted Caramel Recipe
p2158
Vhttp://static.food2fork.com/sufganiyot_applesaltcaramel_6206097.jpg
p2159
Vhttp://www.chow.com/recipes/30224-apple-cider-sufganiyot-hanukkah-doughnuts-with-salted-caramel
p2160
(lp2161
g48
aVcinnamon
p2162
aVsalt
p2163
aVnutmeg
p2164
aVvegetable oil
p2165
aV-ounce packet active dry yeast
p2166
ag9
ag204
ag47
aVvanilla extract
p2167
ag294
aNaVplus salt
p2168
aVheavy cream
p2169
aVquart vegetable oil
p2170
atp2171
sV25384
p2172
(VPretty Chicken Marinade
p2173
Vhttp://static.food2fork.com/84407817e1.jpg
p2174
Vhttp://allrecipes.com/Recipe/Pretty-Chicken-Marinade/Detail.aspx
p2175
(lp2176
Volive oil
p2177
aVreduced-sodium soy sauce
p2178
ag230
aVliquid smoke flavoring
p2179
aVspicy brown mustard
p2180
aVblack pepper
p2181
aVgarlic powder
p2182
aNatp2183
sV46974
p2184
(VLeftover Turkey Spring Rolls
p2185
Vhttp://static.food2fork.com/springrollsaef1.jpg
p2186
Vhttp://thepioneerwoman.com/cooking/2011/11/leftover-turkey-spring-rolls/
p2187
(lp2188
Nag60
ag1701
aVsoy sauce
p2189
aVsesame oil
p2190
aVcilantro
p2191
ag64
ag87
ag685
ag579
aVcellophane noodle
p2192
atp2193
sV75a1b2
p2194
(VAll Recipes
p2195
Vhttp://static.food2fork.com/asianbrusselssproutslawrecipe270x37206af.jpg
p2196
Vhttp://cookieandkate.com/2014/asian-brussels-sprout-slaw-with-carrots-and-almonds/
p2197
(lp2198
Vbrussels sprout
p2199
ag64
ag15
aVlightly packed cilantro leaf
p2200
aVslivered almond
p2201
aVsesame seed
p2202
aVolive oil
p2203
ag204
aVhoney
p2204
aVreduced-sodium tamari soy sauce*
p2205
aVsea salt
p2206
atp2207
sV0d632c
p2208
(VBrussels Sprouts and Steak Stir-Fry
p2209
Vhttp://static.food2fork.com/511486202d12.jpg
p2210
Vhttp://www.epicurious.com/recipes/food/views/Brussels-Sprouts-and-Steak-Stir-Fry-51148620
p2211
(lp2212
Voyster sauce
p2213
aVreduced-sodium soy sauce
p2214
ag60
aVvegetable oil
p2215
aVbrussels sprout
p2216
ag6
aVkosher salt
p2217
aVscallion
p2218
aVgarlic
p2219
aVpeeled ginger
p2220
ag64
aVfresno chile jalapeo
p2221
atp2222
sVee6fc1
p2223
(VSuperhealthy salmon burgers
p2224
Vhttp://static.food2fork.com/7712_MEDIUM6ec0.jpg
p2225
Vhttp://www.bbcgoodfood.com/recipes/7712/superhealthy-salmon-burgers
p2226
(lp2227
NaVthai red curry paste
p2228
aVthumb-size piece root ginger
p2229
aVsoy sauce
p2230
aVbunch coriander
p2231
aVvegetable oil
p2232
ag230
ag64
ag87
ag172
ag9
atp2233
sV12170e
p2234
(VChickpea, tomato &amp; spinach curry
p2235
Vhttp://static.food2fork.com/1260646_MEDIUM36dc.jpg
p2236
Vhttp://www.bbcgoodfood.com/recipes/1260646/chickpea-tomato-and-spinach-curry
p2237
(lp2238
g15
aVgarlic
p2239
aVpiece ginger
p2240
ag201
aVoil
p2241
aVcumin
p2242
aVcoriander
p2243
aVturmeric
p2244
aVchilli flake
p2245
aVyeast extract
p2246
aVred lentil
p2247
aVcoconut cream
p2248
ag63
aVchickpea
p2249
ag26
ag230
aVtoasted sesame seed mixed with cashew
p2250
atp2251
sV18326
p2252
(VKey West Chicken
p2253
Vhttp://static.food2fork.com/694150c3a5.jpg
p2254
Vhttp://allrecipes.com/Recipe/Key-West-Chicken/Detail.aspx
p2255
(lp2256
Vsoy sauce
p2257
aVhoney
p2258
aVvegetable oil
p2259
aVlime juice
p2260
aVgarlic
p2261
aNatp2262
sVebffe8
p2263
(VA Good Shredded Salad
p2264
Vhttp://static.food2fork.com/a_good_shredded_saladd2e9.jpg
p2265
Vhttp://www.101cookbooks.com/archives/a-good-shredded-salad-recipe.html
p2266
(lp2267
Vsunflower oil
p2268
aVtoasted sesame oil
p2269
aVplus runny honey
p2270
aVsea salt
p2271
aVone bunch cilantro
p2272
ag253
aVbunch scallion
p2273
ag26
ag579
ag63
ag326
aVshoyu soy sauce
p2274
ag60
aVtoasted sesame seed
p2275
atp2276
sVe808cf
p2277
(VAll Recipes
p2278
Vhttp://static.food2fork.com/peanutsesameslawwithsobanoodles84c8.jpg
p2279
Vhttp://cookieandkate.com/2014/peanut-sesame-slaw-with-soba-noodles/
p2280
(lp2281
Vsoba noodle
p2282
ag26
aVbrussels sprout
p2283
ag64
ag15
ag253
ag172
aVtoasted sesame oil
p2284
aVreduced-sodium tamari soy sauce
p2285
aVhoney agave nectar
p2286
aVfinely ginger
p2287
aVgarlic
p2288
aVcilantro
p2289
aVlime
p2290
atp2291
sV50724
p2292
(VThe Best Bloody Mary
p2293
Vhttp://static.food2fork.com/mare_the_best_bloody_mary_recipe_hd48c.jpg
p2294
Vhttp://www.bonappetit.com/recipes/2009/09/the_best_bloody_mary
p2295
(lp2296
g201
ag64
aVgolden beet
p2297
aVfennel bulb
p2298
aVgarlic
p2299
aVbay leaf
p2300
aVplus coarse kosher salt
p2301
ag230
ag326
aVworcestershire sauce
p2302
aVpepper sauce
p2303
aVpeeled horseradish
p2304
aVcoarsely black peppercorn
p2305
aVchili sauce
p2306
aVguinness
p2307
aS'vodka'
p2308
ag60
aVlime wedge
p2309
aVpickled vegetable such okra
p2310
aVnbsp
p2311
ag78
atp2312
sVdd55b3
p2313
(VCold Sesame Noodles with Summer Vegetables
p2314
Vhttp://static.food2fork.com/511044102e9b.jpg
p2315
Vhttp://www.epicurious.com/recipes/food/views/Cold-Sesame-Noodles-with-Summer-Vegetables-51104410
p2316
(lp2317
g60
aVvegetable oil
p2318
aVsriracha
p2319
aVtoasted sesame oil
p2320
ag64
aVkosher salt
p2321
aVbuckwheat soba japanese-style noodle vermicelli noodle
p2322
aVcilantro leaf with tender stem
p2323
aVscallion
p2324
aVblack white sesame seed
p2325
atp2326
sVc79dfb
p2327
(VThai prawn, ginger &amp; spring onion stir-fry
p2328
Vhttp://static.food2fork.com/468653_MEDIUMe0ac.jpg
p2329
Vhttp://www.bbcgoodfood.com/recipes/468653/thai-prawn-ginger-and-spring-onion-stirfry
p2330
(lp2331
g476
aVgreen thai chilli
p2332
aVgarlic
p2333
aVbunch coriander
p2334
ag9
aVjuice lime
p2335
aVfish sauce
p2336
aVgroundnut oil
p2337
aVpiece ginger
p2338
ag15
aVred pepper
p2339
aVchestnut
p2340
aVbeansprouts
p2341
aVsoy sauce
p2342
ag47
aVlime wedge
p2343
atp2344
sV37016
p2345
(VStir Fry Ginger Beef
p2346
Vhttp://static.food2fork.com/gingerbeef300x20098eb8ba9.jpg
p2347
Vhttp://www.simplyrecipes.com/recipes/stir_fry_ginger_beef/
p2348
(lp2349
g60
aVsoy sauce
p2350
aVhoney
p2351
aVpeeled
p2352
aVchile pepper flake
p2353
aVcumin
p2354
ag177
ag811
aVvegetable oil
p2355
aVsesame oil
p2356
ag15
aVgarlic
p2357
aVchile
p2358
aV-inch nob ginger
p2359
aVloosely packed
p2360
atp2361
sV14546
p2362
(VGinger Veggie Stir-Fry
p2363
Vhttp://static.food2fork.com/462654406.jpg
p2364
Vhttp://allrecipes.com/Recipe/Ginger-Veggie-Stir-Fry/Detail.aspx
p2365
(lp2366
Vcornstarch
p2367
aVgarlic
p2368
aVginger root
p2369
aVvegetable oil
p2370
ag63
ag158
ag64
ag579
aVsoy sauce
p2371
aNag15
aVsalt
p2372
atp2373
sV59297b
p2374
(VAll Recipes
p2375
Vhttp://static.food2fork.com/mangosaladwraps270x3725c21.jpg
p2376
Vhttp://cookieandkate.com/2014/thai-mango-cabbage-wraps/
p2377
(lp2378
Vblock organic extra-firm tofu
p2379
aVolive oil
p2380
aVreduced-sodium tamari soy sauce
p2381
aVarrowroot starch cornstarch
p2382
ag253
ag172
aVhoney agave nectar maple syrup
p2383
aVtoasted sesame oil
p2384
aVlime
p2385
aVgarlic
p2386
aVmango
p2387
aVred bell pepper
p2388
ag15
aVpacked cilantro leaf
p2389
aVjalapeo
p2390
aVsalt
p2391
ag26
aNatp2392
sV4f0f47
p2393
(VBasic Bloody Mary Mix Recipe
p2394
Vhttp://static.food2fork.com/30287_RecipeImage_620x413_bloody_maryb6c7.jpg
p2395
Vhttp://www.chow.com/recipes/30287-basic-bloody-mary-mix
p2396
(lp2397
g201
ag230
aVsqueezed lime juice
p2398
aVworcestershire sauce
p2399
aVpeeled finely horseradish
p2400
aVkosher salt
p2401
aVsauce
p2402
ag326
aVblack pepper
p2403
ag60
ag2308
atp2404
sV35581
p2405
(VSlow Cooker Bacon Wrapped Apple BBQ Chicken
p2406
Vhttp://static.food2fork.com/Slow2BCooker2BBacon2BWrapped2BApple2BBBQ2BChicken2B5002B4688989e0a75.jpg
p2407
Vhttp://www.closetcooking.com/2012/10/slow-cooker-bacon-wrapped-apple-bbq.html
p2408
(lp2409
g74
ag488
aVbbq sauce
p2410
ag204
ag230
atp2411
sVa54058
p2412
(VThai fried rice with prawns &amp; peas
p2413
Vhttp://static.food2fork.com/2865686_MEDIUM76a4.jpg
p2414
Vhttp://www.bbcgoodfood.com/recipes/2865686/thai-fried-rice-with-prawns-and-peas
p2415
(lp2416
Vvegetable oil
p2417
ag15
aVgarlic
p2418
aVred chilli
p2419
ag476
ag80
ag158
aVdark soy sauce
p2420
aVfish sauce
p2421
aVbunch coriander
p2422
ag47
aVchilli sauce
p2423
atp2424
sV1744
p2425
(VAsian Chicken Salad
p2426
Vhttp://static.food2fork.com/10649612e7.jpg
p2427
Vhttp://allrecipes.com/Recipe/Asian-Chicken-Salad/Detail.aspx
p2428
(lp2429
g9
aVsoy sauce
p2430
aVsesame oil
p2431
aVvegetable oil
p2432
ag60
ag685
ag74
ag15
aVsesame seed
p2433
atp2434
sV49146
p2435
(VLemongrass and Coconut Curry with Summer Vegetables
p2436
Vhttp://static.food2fork.com/lemongrasscocnnutcurrysummervegetables6468a0a.jpg
p2437
Vhttp://www.bonappetit.com/recipes/2012/07/lemongrass-and-coconut-curry-with-summer-vegetables
p2438
(lp2439
Vvegetable oil
p2440
aVthai curry paste
p2441
aVscallion
p2442
aVgarlic
p2443
aV-inch piece peeled ginger
p2444
aVmixed -inch-thick sliced vegetable such japanese eggplant
p2445
aVlemongrass stalk
p2446
ag74
ag284
aNaVsprig basil plus leaf garnish
p2447
aVfish sauce such nam pla nuoc nam optional
p2448
aVkosher salt
p2449
ag60
aVlime wedge
p2450
atp2451
sV57f0aa
p2452
(VChinese Noodles with Chicken, Bok Choy & Hoisin Sauce
p2453
Vhttp://static.food2fork.com/IMG_98732284.jpg
p2454
Vhttp://www.cookincanuck.com/2013/07/chinese-noodle-recipe-with-chicken-bok-choy-hoisin-sauce/
p2455
(lp2456
Vhoisin sauce
p2457
aVsoy sauce
p2458
ag60
aVsesame oil
p2459
aVchili garlic sauce
p2460
aVchinese noodle
p2461
aVcanola oil
p2462
aVginger
p2463
aVgarlic
p2464
aNaVbok choy
p2465
ag811
atp2466
sV808bcb
p2467
(VChicken &amp; cashew curry with coconut lime noodles
p2468
Vhttp://static.food2fork.com/2176636_MEDIUM6aa0.jpg
p2469
Vhttp://www.bbcgoodfood.com/recipes/2176636/chicken-and-cashew-curry-with-coconut-lime-noodles
p2470
(lp2471
g74
aVsunflower oil
p2472
ag15
aVchunk ginger
p2473
aVgarlic
p2474
aVgaram masala
p2475
aVcashew
p2476
ag284
ag60
aVfish sauce
p2477
ag9
aVlime
p2478
atp2479
sV36935
p2480
(VSichuan Eggplant
p2481
Vhttp://static.food2fork.com/sichuaneggplanta300x200832fd856.jpg
p2482
Vhttp://www.simplyrecipes.com/recipes/sichuan_eggplant/
p2483
(lp2484
Vasian eggplant
p2485
ag253
ag74
ag9
aVsoy sauce
p2486
ag579
aVsichuan peppercorns** optional
p2487
aVginger
p2488
aVgarlic
p2489
ag811
ag204
aVscallion
p2490
aVcilantro garnish
p2491
atp2492
sV37881
p2493
(VSlow Cooker Sweet and Spicy Asian Pork Shoulder
p2494
Vhttp://static.food2fork.com/dinnerasianpork_300c5614119.jpg
p2495
Vhttp://www.realsimple.com/food-recipes/browse-all-recipes/sweet-spicy-asian-pork-shoulder-00000000028082/index.html
p2496
(lp2497
Vlow-sodium soy sauce
p2498
ag9
aVchili-garlic sauce
p2499
aVginger
p2500
aVchinese five-spice powder
p2501
aVkosher salt black pepper
p2502
ag110
ag60
aVbok choy
p2503
atp2504
sVbbbd59
p2505
(VThai pumpkin soup
p2506
Vhttp://static.food2fork.com/775669_MEDIUMe68c.jpg
p2507
Vhttp://www.bbcgoodfood.com/recipes/775669/thai-pumpkin-soup
p2508
(lp2509
Vpumpkin squash
p2510
aVsunflower oil
p2511
ag15
aVginger
p2512
aVlemongrass
p2513
aVthai red curry paste
p2514
ag284
aVvegetable stock
p2515
ag9
aVred chilli
p2516
atp2517
sV12981
p2518
(VFajita Marinade I
p2519
Vhttp://static.food2fork.com/687200e2de.jpg
p2520
Vhttp://allrecipes.com/Recipe/Fajita-Marinade-I/Detail.aspx
p2521
(lp2522
Vlime juice
p2523
aNaVolive oil
p2524
aVgarlic
p2525
aVsoy sauce
p2526
aVsalt
p2527
aVliquid smoke flavoring
p2528
aVcayenne pepper
p2529
aVblack pepper
p2530
atp2531
sVf32084
p2532
(VEasy Teriyaki Chicken  Recipe
p2533
Vhttp://static.food2fork.com/30551_RecipeImage_620x413_easy_teriyaki_chicken4157.jpg
p2534
Vhttp://www.chow.com/recipes/30551-easy-teriyaki-chicken
p2535
(lp2536
Vlow-sodium soy sauce
p2537
aVhoney
p2538
aVpeeled
p2539
aNaVblack pepper
p2540
aVvegetable oil
p2541
aVscallion
p2542
atp2543
sV2636
p2544
(VBaked Teriyaki Chicken
p2545
Vhttp://static.food2fork.com/4357793810.jpg
p2546
Vhttp://allrecipes.com/Recipe/Baked-Teriyaki-Chicken/Detail.aspx
p2547
(lp2548
Vcornstarch
p2549
aNag9
aVsoy sauce
p2550
aVcider vinegar
p2551
aVgarlic
p2552
aVginger
p2553
aVblack pepper
p2554
ag74
atp2555
sVa1ef43
p2556
(VBeef &amp; vegetable stir-fry
p2557
Vhttp://static.food2fork.com/73_1_1350385276_lrge754.jpg
p2558
Vhttp://www.jamieoliver.com/recipes/beef-recipes/beef-and-vegetable-stir-fry
p2559
(lp2560
g47
aVvegetable oil
p2561
ag6
aVgarlic
p2562
aVthumb-sized piece ginger
p2563
aVred chilli
p2564
ag253
aVsoy sauce
p2565
aVsesame oil
p2566
aVjuice lime
p2567
aVred pepper
p2568
ag158
ag811
ag15
aVbunch coriander
p2569
ag685
atp2570
sV8a4862
p2571
(VCream Cheese Wontons
p2572
Vhttp://static.food2fork.com/DSC_669045dc.jpg
p2573
Vhttp://thepioneerwoman.com/cooking/2014/02/cream-cheese-wontons/
p2574
(lp2575
Nag15
aVsriracha sauce
p2576
ag47
aVwonton wrapper
p2577
aVvegetable oil
p2578
aVlow sodium soy sauce
p2579
aVhoney
p2580
ag60
aVsesame oil
p2581
aVsriracha
p2582
atp2583
sV4651bb
p2584
(VThai salmon with cucumber &amp; dipping sauce
p2585
Vhttp://static.food2fork.com/4390_MEDIUM69d0.jpg
p2586
Vhttp://www.bbcgoodfood.com/recipes/4390/thai-salmon-with-cucumber-and-dipping-sauce
p2587
(lp2588
Vsalmon fillet
p2589
aVthumb sized red chilli
p2590
aVgarlic
p2591
aVfish sauce
p2592
aVsesame oil
p2593
aVhoney
p2594
ag87
ag15
aVsweet chilli sauce
p2595
aVcoriander
p2596
atp2597
sV35640
p2598
(VThai Lemon Shrimp
p2599
Vhttp://static.food2fork.com/GoongMaaNow(ThaiLemonShrimp)5000a958220.jpg
p2600
Vhttp://www.closetcooking.com/2008/06/thai-lemon-shrimp.html
p2601
(lp2602
Vshrimp
p2603
aVsweet chili sauce
p2604
ag230
aVkaffir lime leaf
p2605
aVchili sauce
p2606
aVfish sauce
p2607
aVgarlic
p2608
ag9
ag284
aVcilantro
p2609
atp2610
sV21700
p2611
(VMarinated Flank Steak
p2612
Vhttp://static.food2fork.com/870716f5.jpg
p2613
Vhttp://allrecipes.com/Recipe/Marinated-Flank-Steak/Detail.aspx
p2614
(lp2615
Vvegetable oil
p2616
aVsoy sauce
p2617
ag172
ag230
aVworcestershire sauce
p2618
aVdijon mustard
p2619
aVgarlic
p2620
aVblack pepper
p2621
ag6
atp2622
sV15661
p2623
(VGrilled Salmon I
p2624
Vhttp://static.food2fork.com/8008393830.jpg
p2625
Vhttp://allrecipes.com/Recipe/Grilled-Salmon-I/Detail.aspx
p2626
(lp2627
Vsalmon fillet
p2628
ag230
aVgarlic powder
p2629
aVsalt
p2630
aVsoy sauce
p2631
ag9
aNaVvegetable oil
p2632
atp2633
sV46960
p2634
(VTurkey Bagel Burgers
p2635
Vhttp://static.food2fork.com/turkeybagelburgerb634.jpg
p2636
Vhttp://thepioneerwoman.com/cooking/2012/01/turkey-bagel-burger/
p2637
(lp2638
Veverything bagel
p2639
ag294
aNag201
ag1701
aVkosher salt
p2640
aVplenty black pepper
p2641
aVworcestershire sauce
p2642
aVsauce
p2643
ag47
aVcanola oil
p2644
aVavocado
p2645
aVbasil leaf
p2646
atp2647
sV7349db
p2648
(VSingapore noodles
p2649
Vhttp://static.food2fork.com/3753_MEDIUM9de0.jpg
p2650
Vhttp://www.bbcgoodfood.com/recipes/3753/singapore-noodles
p2651
(lp2652
g60
aVvegetable oil
p2653
ag110
ag476
aVgarlic
p2654
aVpiece ginger
p2655
ag15
aVred pepper
p2656
aVcurry powder
p2657
aVturmeric
p2658
aVbeansprouts
p2659
aVsoy sauce
p2660
aVbunch chive
p2661
ag47
aVred chilli
p2662
aVlime
p2663
atp2664
sV47867
p2665
(VGinger Soba Noodles
p2666
Vhttp://static.food2fork.com/ginger_soba_noodles2f47.jpg
p2667
Vhttp://www.101cookbooks.com/archives/ginger-soba-noodles-recipe.html
p2668
(lp2669
Vsoba noodle
p2670
aNaVginger
p2671
aVtoasted sesame oil
p2672
aVzest
p2673
aVjuice of a lemon
p2674
ag15
aVmirin
p2675
ag9
aVsalt
p2676
ag60
ag326
aVsunflower oil untoasted sesame oil
p2677
aVtarragon
p2678
aVfew big cubed tofu
p2679
aVtoasted squash seed
p2680
atp2681
sV40cfd7
p2682
(VTomato &amp; thyme cod
p2683
Vhttp://static.food2fork.com/5939_MEDIUM1ce8.jpg
p2684
Vhttp://www.bbcgoodfood.com/recipes/5939/tomato-and-thyme-cod
p2685
(lp2686
Volive oil
p2687
ag15
ag201
aVheaped light
p2688
aVfew sprig thyme
p2689
aVsoy sauce
p2690
aVcod
p2691
atp2692
sV36559
p2693
(VMango Chicken Curry
p2694
Vhttp://static.food2fork.com/mangochickencurry520a300x20005b28403.jpg
p2695
Vhttp://www.simplyrecipes.com/recipes/mango_chicken_curry/
p2696
(lp2697
Vvegetable oil
p2698
ag15
aVred bell pepper
p2699
aVgarlic
p2700
aVginger
p2701
aVyellow curry powder
p2702
aVcumin
p2703
aVmango
p2704
aVcider vinegar white vinegar
p2705
ag284
ag74
aVgolden raisin
p2706
aVsalt
p2707
aVpepper
p2708
aVcilantro garnish
p2709
atp2710
sV723506
p2711
(VMiso Soup with Napa Cabbage and Udon Recipe
p2712
Vhttp://static.food2fork.com/30561_RecipeImage_620x413_napa_cabbage_udon_miso_soupdb0a.jpg
p2713
Vhttp://www.chow.com/recipes/30561-napa-cabbage-and-udon-miso-soup
p2714
(lp2715
g153
aVboiling
p2716
aVkosher salt
p2717
aVvegetable oil
p2718
ag15
aVpeeled finely ginger from about -inch piece
p2719
aVgarlic
p2720
ag74
aVsoy sauce
p2721
aV-ounce udon noodle
p2722
ag26
aVwhite miso
p2723
ag47
atp2724
sV41451
p2725
(VBang Bang Chicken
p2726
Vhttp://static.food2fork.com/Bang2BBang2BChicken2B5002B31159f8cf843.jpg
p2727
Vhttp://www.closetcooking.com/2013/02/bang-bang-chicken.html
p2728
(lp2729
g74
aVsesame paste
p2730
aVsoy sauce
p2731
ag60
aVsesame oil
p2732
ag9
aVchili oil chili sauce
p2733
aVsichuan peppercorn
p2734
ag685
ag87
ag64
ag15
atp2735
sV41450
p2736
(VShrimp Etouffee
p2737
Vhttp://static.food2fork.com/Shrimp2BEtouffee2B5002B346618a78209.jpg
p2738
Vhttp://www.closetcooking.com/2013/02/shrimp-etouffee.html
p2739
(lp2740
g294
ag48
ag15
ag326
aVbell pepper
p2741
aVgarlic
p2742
aVthyme
p2743
aVshrimp stock
p2744
ag201
aVcreole seasoning
p2745
aVworcestershire sauce
p2746
aVshrimp shelled deviened
p2747
aVsauce
p2748
aVsalt
p2749
aVpepper
p2750
ag230
aVparsley
p2751
atp2752
sV48306
p2753
(VMother's Famous Chinese Egg Rolls Recipe
p2754
Vhttp://static.food2fork.com/mothersfamouschineseeggrollsrecipesmall200x15088c5.jpg
p2755
Vhttp://www.steamykitchen.com/13029-my-mothers-famous-chinese-egg-rolls-2.html
p2756
(lp2757
g47
aVoil
p2758
ag78
ag110
aVsoy sauce
p2759
aVcornstarch
p2760
ag9
aVblack pepper
p2761
aVgarlic
p2762
ag26
ag64
aVginger
p2763
ag153
aVcooking oil canola
p2764
ag60
aVsalt
p2765
aVsesame oil
p2766
atp2767
sVe370f7
p2768
(VJuicy Lucy Burger (a.k.a. Jucy Lucy) Recipe
p2769
Vhttp://static.food2fork.com/29721_RecipeImage_620x413_juicy_lucy_burger380a3.jpg
p2770
Vhttp://www.chow.com/recipes/29721-juicy-lucy-burger-aka-jucy-lucy
p2771
(lp2772
S'american processed cheese'
p2773
ag462
aVkosher salt
p2774
aVgarlic powder
p2775
aVworcestershire sauce
p2776
aVblack pepper
p2777
aVvegetable oil
p2778
aV-inch hamburger bun
p2779
aVsliced pickle
p2780
atp2781
sV4a5490
p2782
(VSpring Vegetable Stir Fry with Lemon Ginger Sauce
p2783
Vhttp://static.food2fork.com/SpringVegetableStirFry703ad.jpg
p2784
Vhttp://www.twopeasandtheirpod.com/spring-vegetable-stir-fry-with-lemon-ginger-sauce/
p2785
(lp2786
NaVlow sodium vegetable broth
p2787
aVtamari sauce
p2788
aVsesame oil
p2789
ag230
aVginger
p2790
aVgarlic
p2791
aVcornstarch
p2792
aVolive oil
p2793
aVbunch asparagus
p2794
ag9
ag15
aVchestnut
p2795
aVsalt
p2796
aVblack pepper
p2797
ag60
atp2798
sVb651c5
p2799
(VCrispy chilli beef
p2800
Vhttp://static.food2fork.com/2852672_MEDIUM569e.jpg
p2801
Vhttp://www.bbcgoodfood.com/recipes/2852672/crispy-chilli-beef
p2802
(lp2803
g6
aVcornflour
p2804
aVchinese five-spice powder
p2805
aVvegetable oil
p2806
aVred pepper
p2807
aVred chilli
p2808
ag15
aVgarlic
p2809
aVthumb-sized piece ginger
p2810
ag60
aVsoy sauce
p2811
aVsweet chilli sauce
p2812
ag201
ag80
aS'crackers'
p2813
atp2814
sV483a51
p2815
(VAll Recipes
p2816
Vhttp://static.food2fork.com/veggiebreakfasttacos1bc94.jpg
p2817
Vhttp://cookieandkate.com/2014/veggie-breakfast-tacos/
p2818
(lp2819
Volive oil
p2820
ag15
aVgarlic
p2821
aVzucchini
p2822
aVyellow squash
p2823
aVred pepper
p2824
aVlime
p2825
aVsalt
p2826
aVred pepper flake
p2827
ag47
aVsauce
p2828
aVfreshly ground black pepper
p2829
ag201
aVtortilla
p2830
aVjalapeo
p2831
aVfeta
p2832
aVcilantro
p2833
aVsauce salsa
p2834
atp2835
sV135f8d
p2836
(VAll Recipes
p2837
Vhttp://static.food2fork.com/sesamegingercucumbersobanoodlesrecipe1d8c.jpg
p2838
Vhttp://cookieandkate.com/2013/sesame-ginger-and-cucumber-soba-noodles/
p2839
(lp2840
Vsoba noodle
p2841
ag87
aVbunch scallion
p2842
aVtahini
p2843
ag60
aVfinely ginger
p2844
aVwhite miso
p2845
aVreduced sodium tamari soy sauce
p2846
aVtoasted sesame oil
p2847
aVcilantro
p2848
aVred pepper flake
p2849
aNaVsesame seed
p2850
aVsea salt
p2851
atp2852
sVd44af0
p2853
(VSpicy Cauliflower Stir-Fry
p2854
Vhttp://static.food2fork.com/cauliflower9349.jpg
p2855
Vhttp://thepioneerwoman.com/cooking/2014/05/spicy-cauliflower-stir-fry/
p2856
(lp2857
Vcauliflower
p2858
aVvegetable oil
p2859
aVgarlic
p2860
aVsoy sauce
p2861
aVlime
p2862
ag15
aVsriracha
p2863
aVlime wedge serving
p2864
atp2865
sV18520
p2866
(VOven Baked Chicken Teriyaki
p2867
Vhttp://static.food2fork.com/8895517c46.jpg
p2868
Vhttp://allrecipes.com/Recipe/Oven-Baked-Chicken-Teriyaki/Detail.aspx
p2869
(lp2870
Vcornstarch
p2871
aNaVlow-sodium soy sauce
p2872
ag9
aVmirin
p2873
aVginger
p2874
aVgarlic
p2875
aVred pepper flake
p2876
atp2877
sV47057
p2878
(VRed Thai Duck Curry
p2879
Vhttp://static.food2fork.com/5399320435_139099bda0_o0815.jpg
p2880
Vhttp://thepioneerwoman.com/cooking/2011/01/red-thai-duck-curry/
p2881
(lp2882
S'chicken breast'
p2883
aVolive oil
p2884
aVgarlic
p2885
aVthai red curry paste
p2886
ag284
aNaVfish sauce
p2887
aVginger
p2888
ag15
aVgreen red bell pepper
p2889
ag988
aVpineapple
p2890
aVlot basil
p2891
ag60
atp2892
sV35222
p2893
(VChinese Hot and Sour Soup
p2894
Vhttp://static.food2fork.com/ChineseHotandSourSoup500d74a2483.jpg
p2895
Vhttp://www.closetcooking.com/2009/01/chinese-hot-and-sour-soup.html
p2896
(lp2897
g145
ag153
aVlily bud
p2898
aVbamboo shoot
p2899
ag60
aVchinese black vinegar
p2900
aVlight soy sauce
p2901
aVsalt
p2902
ag9
aVcornstarch
p2903
aNaVoil
p2904
ag110
ag74
aVtofu
p2905
ag47
aVblack pepper
p2906
aVwhite pepper
p2907
aVsesame oil
p2908
aVchili oil
p2909
aVchili sauce
p2910
ag15
atp2911
sV35303
p2912
(VFirecracker Shrimp with Sweet Chili Sauce
p2913
Vhttp://static.food2fork.com/Firecracker2BShrimp2B5002B377424dc0c72.jpg
p2914
Vhttp://www.closetcooking.com/2012/09/firecracker-shrimp.html
p2915
(lp2916
Vshrimp
p2917
aVsweet chili sauce
p2918
aVfish sauce
p2919
aVsesame oil
p2920
aVgarlic
p2921
aVginger
p2922
aVcornstarch
p2923
ag47
aNaVoil frying
p2924
aVsweet chili sauce dipping
p2925
atp2926
sV4c0d77
p2927
(VPenang Fried Rice Noodles
p2928
Vhttp://static.food2fork.com/368909ad68.jpg
p2929
Vhttp://www.epicurious.com/recipes/food/views/Penang-Fried-Rice-Noodles-368909
p2930
(lp2931
g60
aVsoy sauce
p2932
aNaVvegetable oil
p2933
ag47
aVpeeled deveined shrimp
p2934
aVchile paste chinese garlic chile paste
p2935
aVspanish chorizo
p2936
aVgarlic
p2937
aVjicama
p2938
aVbunch scallion
p2939
aVlime wedge serving
p2940
aV-inch wok
p2941
atp2942
sVc85d28
p2943
(VMassaman curry roast chicken
p2944
Vhttp://static.food2fork.com/10586_MEDIUM7b5e.jpg
p2945
Vhttp://www.bbcgoodfood.com/recipes/10586/massaman-curry-roast-chicken
p2946
(lp2947
g74
aVtwo thumb-size piece root ginger
p2948
aVstick lemongrass
p2949
aVlime
p2950
aVpack massaman curry paste
p2951
aVolive oil
p2952
ag43
ag284
ag9
ag579
aVfish sauce
p2953
ag253
ag60
atp2954
sV48045
p2955
(VOtsu
p2956
Vhttp://static.food2fork.com/otsu5758.jpg
p2957
Vhttp://www.101cookbooks.com/archives/000110.html
p2958
(lp2959
g230
aVginger
p2960
aVhoney
p2961
aVcayenne
p2962
aVfine-grain sea salt
p2963
aVunseasoned brown-rice vinegar
p2964
aVshoyu sauce wheat-free soy sauce
p2965
aVextra virgin olive oil
p2966
aVtoasted sesame oil
p2967
aVsoba noodle
p2968
aVextra-firm nigari tofu
p2969
aVcilantro
p2970
ag15
ag87
aVcilantro sprig
p2971
aVtoasted sesame seed
p2972
atp2973
sV34810
p2974
(VYummy Honey Chicken Kabobs
p2975
Vhttp://static.food2fork.com/1184378c8a.jpg
p2976
Vhttp://allrecipes.com/Recipe/Yummy-Honey-Chicken-Kabobs/Detail.aspx
p2977
(lp2978
Vvegetable oil
p2979
aVhoney
p2980
aVsoy sauce
p2981
aVblack pepper
p2982
aNaVgarlic
p2983
ag15
aVred bell pepper
p2984
aVskewer
p2985
atp2986
sV969f8a
p2987
(VChinese pork potsticker dumplings
p2988
Vhttp://static.food2fork.com/porkpotstickerdumpli_90878_16x9b780.jpg
p2989
Vhttp://www.bbc.co.uk/food/recipes/porkpotstickerdumpli_90878
p2990
(lp2991
g48
aVvery
p2992
ag110
aVchinese leaf spinach
p2993
aVfinely ginger
p2994
ag60
aVdark soy sauce
p2995
aVlight soy sauce
p2996
aVsalt
p2997
aVblack pepper
p2998
ag15
aVsesame oil
p2999
ag9
ag74
aVabout groundnut oil
p3000
aNaVsoy sauce
p3001
aVchilli oil
p3002
atp3003
sV48287
p3004
(VMiso Ramen Recipe
p3005
Vhttp://static.food2fork.com/misoramenrecipefeature20913200x1504d20.jpg
p3006
Vhttp://www.steamykitchen.com/15145-miso-ramen-recipe.html
p3007
(lp3008
g47
aVramen noodle
p3009
aVcanned bamboo shoot
p3010
ag811
aVdefrosted spinach
p3011
ag110
aVinstant dashi granule
p3012
aVsoy sauce
p3013
aVmiso paste
p3014
ag579
ag15
aVchili oil
p3015
atp3016
sV47111
p3017
(VSimple Sesame Noodles
p3018
Vhttp://static.food2fork.com/3949394720_c854047191_o1dfda.jpg
p3019
Vhttp://thepioneerwoman.com/cooking/2010/08/simple-sesame-noodles/
p3020
(lp3021
NaVsoy sauce
p3022
ag9
aVgarlic
p3023
ag60
aVpure sesame oil
p3024
aVchili oil
p3025
aVcanola oil
p3026
ag15
atp3027
sVdcc34c
p3028
(VUltimate toad in the hole
p3029
Vhttp://static.food2fork.com/1071_MEDIUMdd18.jpg
p3030
Vhttp://www.bbcgoodfood.com/recipes/1071/ultimate-toad-in-the-hole
p3031
(lp3032
g48
ag47
ag284
ag488
ag110
ag15
aVvegetable oil
p3033
aVready-made english mustard
p3034
aVworcestershire sauce soy sauce
p3035
ag74
atp3036
sVdc912b
p3037
(VCrunchy Salmon Salad with Sriracha Dressing
p3038
Vhttp://static.food2fork.com/crunchysalmonsalad59f4b.jpg
p3039
Vhttp://www.healthy-delicious.com/2013/04/crunchy-salmon-salad-with-sriracha-dressing/
p3040
(lp3041
Vlow sodium soy sauce
p3042
aVginger
p3043
aVsesame oil
p3044
aVsalmon filet
p3045
ag26
ag87
ag64
ag579
ag158
aVcashew
p3046
aVloosely packed cilantro
p3047
ag15
aS'yogurt'
p3048
aVsriracha
p3049
aVlime juice
p3050
aVolive oil
p3051
atp3052
sV97a4e7
p3053
(VAll Recipes
p3054
Vhttp://static.food2fork.com/roastedbrusselssproutsandcrispybakedtofuwithhoneysesameglaze270x3724a36.jpg
p3055
Vhttp://cookieandkate.com/2014/roasted-brussels-sprouts-and-crispy-baked-tofu-with-honey-sesame-glaze/
p3056
(lp3057
g60
aVbrussels sprout
p3058
aVolive oil
p3059
aVsea salt
p3060
aVblock organic extra-firm tofu
p3061
aVreduced-sodium tamari* soy sauce
p3062
aVarrowroot starch cornstarch
p3063
aVreduced-sodium tamari soy sauce
p3064
aVhoney
p3065
aVtoasted sesame oil
p3066
aVchili garlic sauce sriracha
p3067
aVsesame seed
p3068
aVbig cilantro leaf
p3069
atp3070
sV27945
p3071
(VScott Hibb's Amazing Whisky Grilled Baby Back Ribs
p3072
Vhttp://static.food2fork.com/4176096d11.jpg
p3073
Vhttp://allrecipes.com/Recipe/Scott-Hibbs-Amazing-Whisky-Grilled-Baby-Back-Ribs/Detail.aspx
p3074
(lp3075
g110
aVcoarsely black pepper
p3076
aVred chile pepper
p3077
aVvegetable oil
p3078
ag15
aNag201
aVwhite vinegar
p3079
ag9
aVhoney
p3080
aVworcestershire sauce
p3081
aVsalt
p3082
aVliquid smoke flavoring
p3083
aS'bourbon whiskey'
p3084
aVgarlic powder
p3085
aVpaprika
p3086
aVdark molasses
p3087
atp3088
sV21658
p3089
(VMarinated Baked Pork Chops
p3090
Vhttp://static.food2fork.com/3878936fda.jpg
p3091
Vhttp://allrecipes.com/Recipe/Marinated-Baked-Pork-Chops/Detail.aspx
p3092
(lp3093
Vsoy sauce
p3094
aVvegetable oil
p3095
aVworcestershire sauce
p3096
ag230
ag9
aVketchup
p3097
ag110
atp3098
sVaff402
p3099
(VAll Recipes
p3100
Vhttp://static.food2fork.com/spicythaipeanutsauceoverroastedsweetpotatoesandriceaec3.jpg
p3101
Vhttp://cookieandkate.com/2013/spicy-thai-peanut-sauce-over-roasted-sweet-potatoes-and-rice/
p3102
(lp3103
g253
aVreduced-sodium tamari soy sauce
p3104
ag204
aVhoney agave nectar
p3105
aVginger
p3106
aVgarlic
p3107
aVred pepper flake
p3108
aNag43
aVred bell pepper
p3109
aVabout coconut oil
p3110
aVcumin powder
p3111
aVsea salt
p3112
ag60
ag15
aVcilantro
p3113
ag78
atp3114
sV38748
p3115
(VAsian Steak Salad With Mango
p3116
Vhttp://static.food2fork.com/asiansteak_30094cc76e0.jpg
p3117
Vhttp://www.realsimple.com/food-recipes/browse-all-recipes/asian-steak-salad-with-mango-00000000050967/index.html
p3118
(lp3119
g177
aVkosher salt black pepper
p3120
aVlime zest
p3121
aVlime juice
p3122
aVhoney
p3123
aVpickled ginger
p3124
aVlow-sodium soy sauce
p3125
aVcanola oil
p3126
ag685
aVmango
p3127
aVred bell pepper
p3128
aVbasil leaf
p3129
aVscallion
p3130
atp3131
sV35396
p3132
(VKung Pao Chicken
p3133
Vhttp://static.food2fork.com/Kung2BPao2BChicken2B2528Gong2BBao2BChicken25292B5002B4430210b7472.jpg
p3134
Vhttp://www.closetcooking.com/2012/01/kung-pao-chicken.html
p3135
(lp3136
Vsoy sauce
p3137
aVshaoxing dry sherry
p3138
ag811
aVsesame oil
p3139
ag74
aVlight soy sauce
p3140
aVdark soy sauce
p3141
aVchinkiang balsamic vinegar
p3142
ag9
aVcornstarch
p3143
aVoil
p3144
aVred chilies
p3145
aVsichuan peppercorn
p3146
aVgarlic
p3147
aVginger
p3148
ag15
ag253
atp3149
sV7064
p3150
(VChicken Biryani
p3151
Vhttp://static.food2fork.com/2125dc09.jpg
p3152
Vhttp://allrecipes.com/Recipe/Chicken-Biryani/Detail.aspx
p3153
(lp3154
Vvegetable oil
p3155
ag43
ag15
aVgarlic
p3156
aVginger root
p3157
aVchili powder
p3158
aVblack pepper
p3159
aVturmeric
p3160
aVcumin
p3161
aVsalt
p3162
ag201
ag3048
aVmint leaf
p3163
aVcardamom
p3164
aVpiece cinnamon stick
p3165
aNaVnbsp
p3166
aVpowdered saffron
p3167
aVpod cardamom
p3168
aVginger
p3169
ag60
ag74
atp3170
sV64cb3f
p3171
(VAll Recipes
p3172
Vhttp://static.food2fork.com/thaistirfriedkalewithcoconutandrice280x20343e0.jpg
p3173
Vhttp://cookieandkate.com/2014/spicy-kale-and-coconut-stir-fry/
p3174
(lp3175
Vcoconut oil quality vegetable oil
p3176
ag47
aVbig garlic
p3177
ag15
aVoptional thinly sliced vegetable
p3178
ag253
aVsea salt
p3179
aVunsweetened coconut flakes*
p3180
ag80
aVreduced-sodium tamari soy sauce
p3181
aVchili garlic sauce sriracha
p3182
aVlime
p3183
aVcilantro
p3184
atp3185
sVece3af
p3186
(VGrilled Peppered Dry Spareribs
p3187
Vhttp://static.food2fork.com/395270ab1d.jpg
p3188
Vhttp://www.epicurious.com/recipes/food/views/Grilled-Peppered-Dry-Spareribs-395270
p3189
(lp3190
g9
ag230
ag15
ag326
aVseasoned salt
p3191
aVpaprika
p3192
aVcajun seasoning
p3193
aVblack pepper
p3194
aVcoriander
p3195
aVcitric acid
p3196
aVslab sparerib
p3197
ag204
aVbarbecue sauce
p3198
atp3199
sV6239
p3200
(VCedar Planked Salmon
p3201
Vhttp://static.food2fork.com/166572dccb.jpg
p3202
Vhttp://allrecipes.com/Recipe/Cedar-Planked-Salmon-2/Detail.aspx
p3203
(lp3204
Vuntreated cedar plank
p3205
aVvegetable oil
p3206
ag60
aVsesame oil
p3207
aVsoy sauce
p3208
ag15
aVginger root
p3209
aVgarlic
p3210
aVsalmon fillet
p3211
atp3212
sVcdec63
p3213
(VSweet potato &amp; lentil soup
p3214
Vhttp://static.food2fork.com/13416_MEDIUM6358.jpg
p3215
Vhttp://www.bbcgoodfood.com/recipes/13416/sweet-potato-and-lentil-soup
p3216
(lp3217
Vcurry powder
p3218
aVolive oil
p3219
ag15
ag204
aVgarlic
p3220
aVpack coriander
p3221
aVthumb-size piece root ginger
p3222
ag43
aVvegetable stock
p3223
aVred lentil
p3224
ag284
aVjuice lime
p3225
atp3226
sV2573c8
p3227
(VSeared soy tuna steaks with spring onions &amp; a ginger sweet potato mash
p3228
Vhttp://static.food2fork.com/1996663_MEDIUM4cd6.jpg
p3229
Vhttp://www.bbcgoodfood.com/recipes/1996663/seared-soy-tuna-steaks-with-spring-onions-and-a-gi
p3230
(lp3231
g43
ag294
aVthumb-sized piece ginger
p3232
aVvegetable oil
p3233
ag15
ag531
aVsoy sauce
p3234
atp3235
sV13271
p3236
(VFilipino Lumpia
p3237
Vhttp://static.food2fork.com/3977152f52.jpg
p3238
Vhttp://allrecipes.com/Recipe/Filipino-Lumpia-2/Detail.aspx
p3239
(lp3240
Vvegetable oil
p3241
ag110
aVgarlic
p3242
ag15
ag64
ag26
aVblack pepper
p3243
aVsalt
p3244
aVgarlic powder
p3245
aVsoy sauce
p3246
aVlumpia wrapper
p3247
aVvegetable oil frying
p3248
atp3249
sV9409de
p3250
(VAll Recipes
p3251
Vhttp://static.food2fork.com/kungpaobrusselssprouts1270x3726d1f.jpg
p3252
Vhttp://cookieandkate.com/2015/kung-pao-brussels-sprouts-recipe/
p3253
(lp3254
Vbrussels sprout
p3255
aVolive oil
p3256
aVreduced-sodium tamari* soy sauce
p3257
aVhoney maple syrup
p3258
ag60
aVtoasted sesame oil
p3259
aVsriracha
p3260
aVgarlic
p3261
ag253
ag15
aVcilantro leaf
p3262
aVred pepper flake
p3263
atp3264
sV1766
p3265
(VAsian Lettuce Wraps
p3266
Vhttp://static.food2fork.com/50722578b9.jpg
p3267
Vhttp://allrecipes.com/Recipe/Asian-Lettuce-Wraps-2/Detail.aspx
p3268
(lp3269
g294
ag80
aVcooking oil
p3270
ag15
aVgarlic
p3271
aVsoy sauce
p3272
aVhoisin sauce
p3273
aVpickled ginger
p3274
ag60
aVasian chile pepper sauce
p3275
aVchestnut
p3276
aVasian sesame oil
p3277
atp3278
sV29107
p3279
(VSlow Cooker Texas Pulled Pork
p3280
Vhttp://static.food2fork.com/584078d0d7.jpg
p3281
Vhttp://allrecipes.com/Recipe/Slow-Cooker-Texas-Pulled-Pork/Detail.aspx
p3282
(lp3283
Vvegetable oil
p3284
ag110
aVbarbeque sauce
p3285
ag204
ag74
ag9
aVprepared yellow mustard
p3286
aVworcestershire sauce
p3287
aVchili powder
p3288
ag15
aVgarlic
p3289
aVthyme
p3290
aVhamburger bun
p3291
ag294
atp3292
s.