(dp0
V35232
p1
(VChocolate and Maraschino Cherry Shortbread Cookies
p2
Vhttp://static.food2fork.com/White2BChocolate2BCherry2BShortbread2BCookies2B5002B96317e8e55f1.jpg
p3
Vhttp://www.closetcooking.com/2012/12/chocolate-and-maraschino-cherry.html
p4
(lp5
S'butter'
p6
aS'sugar'
p7
aS'flour'
p8
aVsalt
p9
aVmaraschino cherry
p10
aS'potato chips'
p11
aVvanilla extract
p12
aVwhite dark chocolate
p13
atp14
sV601e98
p15
(VTea and Honey Buttercream
p16
Vhttp://static.food2fork.com/oeatmealcookiewithteaandhoneybuttercream2b94d.jpg
p17
Vhttp://www.healthy-delicious.com/2013/08/tea-and-honey-buttercream-oatmeal-cookie-sandwiches/
p18
(lp19
S'eggs'
p20
aVhoney
p21
aVsalt
p22
ag6
aVvanilla extract
p23
aS'cabbage'
p24
atp25
sV15a463
p26
(VLemon Blueberry Pudding Cookies
p27
Vhttp://static.food2fork.com/LemonBlueberryPuddingCookies15b3e.jpg
p28
Vhttp://www.twopeasandtheirpod.com/lemon-blueberry-pudding-cookies/
p29
(lp30
g7
aS'lemons'
p31
ag6
ag20
aVvanilla extract
p32
ag8
aVbaking soda
p33
aVsalt
p34
aVblueberry
p35
ag11
atp36
sV54603
p37
(VPumpkin Nutella Bread
p38
Vhttp://static.food2fork.com/pumpkinnutellabreadf036.jpg
p39
Vhttp://www.twopeasandtheirpod.com/pumpkin-nutella-bread/
p40
(lp41
g8
aVbaking soda
p42
aVsalt
p43
aVcinnamon
p44
aVnutmeg
p45
ag7
aVcanola oil
p46
aNaVcanned pumpkin
p47
ag20
aVvanilla extract
p48
aVhazelnut extract
p49
aVnutella
p50
atp51
sVd6fb11
p52
(VPumpkin Bread
p53
Vhttp://static.food2fork.com/PumpkinBread9cc8.jpg
p54
Vhttp://www.mybakingaddiction.com/pumpkin-bread-recipe/
p55
(lp56
Vpumpkin puree
p57
ag20
aVvegetable oil
p58
aNaVpure vanilla extract
p59
ag7
ag8
aVbaking soda
p60
aVkosher salt
p61
atp62
sV54604
p63
(VChocolate Chip Zucchini Brownies
p64
Vhttp://static.food2fork.com/zucchinibrowniesc0ea.jpg
p65
Vhttp://www.twopeasandtheirpod.com/chocolate-chip-zucchini-brownies/
p66
(lp67
g7
aVcanola oil
p68
ag8
aVcocoa
p69
aVzucchini
p70
aVvanilla extract
p71
aVsalt
p72
aVbaking soda
p73
ag11
atp74
sVcccff6
p75
(VNo-Bake Peanut Butter Bars
p76
Vhttp://static.food2fork.com/DSC_0932b734.jpg
p77
Vhttp://thepioneerwoman.com/cooking/2015/08/no-bake-peanut-butter-bars/
p78
(lp79
g11
aS'peanut butter'
p80
ag6
ag7
aVbox -ounces vanilla wafer
p81
ag24
atp82
sV54599
p83
(VPumpkin Chocolate Chip Bread
p84
Vhttp://static.food2fork.com/pumpkinchocolatechipbreadrecipec885.jpg
p85
Vhttp://www.twopeasandtheirpod.com/pumpkin-chocolate-chip-bread/
p86
(lp87
g8
aVcinnamon
p88
aVnutmeg
p89
aVbaking soda
p90
aVsalt
p91
ag7
aVpure pumpkin
p92
aVcanola oil
p93
aNaVvanilla extract
p94
ag20
ag11
atp95
sV54591
p96
(VPumpkin Cinnamon Streusel Muffins
p97
Vhttp://static.food2fork.com/pumpkincinnamonstreuselmuffins2910.jpg
p98
Vhttp://www.twopeasandtheirpod.com/pumpkin-cinnamon-streusel-muffins/
p99
(lp100
g8
aVbaking soda
p101
aVsalt
p102
aVcinnamon
p103
aVnutmeg
p104
ag7
aVcanola oil
p105
aNaVcanned pumpkin
p106
ag20
aVvanilla extract
p107
aVoat
p108
ag6
atp109
sV54596
p110
(VPumpkin Granola
p111
Vhttp://static.food2fork.com/pumpkingranolab3ee.jpg
p112
Vhttp://www.twopeasandtheirpod.com/pumpkin-granola/
p113
(lp114
Vrolled oat
p115
aVpumpkin pie spice
p116
aVcinnamon
p117
aVnutmeg
p118
aVsalt
p119
ag7
aVpumpkin puree
p120
aVapplesauce
p121
aVmaple syrup
p122
aVvanilla extract
p123
aVcranberry
p124
aVpepitas
p125
atp126
sV10103
p127
(VCream Cheese Sugar Cookies
p128
Vhttp://static.food2fork.com/627776845d.jpg
p129
Vhttp://allrecipes.com/Recipe/Cream-Cheese-Sugar-Cookies/Detail.aspx
p130
(lp131
g7
ag6
aVcream cheese
p132
aVsalt
p133
aValmond extract
p134
aVvanilla extract
p135
ag20
ag8
atp136
sV10102
p137
(VCream Cheese Squares
p138
Vhttp://static.food2fork.com/30251d387.jpg
p139
Vhttp://allrecipes.com/Recipe/Cream-Cheese-Squares/Detail.aspx
p140
(lp141
S'rolls'
p142
aVcream cheese
p143
ag7
aVvanilla extract
p144
aS'margarine'
p145
aVcinnamon
p146
atp147
sV23690
p148
(VMy Amish Friend\u2019s Caramel Corn
p149
Vhttp://static.food2fork.com/833523944.jpg
p150
Vhttp://allrecipes.com/Recipe/My-Amish-Friends-Caramel-Corn/Detail.aspx
p151
(lp152
Vquart plain popped popcorn
p153
ag80
ag7
aS'corn'
p154
aVsalt
p155
ag145
aVbaking soda
p156
aVvanilla extract
p157
atp158
sVfc039d
p159
(VYeasted Belgian Waffles
p160
Vhttp://static.food2fork.com/YeastedBelgianWaffles34a5e.jpg
p161
Vhttp://www.twopeasandtheirpod.com/yeasted-belgian-waffles/
p162
(lp163
Nag6
aS'milk'
p164
aVvanilla extract
p165
ag20
ag8
ag7
aVkosher salt
p166
aVactive dry yeast
p167
aVstrawberry
p168
aVmaple syrup
p169
aVwhipped cream
p170
aS'rice'
p171
aVfudge
p172
atp173
sV14989
p174
(VGrandma's Egg Custard Pie
p175
Vhttp://static.food2fork.com/2576895bb.jpg
p176
Vhttp://allrecipes.com/Recipe/Grandmas-Egg-Custard-Pie/Detail.aspx
p177
(lp178
Vunbaked pie crust
p179
ag20
ag7
aVsalt
p180
aVvanilla extract
p181
ag164
aVnutmeg
p182
aVdrop yellow food coloring
p183
atp184
sV18423
p185
(VOriginal Nestle&#174; Toll House&#174; Chocolate Chip Cookies
p186
Vhttp://static.food2fork.com/9818936e26.jpg
p187
Vhttp://allrecipes.com/Recipe/Original-Nestle-Toll-House-Chocolate-Chip-Cookies/Detail.aspx
p188
(lp189
g8
aVbaking soda
p190
aVsalt
p191
ag6
ag7
aVvanilla extract
p192
ag20
aVnestle toll house semi-sweet chocolate morsel
p193
ag80
atp194
sV54502
p195
(VChocolate Chip Cookie Bars
p196
Vhttp://static.food2fork.com/chocolatechipcookiebars3be78.jpg
p197
Vhttp://www.twopeasandtheirpod.com/chocolate-chip-cookie-bars/
p198
(lp199
g8
aVsalt
p200
aVbaking soda
p201
ag6
ag7
ag20
aVvanilla extract
p202
ag11
aVsea salt
p203
atp204
sV54506
p205
(VTriple Chocolate Oreo Chunk Cookies
p206
Vhttp://static.food2fork.com/triplechocolateOreochunkcookies7c66f.jpg
p207
Vhttp://www.twopeasandtheirpod.com/triple-chocolate-oreo-chunk-cookies/
p208
(lp209
g8
aVbaking soda
p210
aVsalt
p211
aS'american processed cheese'
p212
ag6
ag7
ag20
aVvanilla extract
p213
aVwhite chocolate
p214
aVsemi-sweet chocolate
p215
aVoreo cooky
p216
atp217
sV54265
p218
(VCoconut Lemon Macaroon Nests
p219
Vhttp://static.food2fork.com/LemonMacaroonNests1ae2c.jpg
p220
Vhttp://www.twopeasandtheirpod.com/coconut-lemon-macaroon-nests/
p221
(lp222
g164
ag20
aVvanilla extract
p223
ag31
aVsalt
p224
aVsweetened coconut
p225
aS'jelly '
p226
atp227
sV1a344c
p228
(VInside-Out Apple Pie  la Mode
p229
Vhttp://static.food2fork.com/51120410ccf0.jpg
p230
Vhttp://www.epicurious.com/recipes/food/views/Inside-Out-Apple-Pie-a-la-Mode-51120410
p231
(lp232
Vold-fashioned rolled oat
p233
aS'strawberries'
p234
ag7
aVsea salt
p235
aVcinnamon
p236
ag6
aS'beans'
p237
aS'apple sauce'
p238
aVpure vanilla extract
p239
aVtoasted pecan granola
p240
atp241
sVad44c8
p242
(VVegan Raspberry Streusel Bars
p243
Vhttp://static.food2fork.com/rasberrystreusalbars5643179fa.jpg
p244
Vhttp://www.elanaspantry.com/vegan-raspberry-streusel-bars/
p245
(lp246
g8
aVceltic sea salt
p247
aVcoconut oil
p248
aVvanilla extract
p249
aNaVraspberry jam
p250
aVxylitol
p251
aVwalnut
p252
aVunsweetened coconut
p253
atp254
sVb9c2db
p255
(VPumpkin Baked Oatmeal
p256
Vhttp://static.food2fork.com/PumpkinBakedOatmeal46124.jpg
p257
Vhttp://www.twopeasandtheirpod.com/pumpkin-baked-oatmeal/
p258
(lp259
Vquaker old fashioned oat
p260
ag7
aVsalt
p261
aVbaking powder
p262
aVpumpkin pie spice
p263
ag164
aVpure pumpkin
p264
aVpure maple syrup
p265
ag20
ag6
aVvanilla extract
p266
aVcranberry
p267
atp268
sV54285
p269
(VSalted Caramel Chocolate Chip Cookies
p270
Vhttp://static.food2fork.com/SaltedCaramelChocolateChipCookies39b6a.jpg
p271
Vhttp://www.twopeasandtheirpod.com/salted-caramel-chocolate-chip-cookies/
p272
(lp273
g8
aVcornstarch
p274
aVbaking soda
p275
aVsea salt
p276
ag6
ag7
ag20
aVvanilla extract
p277
ag11
aVkraft caramel bit
p278
atp279
sV54321
p280
(VBaked Pumpkin French Toast
p281
Vhttp://static.food2fork.com/bakedpumpkinfrenchtoast3ea6e.jpg
p282
Vhttp://www.twopeasandtheirpod.com/baked-pumpkin-french-toast/
p283
(lp284
S'bread'
p285
ag20
ag164
aVpumpkin puree
p286
ag7
aVvanilla extract
p287
aVcinnamon
p288
aVnutmeg
p289
aNag8
aVsalt
p290
ag6
atp291
sV54d425
p292
(VHoney Whole Wheat Banana Bread
p293
Vhttp://static.food2fork.com/wholewheatbananabread3550x3688a15.jpg
p294
Vhttp://cookieandkate.com/2011/honey-whole-wheat-banana-bread/
p295
(lp296
Vmelted coconut oil extra virgin olive oil
p297
aVhoney
p298
ag20
aS'bananas'
p299
aVvanilla extract
p300
aVsalt
p301
aVcinnamon
p302
ag8
aVbaking soda*
p303
aVwater*
p304
atp305
sV13458
p306
(VFluffy French Toast
p307
Vhttp://static.food2fork.com/36068050a8.jpg
p308
Vhttp://allrecipes.com/Recipe/Fluffy-French-Toast/Detail.aspx
p309
(lp310
g8
ag164
aVsalt
p311
ag20
aVcinnamon
p312
aVvanilla extract
p313
ag7
ag285
atp314
sVef3708
p315
(VNo-Bake Sunflower Butter Granola Bars
p316
Vhttp://static.food2fork.com/SunflowerButterGranolaBars4ab57.jpg
p317
Vhttp://www.twopeasandtheirpod.com/no-bake-sunflower-butter-granola-bars/
p318
(lp319
Vquick oat use gluten-free oat
p320
ag171
aVsalt
p321
ag6
ag7
aVhoney
p322
aVvanilla extract
p323
aVchocolate covered sunflower seed
p324
ag11
atp325
sV0a40aa
p326
(VTwix Brownies
p327
Vhttp://static.food2fork.com/TwixBrownies23f74.jpg
p328
Vhttp://www.mybakingaddiction.com/twix-brownies/
p329
(lp330
Vunsweetened chocolate coarsely
p331
ag6
ag7
ag20
aVpure vanilla extract
p332
aVsalt
p333
ag8
atp334
sV0b05c7
p335
(VAll Recipes
p336
Vhttp://static.food2fork.com/honeyalmondgranola360f.jpg
p337
Vhttp://cookieandkate.com/2013/honey-almond-granola/
p338
(lp339
Vold-fashioned rolled oat use certified gluten-free oat gluten-free granola
p340
ag234
aVfine-grain sea salt you 're using standard table salt
p341
aVcinnamon
p342
aVginger
p343
aVmelted coconut oil
p344
aVhoney
p345
aVvanilla
p346
aVapricot
p347
aVcherry cranberry
p348
atp349
sV392bed
p350
(VBrown Butter Zucchini Coffee Cake
p351
Vhttp://static.food2fork.com/BrownButterZucchiniCoffeeCake1129c.jpg
p352
Vhttp://www.twopeasandtheirpod.com/brown-butter-zucchini-coffee-cake/
p353
(lp354
Nag6
ag8
ag7
aVbaking soda
p355
aVsalt
p356
aVcinnamon
p357
aVnutmeg
p358
aS'yogurt'
p359
ag20
aVvanilla extract
p360
aVzucchini
p361
ag164
atp362
sVfe49aa
p363
(VSalted Caramel Bars
p364
Vhttp://static.food2fork.com/SaltedCaramels4752.jpg
p365
Vhttp://whatsgabycooking.com/salted-caramel-bars/
p366
(lp367
g6
ag7
aVsalt
p368
ag20
ag8
ag154
aVsea salt
p369
aVheavy cream
p370
aVpure vanilla extract
p371
aVsea salt flake
p372
atp373
sV0430fe
p374
(VDark Chocolate Raspberry Cookies
p375
Vhttp://static.food2fork.com/DarkChocolateRaspberryCookies646ed.jpg
p376
Vhttp://www.twopeasandtheirpod.com/dark-chocolate-raspberry-cookies/
p377
(lp378
g8
aVbaking soda
p379
aVsea salt
p380
ag212
ag6
ag7
ag20
aVvanilla extract
p381
ag11
aVraspberry
p382
atp383
sV1d36a7
p384
(VPaleo Banana Bread
p385
Vhttp://static.food2fork.com/PaleoBananaBread409999a5.jpg
p386
Vhttp://www.elanaspantry.com/paleo-banana-bread/
p387
(lp388
g299
ag20
aVvanilla extract
p389
aVhoney
p390
aS'shortening'
p391
ag8
aVceltic sea salt
p392
aVbaking soda
p393
atp394
sV4631a9
p395
(VBrown Sugar Oatmeal Cookies
p396
Vhttp://static.food2fork.com/DSC_734343dd.jpg
p397
Vhttp://thepioneerwoman.com/cooking/2013/08/brown-sugar-oatmeal-cookies/
p398
(lp399
g6
ag7
aVvanilla extract
p400
ag20
ag8
aVsalt
p401
aVbaking soda
p402
aVold fashioned oat
p403
atp404
sV8d9f72
p405
(VSimple Pumpkin Cheesecake Trifles
p406
Vhttp://static.food2fork.com/PumpkinCheesecakeTriflesc85c.jpg
p407
Vhttp://www.mybakingaddiction.com/pumpkin-cheesecake-trifles/
p408
(lp409
Vbiscoff cooky
p410
ag6
aVcream cheese
p411
aVpure pumpkin puree
p412
aVpure vanilla extract
p413
ag7
aVpumpkin pie spice
p414
atp415
sV35996
p416
(VChocolate Guinness Cake
p417
Vhttp://static.food2fork.com/chocolateguinnesscakea300x200f423d701.jpg
p418
Vhttp://www.simplyrecipes.com/recipes/chocolate_guinness_cake/
p419
(lp420
Vstout porter beer
p421
ag6
aVunsweetened cocoa
p422
ag7
aVsour cream
p423
ag20
aVpure vanilla extract
p424
ag8
aVbaking soda
p425
aVsalt
p426
atp427
sV2b4c18
p428
(VAll Recipes
p429
Vhttp://static.food2fork.com/glutenfreepeachpancakes270x372bb08.jpg
p430
Vhttp://cookieandkate.com/2014/gluten-free-peach-pancakes/
p431
(lp432
g359
ag6
ag31
aVhoney maple syrup
p433
aVvanilla extract
p434
ag20
aVoat flour*
p435
aVbaking soda
p436
aVslightly heaping salt
p437
aVginger
p438
aVcinnamon
p439
aS'peaches'
p440
atp441
sV530d30
p442
(VDeep Dish Biscoff Oatmeal Toffee Cookies
p443
Vhttp://static.food2fork.com/DeepDishBiscoffOatmealToffeeCookies490ab.jpg
p444
Vhttp://www.twopeasandtheirpod.com/deep-dish-biscoff-oatmeal-toffee-cookies/
p445
(lp446
Vold fashioned oat
p447
ag8
aVbaking soda
p448
aVcinnamon
p449
aVsalt
p450
ag6
aNaVbiscoff spread
p451
ag7
ag20
aVvanilla extract
p452
aVtoffee bit
p453
ag171
atp454
sVdd4918
p455
(VHow to Make a Choco Taco
p456
Vhttp://static.food2fork.com/20090225chocotacothumbf665.jpg
p457
Vhttp://www.seriouseats.com/recipes/2009/02/how-to-make-a-choco-taco-from-scratch.html
p458
(lp459
g20
ag7
ag6
ag164
aVvanilla
p460
ag8
aVsalt
p461
aVcocoa powder
p462
aNag11
ag80
atp463
sV55fe34
p464
(VBrown Butter Pear Crisp
p465
Vhttp://static.food2fork.com/BrownButterPearCrisp983d5.jpg
p466
Vhttp://www.twopeasandtheirpod.com/brown-butter-pear-crisp/
p467
(lp468
NaS'pears'
p469
ag31
aVvanilla extract
p470
ag7
ag8
aVcornstarch
p471
aVcinnamon
p472
aVnutmeg
p473
ag6
aVold-fashioned oat
p474
aVsalt
p475
atp476
sV37f861
p477
(VCoconut Raspberry Bread
p478
Vhttp://static.food2fork.com/CoconutRaspberryBread271c7.jpg
p479
Vhttp://www.twopeasandtheirpod.com/coconut-raspberry-bread/
p480
(lp481
Nag8
aVsalt
p482
aVbaking powder
p483
ag7
aValmond breeze almondmilk coconutmilk original unsweetened
p484
aVmelted coconut oil
p485
ag20
aVvanilla extract
p486
aVcoconut extract
p487
aVsweetened flake coconut
p488
aVraspberry
p489
atp490
sV37130
p491
(VWalnut Snowball Cookies
p492
Vhttp://static.food2fork.com/walnutsnowballcookies300x2008acb6214.jpg
p493
Vhttp://www.simplyrecipes.com/recipes/walnut_snowball_cookies/
p494
(lp495
S'cupcakes'
p496
aVwalnut
p497
ag7
aVvanilla extract
p498
ag6
aVsalt
p499
atp500
sV47829
p501
(VA Frozen Yogurt Recipe to Rival Pinkberry
p502
Vhttp://static.food2fork.com/vanillafrozenyogurtrecipe5023.jpg
p503
Vhttp://www.101cookbooks.com/archives/a-frozen-yogurt-recipe-to-rival-pinkberrys-recipe.html
p504
(lp505
g359
ag7
aVvanilla extract
p506
atp507
sV1015
p508
(VAmazingly Good Eggnog
p509
Vhttp://static.food2fork.com/7586778a7e.jpg
p510
Vhttp://allrecipes.com/Recipe/Amazingly-Good-Eggnog/Detail.aspx
p511
(lp512
g164
aNaVvanilla extract
p513
aVcinnamon
p514
ag20
ag7
aVlight rum
p515
aVlight cream
p516
aVnutmeg
p517
atp518
sV29032
p519
(VSlow Cooker Oats
p520
Vhttp://static.food2fork.com/781391a9a2.jpg
p521
Vhttp://allrecipes.com/Recipe/Slow-Cooker-Oats/Detail.aspx
p522
(lp523
Vsteel cut oat
p524
aNag238
aVraisin
p525
ag6
aVcinnamon
p526
ag7
aVvanilla extract
p527
atp528
sV11764
p529
(VEasiest Peanut Butter Fudge
p530
Vhttp://static.food2fork.com/3054400ba6.jpg
p531
Vhttp://allrecipes.com/Recipe/Easiest-Peanut-Butter-Fudge/Detail.aspx
p532
(lp533
g6
ag7
ag164
ag80
aVvanilla extract
p534
atp535
sV7de723
p536
(VVegan Peanut Butter Cookies
p537
Vhttp://static.food2fork.com/peanutbuttercookiesveganglutenfreerecipeDSC_2788horizontal9e29.jpg
p538
Vhttp://www.elanaspantry.com/vegan-peanut-butter-cookies/
p539
(lp540
g8
aVceltic sea salt
p541
aVbaking soda
p542
ag80
aVagave nectar honey
p543
ag391
aVvanilla extract
p544
atp545
sV47641
p546
(VSaffron-Vanilla Snickerdoodles
p547
Vhttp://static.food2fork.com/saffron_vanilla_snickerdoodles_recipe2698.jpg
p548
Vhttp://www.101cookbooks.com/archives/saffronvanilla-snickerdoodles-recipe.html
p549
(lp550
Vabout thread saffron
p551
ag237
ag164
ag8
aVbaking soda
p552
ag6
ag7
aVkosher salt
p553
ag20
aVvanilla extract
p554
atp555
sV48921
p556
(VGreek Yogurt Cheesecake with Pomegranate Syrup
p557
Vhttp://static.food2fork.com/greekyogurtcheesecakewithpomegranatesyrup64613c8.jpg
p558
Vhttp://www.bonappetit.com/recipes/2012/11/greek-yogurt-cheesecake-with-pomegranate-syrup
p559
(lp560
Vnonstick vegetable oil spray
p561
aS'crackers'
p562
ag6
ag7
aVpowdered gelatin
p563
aVcream cheese
p564
ag359
ag31
aVvanilla extract
p565
aVkosher salt
p566
aVflash-pasteurized pomegranate juice
p567
ag154
aVpomegranate seed
p568
aV-inch-diameter springform pan
p569
atp570
sV8128
p571
(VChocolate Cornstarch Pudding
p572
Vhttp://static.food2fork.com/11380da4f.jpg
p573
Vhttp://allrecipes.com/Recipe/Chocolate-Cornstarch-Pudding/Detail.aspx
p574
(lp575
g7
aVunsweetened cocoa powder
p576
aVcornstarch
p577
aVsalt
p578
ag164
ag145
aVvanilla extract
p579
atp580
sV8bdb7f
p581
(VPumpkin Sheet Cake
p582
Vhttp://static.food2fork.com/DSC_83105553.jpg
p583
Vhttp://thepioneerwoman.com/cooking/2014/11/pumpkin-sheet-cake/
p584
(lp585
g6
aVpumpkin puree not pumpkin pie filling
p586
aVpumpkin pie spice
p587
aVboiling
p588
ag8
ag7
aVsalt
p589
aVbuttermilk
p590
ag20
aVbaking soda
p591
aVvanilla extract
p592
aVmaple extract
p593
aVfrosting
p594
aNag164
atp595
sVc79d26
p596
(VBanana Cream Pie Recipe
p597
Vhttp://static.food2fork.com/IMG_67561180x180c6a2.jpg
p598
Vhttp://www.aspicyperspective.com/2013/03/banana-cream-pie-recipe.html
p599
(lp600
S'corn on the cob'
p601
ag562
ag6
ag7
aVsalt
p602
aVcinnamon
p603
aNaVheavy cream
p604
aVvanilla extract
p605
aVbox instant vanilla pudding
p606
ag164
aVcalifornia cream cheese
p607
ag299
aVtoasted coconut
p608
atp609
sV3b5579
p610
(VVegan Coconut Raspberry Ice Cream
p611
Vhttp://static.food2fork.com/VeganCoconutRaspberryIceCreamRecipe1b3e8.jpg
p612
Vhttp://www.twopeasandtheirpod.com/vegan-coconut-raspberry-ice-cream/
p613
(lp614
g164
ag7
aVvanilla extract
p615
aVraspberry
p616
atp617
sV625107
p618
(VEasy Peach Butter
p619
Vhttp://static.food2fork.com/PeachButter13a74.jpg
p620
Vhttp://www.twopeasandtheirpod.com/easy-peach-butter/
p621
(lp622
g440
ag7
aVcinnamon
p623
ag31
aVvanilla extract
p624
atp625
sV35124
p626
(VBaklava French Toast
p627
Vhttp://static.food2fork.com/BaklavaFrenchToast5002946c225.jpg
p628
Vhttp://www.closetcooking.com/2008/06/baklava-french-toast.html
p629
(lp630
Vhoney
p631
aNag31
aS'oranges'
p632
aVcinnamon cinnamon stick
p633
ag80
aVcinnamon
p634
ag285
ag20
ag164
aVvanilla extract
p635
aVsalt
p636
atp637
sV1efa1d
p638
(VBakewell cheesecake
p639
Vhttp://static.food2fork.com/1853660_MEDIUMd604.jpg
p640
Vhttp://www.bbcgoodfood.com/recipes/1853660/bakewell-cheesecake
p641
(lp642
Valmond biscuit
p643
aVtoasted flaked almond
p644
aValmond extract
p645
ag6
aVpack full-fat soft cheese
p646
ag7
ag8
aVvanilla extract
p647
ag20
aVtub soured cream
p648
aVjust over cherry jam
p649
atp650
sVb07a4b
p651
(VNo Churn Salted Caramel Toffee Pretzel Ice Cream
p652
Vhttp://static.food2fork.com/NoChurnSaltedCaramelToffeePretzelIceCream42a9d.jpg
p653
Vhttp://www.twopeasandtheirpod.com/no-churn-salted-caramel-toffee-pretzel-ice-cream/
p654
(lp655
g164
aNaVsalted caramel sauce
p656
aVpure vanilla extract
p657
aVheavy cream
p658
aVpretzel
p659
aS'hard candy'
p660
aVadditional pretzel toffee
p661
atp662
sV23247
p663
(VMom's Chocolate Chip Cookies
p664
Vhttp://static.food2fork.com/116919cf48.jpg
p665
Vhttp://allrecipes.com/Recipe/Moms-Chocolate-Chip-Cookies/Detail.aspx
p666
(lp667
g6
ag7
aVinstant vanilla pudding mix
p668
ag20
aVvanilla extract
p669
ag8
aVbaking soda
p670
ag11
atp671
sV0c4852
p672
(VChocolate Nutella Fudge with Sea Salt Recipe
p673
Vhttp://static.food2fork.com/8182643830_2a5ca7b69f45f3.jpg
p674
Vhttp://www.cookincanuck.com/2010/12/chocolate-nutella-fudge-with-sea-salt/
p675
(lp676
g6
ag164
aVvanilla extract
p677
ag11
aVnutella
p678
aVsea salt
p679
atp680
sVd95337
p681
(VFlourless Chocolate Almond Cookies
p682
Vhttp://static.food2fork.com/FlourlessChocolateCookies5798b.jpg
p683
Vhttp://www.twopeasandtheirpod.com/flourless-chocolate-cookies/
p684
(lp685
Vdark cocoa almond
p686
ag7
ag212
aVsea salt
p687
ag11
ag20
aVvanilla extract
p688
atp689
sV48850
p690
(VCocoa Brownies
p691
Vhttp://static.food2fork.com/cocoabrownies646ec1e.jpg
p692
Vhttp://www.bonappetit.com/recipes/2012/12/cocoa-brownies
p693
(lp694
Vnonstick vegetable oil spray
p695
ag6
ag7
aVscharffen berger natural unsweetened cocoa powder
p696
aVkosher salt
p697
aVvanilla extract
p698
ag20
ag8
atp699
sV54423
p700
(VReese's Peanut Butter Cup Popcorn
p701
Vhttp://static.food2fork.com/Reesespeanutbutterpopcorn3234b4.jpg
p702
Vhttp://www.twopeasandtheirpod.com/reeses-peanut-butter-cup-popcorn/
p703
(lp704
Vplain popcorn use air-popped popcorn
p705
aVsalt
p706
aVhoney
p707
ag7
ag80
aVvanilla extract
p708
ag164
atp709
sV46896
p710
(VGranola Bars
p711
Vhttp://static.food2fork.com/granolabars6e7c.jpg
p712
Vhttp://thepioneerwoman.com/cooking/2012/09/granola-bars/
p713
(lp714
Vrolled oat
p715
ag6
aVvegetable canola oil
p716
aVsalt
p717
ag7
aVhoney
p718
ag238
aVmolasses
p719
aVvanilla extract
p720
ag171
aVwheat germ
p721
aVfinely pecan
p722
aVroughly almond
p723
aNatp724
sV54421
p725
(VChocolate Chip Salted Caramel Cookie Bars
p726
Vhttp://static.food2fork.com/chocolatechipsaltedcaramelcookiebars2b026.jpg
p727
Vhttp://www.twopeasandtheirpod.com/chocolate-chip-salted-caramel-cookie-bars/
p728
(lp729
g8
aVsalt
p730
aVbaking soda
p731
ag6
ag7
ag20
aVvanilla extract
p732
ag11
ag660
aVheavy cream
p733
aVsea salt
p734
atp735
sV236c39
p736
(VVegan Chocolate Almond Cookies
p737
Vhttp://static.food2fork.com/VeganChocolateAlmondCookies675ae.jpg
p738
Vhttp://www.twopeasandtheirpod.com/vegan-chocolate-almond-cookies/
p739
(lp740
g8
aVbaking powder
p741
aVsalt
p742
ag212
aVcoconut oil
p743
ag7
aVvanilla extract
p744
ag164
aValmond
p745
ag11
atp746
sVf82024
p747
(VPotato Chip Cookies
p748
Vhttp://static.food2fork.com/ChipCookies21of12edit7c43.jpg
p749
Vhttp://www.mybakingaddiction.com/potato-chip-cookies-recipe/
p750
(lp751
g6
ag7
aS'potatoes'
p752
aVpecan
p753
aVpure vanilla extract
p754
atp755
sV1c3619
p756
(VSpiced Pumpkin-Oatmeal Cookies Recipe
p757
Vhttp://static.food2fork.com/30456_RecipeImage_620x413_spiced_pumpkin_oatmeal_cookies6e40.jpg
p758
Vhttp://www.chow.com/recipes/30456-spiced-pumpkin-oatmeal-cookies
p759
(lp760
g8
aVrolled oat
p761
aVbaking powder
p762
aVcinnamon
p763
aVginger
p764
aVsalt
p765
aVnutmeg
p766
ag6
ag7
ag20
aVvanilla extract
p767
aV-ounce pumpkin pure not pie filling about
p768
ag164
aVmaple syrup
p769
atp770
sV2681
p771
(VBaklava
p772
Vhttp://static.food2fork.com/250824f3a6.jpg
p773
Vhttp://allrecipes.com/Recipe/Baklava/Detail.aspx
p774
(lp775
Vphyllo dough
p776
ag80
ag6
aVcinnamon
p777
aNag7
aVvanilla extract
p778
aVhoney
p779
atp780
sV907fe2
p781
(VVegan Chocolate Avocado Cookies
p782
Vhttp://static.food2fork.com/VeganChocolateAvocadoCookies58524.jpg
p783
Vhttp://www.twopeasandtheirpod.com/vegan-chocolate-avocado-cookies/
p784
(lp785
g8
aVbaking powder
p786
aVsea salt
p787
ag212
aVcoconut oil
p788
aVmashed avocado
p789
ag7
aVvanilla extract
p790
ag164
ag11
atp791
sVdf1c09
p792
(VChocolate &amp; raspberry zebra cake
p793
Vhttp://static.food2fork.com/2853661_MEDIUMc4dc.jpg
p794
Vhttp://www.bbcgoodfood.com/recipes/2853661/chocolate-and-raspberry-zebra-cake
p795
(lp796
Vvegetable oil
p797
ag752
aVraspberry
p798
ag8
ag7
ag20
aVartificial pink food colouring
p799
aVcocoa powder
p800
aVvanilla extract
p801
aVseedless raspberry jam
p802
aVbar dark chocolate
p803
atp804
sV13640
p805
(VFrench Toast I
p806
Vhttp://static.food2fork.com/2345627a42.jpg
p807
Vhttp://allrecipes.com/Recipe/French-Toast-I/Detail.aspx
p808
(lp809
g285
ag20
ag164
aVcinnamon
p810
aVnutmeg
p811
aVvanilla extract
p812
aVsalt
p813
atp814
sVe79959
p815
(VGiant S&#8217;mores Cookies
p816
Vhttp://static.food2fork.com/SmoresCookies1Ffcf2.jpg
p817
Vhttp://www.mybakingaddiction.com/giant-smores-cookies/
p818
(lp819
g6
ag496
ag20
aVpure vanilla
p820
aVkosher salt
p821
aVbaking soda
p822
aVregular size hershey chocolate bar
p823
ag562
atp824
sV9022
p825
(VClone of a Cinnabon
p826
Vhttp://static.food2fork.com/364490f7e.jpg
p827
Vhttp://allrecipes.com/Recipe/Clone-Of-A-Cinnabon/Detail.aspx
p828
(lp829
g164
ag20
ag145
ag285
aVsalt
p830
ag7
aVnbsp
p831
aVcinnamon
p832
ag6
aVcream cheese
p833
aVvanilla extract
p834
atp835
sV24154
p836
(VNutella &#8482; Cheesecake
p837
Vhttp://static.food2fork.com/767280d02e.jpg
p838
Vhttp://allrecipes.com/Recipe/Nutella--Cheesecake/Detail.aspx
p839
(lp840
Vcream cheese
p841
ag7
aVchocolate hazelnut spread
p842
aVvanilla extract
p843
ag562
atp844
sVf56bad
p845
(VMaple Scones
p846
Vhttp://static.food2fork.com/MapleScones911cb.jpg
p847
Vhttp://www.twopeasandtheirpod.com/maple-scones/
p848
(lp849
Nag8
aVbaking powder
p850
ag7
aVsalt
p851
aVheavy cream
p852
ag20
aVvanilla extract
p853
ag6
aVpure maple syrup
p854
aVmaple extract
p855
aVcandied pecan
p856
atp857
sV20a7c5
p858
(VAll Recipes
p859
Vhttp://static.food2fork.com/morninggloryoatmeal4599.jpg
p860
Vhttp://cookieandkate.com/2014/morning-glory-oatmeal/
p861
(lp862
Nag164
aVsteel-cut oat
p863
aS'carrots'
p864
aVseedless raisin
p865
aVcinnamon
p866
aVginger
p867
aVnutmeg
p868
aVkosher salt
p869
aVunsweetened coconut flake used mix unsweetened coconut flake since that what had
p870
ag632
aVvanilla extract
p871
aVmore maple syrup
p872
aVwalnut pecan
p873
atp874
sV30418
p875
(VSpooky Witches Fingers
p876
Vhttp://static.food2fork.com/501265ac19.jpg
p877
Vhttp://allrecipes.com/Recipe/Spooky-Witches-Fingers/Detail.aspx
p878
(lp879
g6
ag7
ag20
aValmond extract
p880
aVvanilla extract
p881
ag8
aVbaking powder
p882
aVsalt
p883
aValmond
p884
aVtube red decorating gel
p885
atp886
sV25628
p887
(VPumpkin Fudge
p888
Vhttp://static.food2fork.com/2771156b8a.jpg
p889
Vhttp://allrecipes.com/Recipe/Pumpkin-Fudge/Detail.aspx
p890
(lp891
g6
ag7
ag164
ag11
aVmarshmallow creme
p892
aVcanned pumpkin
p893
aVcinnamon
p894
aVvanilla extract
p895
atp896
sV22e67a
p897
(VPeanut Butter Apple Oatmeal Cookies
p898
Vhttp://static.food2fork.com/PeanutButterAppleOatmealCookies16f11.jpg
p899
Vhttp://www.twopeasandtheirpod.com/peanut-butter-apple-oatmeal-cookies/
p900
(lp901
g8
aVbaking soda
p902
aVcinnamon
p903
aVallspice
p904
aVsalt
p905
ag6
ag7
aNag80
ag20
aVvanilla extract
p906
aVold fashioned oat
p907
ag238
atp908
sV54391
p909
(VBiscoff Pretzel Bites with White Chocolate
p910
Vhttp://static.food2fork.com/Biscoffpretzelscopy90b7.jpg
p911
Vhttp://www.twopeasandtheirpod.com/biscoff-pretzel-bites-with-white-chocolate/
p912
(lp913
Vcreamy biscoff spread
p914
ag6
ag7
aVvanilla extract
p915
aVpretzel
p916
ag11
aVsprinkle
p917
atp918
sV54393
p919
(VMini S'mores Cookies
p920
Vhttp://static.food2fork.com/minismorescookiesf9ce.jpg
p921
Vhttp://www.twopeasandtheirpod.com/mini-smores-cookies/
p922
(lp923
g562
ag8
aVbaking soda
p924
aVsalt
p925
ag6
ag7
ag20
aVvanilla extract
p926
ag11
aVjet-puffed vanilla mallow bit
p927
ag164
atp928
sV54395
p929
(VCoconut Crusted French Toast
p930
Vhttp://static.food2fork.com/coconutcrustedfrenchtoast112f5.jpg
p931
Vhttp://www.twopeasandtheirpod.com/coconut-crusted-french-toast/
p932
(lp933
g20
ag164
aVcoconut extract
p934
aVvanilla extract
p935
aVsalt
p936
aVsweetened coconut
p937
ag285
ag6
atp938
sV54397
p939
(VSalted Caramel Easter Popcorn
p940
Vhttp://static.food2fork.com/SaltedCaramelEasterPopcorn097a.jpg
p941
Vhttp://www.twopeasandtheirpod.com/salted-caramel-easter-popcorn/
p942
(lp943
Vplain popped popcorn
p944
aVcoarsely salted pretzel
p945
ag7
aVsea salt
p946
aNaVheavy cream
p947
aVvanilla extract
p948
aVminiature marshmallow
p949
ag601
aVeaster pretzel
p950
atp951
sVe08f18
p952
(VNo-cook chocolate tart
p953
Vhttp://static.food2fork.com/4629_MEDIUM3b88.jpg
p954
Vhttp://www.bbcgoodfood.com/recipes/4629/nocook-chocolate-tart-
p955
(lp956
Vpack all-butter biscuit
p957
ag6
aVgolden syrup honey
p958
aVbar dark chocolate
p959
ag164
aVvanilla extract
p960
ag7
aVwhipping cream
p961
aVcrme frache
p962
aVraspberry
p963
atp964
sV712f62
p965
(VOreo Cheesecake Cookie Dough Bars
p966
Vhttp://static.food2fork.com/OreoCheesecakeCookieDoughBars1ec4a.jpg
p967
Vhttp://www.twopeasandtheirpod.com/oreo-cheesecake-cookie-dough-bars/
p968
(lp969
NaVoreo cooky
p970
ag6
ag7
aVsalt
p971
aVvanilla extract
p972
ag8
ag11
aVcream cheese
p973
ag20
aVoreo
p974
atp975
sV6c7084
p976
(VChocolate Brownies with Vanilla Salt
p977
Vhttp://static.food2fork.com/205xNxChocolateBrownieswithVanillaSalt214a2.jpg.pagespeed.ic.SdqhvjbC0I.jpg
p978
Vhttp://www.healthy-delicious.com/2014/02/homemade-chocolate-brownies-vanilla-salt-recipe/
p979
(lp980
g8
ag154
ag7
aVcocoa powder
p981
aS'coffee'
p982
aVsalt
p983
aVvegetable oil
p984
aNag20
aVvanilla extract
p985
ag11
aVvanilla salt
p986
atp987
sV509b6e
p988
(VReal proper custard
p989
Vhttp://static.food2fork.com/realpropercustard_65614_16x9dd2a.jpg
p990
Vhttp://www.bbc.co.uk/food/recipes/realpropercustard_65614
p991
(lp992
g164
aVsingle cream
p993
aVvanilla pod vanilla extract
p994
ag20
ag7
aVlevel cornflour
p995
atp996
sVcb35c2
p997
(VRed Velvet Cookie(s) Pops
p998
Vhttp://static.food2fork.com/IMG_4319180x1808dbd.jpg
p999
Vhttp://www.aspicyperspective.com/2013/01/red-velvet-cookies-free-printable-tags.html
p1000
(lp1001
Nag6
ag7
ag20
aVvanilla extract
p1002
ag171
aVtap salt
p1003
aVunsweetened cocoa powder
p1004
ag8
aVred food coloring gel
p1005
aVcream cheese
p1006
aVsalt
p1007
aVlollipop stick
p1008
atp1009
sVad9e38
p1010
(VToasted Coconut Breakfast Spread
p1011
Vhttp://static.food2fork.com/IMG_4852180x1808114.jpg
p1012
Vhttp://www.aspicyperspective.com/2013/02/toasted-coconut-breakfast-spread.html
p1013
(lp1014
g164
aVhoney
p1015
aVvanilla extract
p1016
aVcoconut
p1017
atp1018
sV3631
p1019
(VBest Carrot Cake Ever
p1020
Vhttp://static.food2fork.com/341653de8.jpg
p1021
Vhttp://allrecipes.com/Recipe/Best-Carrot-Cake-Ever/Detail.aspx
p1022
(lp1023
g864
ag7
aVraisin
p1024
ag20
aVvegetable oil
p1025
aVvanilla extract
p1026
aVpineapple
p1027
ag8
aVbaking soda
p1028
aVsalt
p1029
aVcinnamon
p1030
aVwalnut
p1031
atp1032
sV605921
p1033
(VPeek-a-boo Battenberg cake
p1034
Vhttp://static.food2fork.com/2852685_MEDIUM868a.jpg
p1035
Vhttp://www.bbcgoodfood.com/recipes/2852685/peekaboo-battenberg-cake
p1036
(lp1037
g6
ag7
ag8
aValmond
p1038
ag20
aVvanilla extract
p1039
aValmond extract
p1040
ag164
aVrosewater
p1041
aVlittle artificial pink food colouring see tip
p1042
aVapricot jam
p1043
aVpack white marzipan you 'll have trimming
p1044
atp1045
sV54374
p1046
(VChocolate Chip Cookie Dough Sandwiches
p1047
Vhttp://static.food2fork.com/chocolatechipcookiedoughsandwichcookies44ee0.jpg
p1048
Vhttp://www.twopeasandtheirpod.com/chocolate-chip-cookie-dough-sandwich-cookies/
p1049
(lp1050
Nag6
ag7
ag20
aVvanilla extract
p1051
ag8
aVbaking soda
p1052
aVsalt
p1053
ag11
aVheavy cream
p1054
atp1055
sV47700
p1056
(VAmazing Black Bean Brownies
p1057
Vhttp://static.food2fork.com/amazing_brownie_recipe9f94.jpg
p1058
Vhttp://www.101cookbooks.com/archives/amazing-black-bean-brownies-recipe.html
p1059
(lp1060
Vunsweetened chocolate
p1061
ag6
ag237
aVwalnut
p1062
aVvanilla extract
p1063
ag982
aVsea salt
p1064
ag20
aVlight agave nectar
p1065
atp1066
sV6894
p1067
(VChewy Sugar Cookies
p1068
Vhttp://static.food2fork.com/4894524ad7.jpg
p1069
Vhttp://allrecipes.com/Recipe/Chewy-Sugar-Cookies/Detail.aspx
p1070
(lp1071
g8
aVbaking soda
p1072
aVsalt
p1073
ag145
ag7
ag20
aVvanilla extract
p1074
atp1075
sV54370
p1076
(VQuinoa Cookies
p1077
Vhttp://static.food2fork.com/QuinoaCookies4b850.jpg
p1078
Vhttp://www.twopeasandtheirpod.com/quinoa-cookies/
p1079
(lp1080
g8
aVsalt
p1081
aVcinnamon
p1082
aNaVnutmeg
p1083
aVbaking soda
p1084
ag6
ag7
ag20
aVapplesauce used chunky musselman\u2019s applesauce
p1085
aVvanilla extract
p1086
aVraisin
p1087
aVold-fashioned oat
p1088
aS'uncooked beef roasts'
p1089
ag11
atp1090
sV54371
p1091
(VCoconut Granola
p1092
Vhttp://static.food2fork.com/CoconutGranola4dfdc.jpg
p1093
Vhttp://www.twopeasandtheirpod.com/coconut-granola/
p1094
(lp1095
Vold-fashioned oat
p1096
aVsweetened coconut
p1097
aValmond
p1098
aVpepitas
p1099
ag7
aVcinnamon
p1100
aVsalt
p1101
aVcoconut oil
p1102
aVpure maple syrup
p1103
aVvanilla extract
p1104
aVcoconut extract
p1105
atp1106
sV9754b7
p1107
(VNutella Brownies
p1108
Vhttp://static.food2fork.com/NutellaBrownies2369.jpg
p1109
Vhttp://www.mybakingaddiction.com/nutella-brownies/
p1110
(lp1111
Vunsweetened chocolate coarsely
p1112
ag6
ag7
ag20
aVpure vanilla extract
p1113
aVsalt
p1114
ag8
atp1115
sV54379
p1116
(VMini Rocky Road Cookies
p1117
Vhttp://static.food2fork.com/MiniRockyRoadCookies39a6b.jpg
p1118
Vhttp://www.twopeasandtheirpod.com/mini-rocky-road-cookies/
p1119
(lp1120
g8
aVbaking soda
p1121
aVsalt
p1122
ag212
ag6
ag7
ag20
aVvanilla extract
p1123
ag11
aVmallow bit
p1124
aValmond
p1125
atp1126
sV47066
p1127
(VPig Cake
p1128
Vhttp://static.food2fork.com/5318534306_21e6675b77_oe9d0.jpg
p1129
Vhttp://thepioneerwoman.com/cooking/2011/01/pig-cake/
p1130
(lp1131
Nag496
ag145
ag632
ag20
aVvanilla extract
p1132
aVbox vanilla instant pudding mix
p1133
aVpineapple
p1134
ag7
atp1135
sV4cf720
p1136
(VChocolate marble cake
p1137
Vhttp://static.food2fork.com/5557_MEDIUM0cf8.jpg
p1138
Vhttp://www.bbcgoodfood.com/recipes/5557/chocolate-marble-cake
p1139
(lp1140
g6
ag7
ag20
ag8
ag164
aVvanilla extract
p1141
aVcocoa powder
p1142
atp1143
sV5923
p1144
(VCaramel Popcorn
p1145
Vhttp://static.food2fork.com/539685954d.jpg
p1146
Vhttp://allrecipes.com/Recipe/Caramel-Popcorn/Detail.aspx
p1147
(lp1148
g6
ag7
ag154
aVsalt
p1149
aVbaking soda
p1150
aVvanilla extract
p1151
aVquart popped popcorn
p1152
atp1153
sV202b44
p1154
(VAlmond Cranberry Oatmeal Cookies {Vegan}
p1155
Vhttp://static.food2fork.com/AlmondCranberryOatmealCookies9d3da.jpg
p1156
Vhttp://www.twopeasandtheirpod.com/almond-cranberry-oatmeal-cookies/
p1157
(lp1158
g8
aVbaking soda
p1159
aVsalt
p1160
aVcinnamon
p1161
ag6
ag7
ag164
aVvanilla extract
p1162
aVold fashioned oat
p1163
aVcranberry
p1164
ag11
atp1165
sV47215
p1166
(VIndividual Raspberry Cobblers
p1167
Vhttp://static.food2fork.com/3715195422_6fe13a2c1118d1.jpg
p1168
Vhttp://thepioneerwoman.com/cooking/2009/07/individual-raspberry-cobblers/
p1169
(lp1170
g8
ag7
ag164
ag6
aVvanilla extract
p1171
aVraspberry
p1172
atp1173
sV32c865
p1174
(VBrown Butter Salted Caramel Cookies
p1175
Vhttp://static.food2fork.com/BrownButterSaltedCaramelSnickerdoodles69781.jpg
p1176
Vhttp://www.twopeasandtheirpod.com/brown-butter-salted-caramel-snickerdoodles/
p1177
(lp1178
g8
aVbaking soda
p1179
aVcream tartar
p1180
aVcinnamon
p1181
aVsea salt
p1182
ag6
ag7
ag20
aVvanilla extract
p1183
ag359
aVcaramel square
p1184
aNatp1185
sV9443
p1186
(VCoquito
p1187
Vhttp://static.food2fork.com/155621277.jpg
p1188
Vhttp://allrecipes.com/Recipe/Coquito-2/Detail.aspx
p1189
(lp1190
g20
ag164
aVcream coconut
p1191
aVwhite rum
p1192
aNaVcinnamon
p1193
aVvanilla extract
p1194
atp1195
sVd13cca
p1196
(VCoconut Bars
p1197
Vhttp://static.food2fork.com/coconutbarsrecipeglutenfreehealthy8d57.jpg
p1198
Vhttp://www.elanaspantry.com/coconut-bars/
p1199
(lp1200
g20
ag164
aVcoconut oil
p1201
aVhoney
p1202
aVvanilla extract
p1203
aVstevia
p1204
ag8
aVunsweetened coconut
p1205
aVceltic sea salt
p1206
atp1207
sV94d760
p1208
(VMexican Chocolate Ice Cream
p1209
Vhttp://static.food2fork.com/mexicanchocolateicecreamveganglutenfree653f.jpg
p1210
Vhttp://www.elanaspantry.com/mexican-chocolate-ice-cream/
p1211
(lp1212
g164
aVagave nectar
p1213
aVchocolate drop
p1214
aVcinnamon
p1215
aVceltic sea salt
p1216
ag171
aVdecaf espresso
p1217
aVvanilla extract
p1218
atp1219
sV0986a1
p1220
(VPancakes Revisited
p1221
Vhttp://static.food2fork.com/pancakesglutenfreeDSC_033084b4.jpg
p1222
Vhttp://www.elanaspantry.com/gluten-free-pancakes-revisited/
p1223
(lp1224
g20
aVagave nectar
p1225
aVvanilla extract
p1226
ag8
aVceltic sea salt
p1227
aVbaking soda
p1228
aVgrapeseed oil sauteing
p1229
atp1230
sVb3c201
p1231
(VBrown Sugar Toffee Cookies
p1232
Vhttp://static.food2fork.com/BrownSugarToffeeCookies14898.jpg
p1233
Vhttp://www.twopeasandtheirpod.com/brown-sugar-toffee-cookies/
p1234
(lp1235
g8
aVbaking soda
p1236
aVcornstarch
p1237
aVsalt
p1238
aVcinnamon
p1239
ag6
ag7
ag20
aVvanilla extract
p1240
aVheath toffee bit
p1241
atp1242
sVead2bc
p1243
(VCandied Pecans
p1244
Vhttp://static.food2fork.com/CandiedPecans17c20.jpg
p1245
Vhttp://www.twopeasandtheirpod.com/candied-pecans/
p1246
(lp1247
g7
aVcinnamon
p1248
aVsalt
p1249
aVunsalted pecan
p1250
ag20
aVvanilla extract
p1251
aNatp1252
sV38107
p1253
(VCroissant and Chocolate Bread Pudding
p1254
Vhttp://static.food2fork.com/croissantchocpudding_300c84e9e7f.jpg
p1255
Vhttp://www.realsimple.com/food-recipes/browse-all-recipes/croissant-chocolate-bread-pudding-00000000006834/index.html
p1256
(lp1257
g6
ag20
ag164
aVheavy cream
p1258
ag7
aVpure vanilla extract
p1259
aVkosher salt
p1260
aVnutmeg
p1261
aVcroissant
p1262
atp1263
sV47692
p1264
(VNikki
p1265
Vhttp://static.food2fork.com/healthy_cookies4ee3.jpg
p1266
Vhttp://www.101cookbooks.com/archives/nikkis-healthy-cookies-recipe.html
p1267
(lp1268
NaVvanilla extract
p1269
aVcoconut oil
p1270
aVrolled oat
p1271
aValmond meal
p1272
aVcoconut
p1273
aVcinnamon
p1274
aVsea salt
p1275
aVbaking powder
p1276
ag11
atp1277
sV47695
p1278
(VPeanut Butter Cookies
p1279
Vhttp://static.food2fork.com/peanut_butter_cookiesb984.jpg
p1280
Vhttp://www.101cookbooks.com/archives/peanut-butter-cookies-recipe.html
p1281
(lp1282
g8
aVbaking soda
p1283
aVsea salt
p1284
aNaVorganic
p1285
aVmaple syrup
p1286
aVextra virgin olive oil
p1287
aVvanilla extract
p1288
atp1289
sV9d708e
p1290
(VCaramel Cashew Clusters
p1291
Vhttp://static.food2fork.com/CashewClusters4498.jpg
p1292
Vhttp://www.mybakingaddiction.com/caramel-cashew-clusters/
p1293
(lp1294
Vindividually wrapped caramel
p1295
aVheavy cream
p1296
aVpure vanilla extract
p1297
aNaVsalted cashew
p1298
ag11
atp1299
sV36270
p1300
(VEggnog
p1301
Vhttp://static.food2fork.com/eggnoga283x20092a73ccd.jpg
p1302
Vhttp://www.simplyrecipes.com/recipes/eggnog/
p1303
(lp1304
g20
ag7
ag164
aNaVcinnamon
p1305
aVcream
p1306
aVnutmeg
p1307
aVvanilla extract
p1308
ag440
atp1309
sV67a8ea
p1310
(VRecipe: Chocolate Fudge Brownies with Chocolate Buttercream Frosting for the Joy the Baker Spotlight!
p1311
Vhttp://static.food2fork.com/6864672069_883b9d0a47_z8928.jpg
p1312
Vhttp://www.joanne-eatswellwithothers.com/2012/02/recipe-chocolate-fudge-brownies-with.html
p1313
(lp1314
g8
aVbaking powder
p1315
aVsalt
p1316
ag6
aVunsweetened chocolate
p1317
ag7
ag20
aVvanilla extract
p1318
ag11
atp1319
sV309527
p1320
(VGranny's Victoria sponge
p1321
Vhttp://static.food2fork.com/532634_MEDIUM4878.jpg
p1322
Vhttp://www.bbcgoodfood.com/recipes/532634/grannys-victoria-sponge
p1323
(lp1324
g6
ag7
aVvanilla extract
p1325
ag20
ag8
aVabout raspberry jam
p1326
aVdouble cream
p1327
atp1328
sV2423db
p1329
(VEdna Maes Sour Cream Pancakes
p1330
Vhttp://static.food2fork.com/sourcream49af.jpg
p1331
Vhttp://thepioneerwoman.com/cooking/2013/04/edna-maes-sour-cream-pancakes/
p1332
(lp1333
Vsour cream
p1334
ag8
ag7
aVbaking soda
p1335
aVsalt
p1336
ag20
aVvanilla extract
p1337
ag6
aVsyrup
p1338
atp1339
sV457dbc
p1340
(Vcrackly banana bread
p1341
Vhttp://static.food2fork.com/8033296886_143b68c09cefde.jpg
p1342
Vhttp://smittenkitchen.com/blog/2012/09/crackly-banana-bread/
p1343
(lp1344
g299
ag20
aVvirgin coconut oil
p1345
ag7
aVmaple syrup sweetness
p1346
aVvanilla extract
p1347
aVbaking soda
p1348
aVtable salt
p1349
aVcinnamon
p1350
aVnutmeg
p1351
aNaVsalt
p1352
ag8
ag1089
atp1353
sV47733
p1354
(VGuinness Chocolate Syrup
p1355
Vhttp://static.food2fork.com/GuinnessChocolateSyrup5005175withText05b6701a.jpg
p1356
Vhttp://feedproxy.google.com/~r/ClosetCooking/~3/6PXqppv8Kro/guinness-chocolate-syrup.html
p1357
(lp1358
Vguinness irish stout
p1359
ag7
aVcocoa powder
p1360
aVvanilla extract
p1361
aVsalt
p1362
atp1363
sV4b1e4f
p1364
(VAlmond Pancakes with Sour Cherry Syrup
p1365
Vhttp://static.food2fork.com/51136810b7d9.jpg
p1366
Vhttp://www.epicurious.com/recipes/food/views/Almond-Pancakes-with-Sour-Cherry-Syrup-51136810
p1367
(lp1368
Vsweetened sour cherry
p1369
aVcinnamon stick
p1370
aVmaple syrup
p1371
ag8
aVquick-cooking oat
p1372
aVbaking soda
p1373
aVkosher salt
p1374
ag20
aVlowfat buttermilk
p1375
aValmond extract
p1376
ag6
aVsliced almond
p1377
ag359
atp1378
sV54452
p1379
(VPeanut Butter Banana Bundt Cake with Reese's Peanut Butter Cups
p1380
Vhttp://static.food2fork.com/peanutbutterbananabundtcake3cc6f.jpg
p1381
Vhttp://www.twopeasandtheirpod.com/peanut-butter-banana-bundt-cake-with-reeses-peanut-butter-cups/
p1382
(lp1383
g8
aVbaking soda
p1384
aVsalt
p1385
ag6
ag7
aVvanilla extract
p1386
ag20
ag299
aVsour cream
p1387
ag80
aNag164
atp1388
sV54456
p1389
(VMini Chocolate Chip Maple Pancake Cupcakes
p1390
Vhttp://static.food2fork.com/kevinandamandaMiniMapleChocolateChipPancakeCupcakes01d93e.jpg
p1391
Vhttp://www.twopeasandtheirpod.com/mini-chocolate-chip-maple-pancake-cupcakes/
p1392
(lp1393
g6
ag7
ag496
aVbaking powder
p1394
aVsalt
p1395
aVpure maple syrup
p1396
aVvanilla extract
p1397
ag164
ag20
ag11
aVmaple buttercream frosting
p1398
aVtahitian vanilla extract
p1399
atp1400
sV54455
p1401
(VTwix Caramel Popcorn
p1402
Vhttp://static.food2fork.com/twixcaramelpopcorn2ddb1.jpg
p1403
Vhttp://www.twopeasandtheirpod.com/twix-caramel-popcorn/
p1404
(lp1405
Vquart plain air popped popcorn
p1406
ag6
ag7
ag154
aVsalt
p1407
aVbaking soda
p1408
aVvanilla extract
p1409
ag660
ag11
atp1410
sV549d6c
p1411
(VStrawberry Mascarpone Tart with Port Glaze
p1412
Vhttp://static.food2fork.com/35227260fb.jpg
p1413
Vhttp://www.epicurious.com/recipes/food/views/Strawberry-Mascarpone-Tart-with-Port-Glaze-352272
p1414
(lp1415
g8
ag7
aVrounded salt
p1416
ag6
ag20
aVpure vanilla extract
p1417
ag31
aNaVstrawberry
p1418
aVruby port
p1419
aVmascarpone
p1420
ag237
atp1421
sVce9929
p1422
(VSnickers Brownies
p1423
Vhttp://static.food2fork.com/SnickersBrownies2a538.jpg
p1424
Vhttp://www.mybakingaddiction.com/snickers-brownies/
p1425
(lp1426
Vunsweetened chocolate coarsely
p1427
ag6
ag7
ag20
aVvanilla extract
p1428
aVkosher salt
p1429
ag8
atp1430
sV47322
p1431
(VEasy, Delicious Pots de Creme
p1432
Vhttp://static.food2fork.com/PotsdeCreme28ce.jpg
p1433
Vhttp://thepioneerwoman.com/cooking/2008/05/easy-delicious-and-yes-elegant-pots-de-creme/
p1434
(lp1435
Nag20
aVvanilla extract cognac
p1436
aVsalt
p1437
atp1438
sVceba1d
p1439
(VBlackberry Chia Seed Jam
p1440
Vhttp://static.food2fork.com/BlackberryChiaSeedJam7ee79.jpg
p1441
Vhttp://www.twopeasandtheirpod.com/blackberry-chia-seed-jam/
p1442
(lp1443
Vblackberry
p1444
aVpure maple syrup
p1445
aVchia seed
p1446
aVvanilla extract
p1447
atp1448
sV46905
p1449
(VYummy Slice-and-Bake Cookies
p1450
Vhttp://static.food2fork.com/slicebakebbcc.jpg
p1451
Vhttp://thepioneerwoman.com/cooking/2012/08/yummy-slice-and-bake-cookies/
p1452
(lp1453
g8
ag982
aVbaking soda
p1454
aVsalt
p1455
ag6
ag7
ag20
aVvanilla
p1456
ag80
aVnutella
p1457
aVvery finely pecan
p1458
aNatp1459
sV16847
p1460
(VHong Kong Style Egg Tarts
p1461
Vhttp://static.food2fork.com/19859450d.jpg
p1462
Vhttp://allrecipes.com/Recipe/Hong-Kong-Style-Egg-Tarts/Detail.aspx
p1463
(lp1464
g7
ag8
ag6
ag20
aVvanilla extract
p1465
aVnbsp
p1466
aNag164
atp1467
sV729c74
p1468
(VBlueberry-Lavender Coffee Cake
p1469
Vhttp://static.food2fork.com/BlueberryLavenderCoffeeCake24cdf.jpg
p1470
Vhttp://www.healthy-delicious.com/2013/08/blueberry-lavender-coffee-cake-lemon-glaze/
p1471
(lp1472
Vblueberry
p1473
aNaVhoney
p1474
aVlavender
p1475
ag8
aVbaking soda
p1476
aVsalt
p1477
ag6
ag7
aVvanilla extract
p1478
ag20
aVbuttermilk
p1479
ag31
atp1480
sV859541
p1481
(VReese&#8217;s Cup Stuffed Chocolate Chip Cookies
p1482
Vhttp://static.food2fork.com/ReeseCookies240b4.jpg
p1483
Vhttp://www.mybakingaddiction.com/reeses-cup-stuffed-chocolate-chip-cookies/
p1484
(lp1485
g6
ag7
aVpure vanilla extract
p1486
ag20
ag8
aVbaking soda
p1487
aVsea salt
p1488
atp1489
sVb870fa
p1490
(VBanana bread
p1491
Vhttp://static.food2fork.com/bananabread_85720_16x96409.jpg
p1492
Vhttp://www.bbc.co.uk/food/recipes/bananabread_85720
p1493
(lp1494
g8
aVbicarbonate soda
p1495
aVsalt
p1496
ag6
ag7
ag20
ag299
ag164
aVvanilla extract
p1497
atp1498
sV4862
p1499
(VBrooke's Best Bombshell Brownies
p1500
Vhttp://static.food2fork.com/2108647d86.jpg
p1501
Vhttp://allrecipes.com/Recipe/Brookes-Best-Bombshell-Brownies/Detail.aspx
p1502
(lp1503
g6
ag7
aVvanilla extract
p1504
ag20
ag8
aVunsweetened cocoa powder
p1505
aVsalt
p1506
ag11
atp1507
sV46148e
p1508
(VFlourless Chocolate Rum&nbsp;Cake - Home - Pastry Affair
p1509
Vhttp://static.food2fork.com/6844562947_489a3ae580_b7346.jpg
p1510
Vhttp://www.pastryaffair.com/blog/2012/2/10/flourless-chocolate-rum-cake.html
p1511
(lp1512
g496
aVdark semisweet chocolate
p1513
ag6
ag7
ag20
aVvanilla extract
p1514
aVcocoa powder
p1515
aVdark light rum
p1516
atp1517
sV59d1b5
p1518
(VVanilla Almond Cupcakes
p1519
Vhttp://static.food2fork.com/VanillaAlmondCupcakes24085.jpg
p1520
Vhttp://www.twopeasandtheirpod.com/vanilla-almond-cupcakes/
p1521
(lp1522
Nag8
aVbaking powder
p1523
aVsalt
p1524
ag7
ag6
ag20
aVvanilla extract
p1525
aValmond extract
p1526
aValmond breeze almondmilk unsweetened vanilla
p1527
aVsprinkle
p1528
atp1529
sV038418
p1530
(VEspresso Fudge Brownies
p1531
Vhttp://static.food2fork.com/espressofudgebrowniesglutenfreerecipeDSC_22782364.jpg
p1532
Vhttp://www.elanaspantry.com/espresso-fudge-brownies/
p1533
(lp1534
Vchocolate drop
p1535
ag391
ag237
ag20
ag7
aVvanilla extract
p1536
aVceltic sea salt
p1537
ag8
atp1538
sV47139
p1539
(VBaked French Toast
p1540
Vhttp://static.food2fork.com/4573173616_0ed83c1ee1_o91e9.jpg
p1541
Vhttp://thepioneerwoman.com/cooking/2010/05/cinnamon-baked-french-toast/
p1542
(lp1543
Nag285
ag20
ag164
aVwhipping cream
p1544
ag7
aVvanilla extract
p1545
ag8
aVcinnamon
p1546
aVsalt
p1547
aVnutmeg optional
p1548
ag6
aS'grapefruit'
p1549
atp1550
sV11572
p1551
(VDouble Layer Pumpkin Cheesecake
p1552
Vhttp://static.food2fork.com/3036758d26.jpg
p1553
Vhttp://allrecipes.com/Recipe/Double-Layer-Pumpkin-Cheesecake-2/Detail.aspx
p1554
(lp1555
Vcream cheese
p1556
ag7
aVvanilla extract
p1557
ag20
ag562
aVpumpkin puree
p1558
aVcinnamon
p1559
aNaVnutmeg
p1560
aVwhipped topping
p1561
atp1562
sV47133
p1563
(VMalted Milk Chocolate Chip Cookies
p1564
Vhttp://static.food2fork.com/4676014935_290fd3b014_b0a6e.jpg
p1565
Vhttp://thepioneerwoman.com/cooking/2010/06/malted-milk-chocolate-chip-cookies/
p1566
(lp1567
g6
ag7
ag20
aVvanilla extract
p1568
ag8
aVbaking soda
p1569
aVsalt
p1570
ag164
ag24
atp1571
sVed99f8
p1572
(VSalted Chocolate Tart with Kettle Chip Crust
p1573
Vhttp://static.food2fork.com/IMG_9398bc20.jpg
p1574
Vhttp://whatsgabycooking.com/salted-chocolate-tart-with-kettle-chip-crust/
p1575
(lp1576
g24
ag6
ag8
ag601
ag11
ag20
aVvanilla extract
p1577
aVsalt
p1578
aVheavy cream
p1579
atp1580
sVf7dd8a
p1581
(VHomemade Blueberry Sauce
p1582
Vhttp://static.food2fork.com/BlueberrySauceonPancakes1of11c4b5.jpg
p1583
Vhttp://www.mybakingaddiction.com/homemade-blueberry-sauce-recipe/
p1584
(lp1585
Vblueberry
p1586
aNag7
ag31
aVcornstarch
p1587
aVvanilla extract
p1588
atp1589
sV54688
p1590
(VChocolate Caramel Cookies with Sea Salt
p1591
Vhttp://static.food2fork.com/4330713471_9dbd5c0e7bc5e7.jpg
p1592
Vhttp://www.twopeasandtheirpod.com/chocolate-caramel-cookies-with-sea-salt/
p1593
(lp1594
g8
aVbaking soda
p1595
aVsalt
p1596
ag6
aVunsweetened cocoa
p1597
ag7
ag359
aVvanilla extract
p1598
aVsoft caramel
p1599
aVpeter caramel
p1600
aNaVsea salt
p1601
atp1602
sV36696
p1603
(VPeach Galette
p1604
Vhttp://static.food2fork.com/peachgalette300x200b46a7ef3.jpg
p1605
Vhttp://www.simplyrecipes.com/recipes/peach_galette/
p1606
(lp1607
g8
ag7
aVsalt
p1608
aNag171
aVvanilla extract
p1609
aValmond paste
p1610
ag6
ag20
atp1611
sVcf7da5
p1612
(VOrange-Vanilla Monkey Bread
p1613
Vhttp://static.food2fork.com/orangevanilla87ab.jpg
p1614
Vhttp://thepioneerwoman.com/cooking/2013/04/orange-vanilla-monkey-bread/
p1615
(lp1616
g440
ag7
ag632
aVsalt
p1617
ag6
aVvanilla extract
p1618
atp1619
sV32437
p1620
(VThe Best Banana Pudding
p1621
Vhttp://static.food2fork.com/16517d993.jpg
p1622
Vhttp://allrecipes.com/Recipe/The-Best-Banana-Pudding/Detail.aspx
p1623
(lp1624
Vinstant vanilla pudding mix
p1625
ag164
aVvanilla extract
p1626
aVcontainer whipped topping
p1627
aVvanilla wafer
p1628
ag299
atp1629
sV43b44c
p1630
(VSpicy Power Bars
p1631
Vhttp://static.food2fork.com/spicypowerenergybarsDSC_77921ec9.jpg
p1632
Vhttp://www.elanaspantry.com/spicy-power-bars/
p1633
(lp1634
Valmond thanks lawrence amp gail
p1635
ag80
aVmedjool date
p1636
aVcherry
p1637
aVvanilla extract
p1638
aVginger
p1639
aVcinnamon
p1640
aVcardamom
p1641
aVceltic sea salt
p1642
atp1643
sVad9f77
p1644
(VVegan Mint Chip Ice Cream
p1645
Vhttp://static.food2fork.com/MintChipIceCream58301049.jpg
p1646
Vhttp://www.elanaspantry.com/vegan-mint-chip-ice-cream/
p1647
(lp1648
Vhemp seed
p1649
aNag164
aVhoney agave
p1650
aVvanilla extract
p1651
aVpeppermint extract
p1652
aVchocolate drop
p1653
atp1654
sV3fe0ed
p1655
(VPumpkin Oatmeal Cookies
p1656
Vhttp://static.food2fork.com/PumpkinOatmealCookiesc425.jpg
p1657
Vhttp://www.mybakingaddiction.com/pumpkin-oatmeal-cookies/
p1658
(lp1659
g8
aVold-fashioned oat
p1660
aVbaking soda
p1661
aVcinnamon
p1662
aVpumpkin pie spice
p1663
aVkosher salt
p1664
ag6
ag7
aVpure pumpkin puree
p1665
ag20
aVvanilla extract
p1666
ag11
atp1667
sVe95e9e
p1668
(VGluten-Free Lava Cakes
p1669
Vhttp://static.food2fork.com/glutenfreeraspberrymoltenlavacakes1fdcd.jpg
p1670
Vhttp://www.mybakingaddiction.com/gluten-free-lava-cakes/
p1671
(lp1672
g7
ag20
aVvanilla extract
p1673
aVsalt
p1674
ag11
ag6
ag8
atp1675
sV22790
p1676
(VMicrowave Oven Peanut Brittle
p1677
Vhttp://static.food2fork.com/26159d0c1.jpg
p1678
Vhttp://allrecipes.com/Recipe/Microwave-Oven-Peanut-Brittle/Detail.aspx
p1679
(lp1680
g80
ag7
ag154
aVsalt
p1681
ag6
aVvanilla extract
p1682
aVbaking soda
p1683
atp1684
sV018336
p1685
(VZucchini Coconut Chocolate Chip Cookies
p1686
Vhttp://static.food2fork.com/ZucchiniCoconutChocolateChipCookies5f5f4.jpg
p1687
Vhttp://www.twopeasandtheirpod.com/zucchini-coconut-chocolate-chip-cookies/
p1688
(lp1689
g8
aVbaking soda
p1690
aVsalt
p1691
aVcoconut oil
p1692
ag7
ag20
aVvanilla extract
p1693
aVzucchini
p1694
aVold fashioned oat
p1695
aVsweetened coconut flake
p1696
ag11
atp1697
sV16549
p1698
(VHomemade Banana Pudding Pie
p1699
Vhttp://static.food2fork.com/5397236e.jpg
p1700
Vhttp://allrecipes.com/Recipe/Homemade-Banana-Pudding-Pie/Detail.aspx
p1701
(lp1702
Vvanilla wafer crumb
p1703
ag299
ag7
ag8
ag164
ag20
ag6
aVvanilla extract
p1704
atp1705
sV1487
p1706
(VApple Turnovers
p1707
Vhttp://static.food2fork.com/42599ecdd.jpg
p1708
Vhttp://allrecipes.com/Recipe/Apple-Turnovers/Detail.aspx
p1709
(lp1710
g31
aNag238
ag6
ag7
aVcinnamon
p1711
aVcornstarch
p1712
aVpuff pastry sheet
p1713
aVnbsp
p1714
ag164
aVvanilla extract
p1715
atp1716
sV54333
p1717
(VPeach Pie
p1718
Vhttp://static.food2fork.com/peachpie857c.jpg
p1719
Vhttp://www.twopeasandtheirpod.com/peach-pie/
p1720
(lp1721
Nag8
ag7
aVsalt
p1722
ag6
aVbuttermilk
p1723
ag20
ag440
aVcinnamon
p1724
aVnutmeg
p1725
aVcornstarch
p1726
aVvanilla extract
p1727
atp1728
sV70b39e
p1729
(VCashew Milk
p1730
Vhttp://static.food2fork.com/cashewmilkrecipe0607.jpg
p1731
Vhttp://cookieandkate.com/2013/cashew-milk-recipe/
p1732
(lp1733
g234
aNaVmaple syrup honey agave nectar
p1734
aVvanilla extract
p1735
aVsea salt
p1736
aVcinnamon
p1737
atp1738
sV54337
p1739
(VButterscotch Pudding Triple Chip Cookies
p1740
Vhttp://static.food2fork.com/ButterscotchPuddingTripleChipCookies3575f.jpg
p1741
Vhttp://www.twopeasandtheirpod.com/butterscotch-pudding-triple-chip-cookies/
p1742
(lp1743
g6
ag7
aVbutterscotch instant pudding mix
p1744
ag20
aVvanilla extract
p1745
ag8
aVbaking soda
p1746
aVsalt
p1747
ag11
atp1748
sVe528fa
p1749
(VHomemade Amaretto Recipe
p1750
Vhttp://static.food2fork.com/29035_amaretto_6202f8b.jpg
p1751
Vhttp://www.chow.com/recipes/29035-homemade-amaretto
p1752
(lp1753
Vcoarsely apricot
p1754
aVbottled purified
p1755
aS'vodka'
p1756
aNaVbrandy
p1757
aVcoarsely apricot kernel
p1758
aVcoarsely
p1759
ag7
aValmond extract
p1760
aVvanilla extract
p1761
atp1762
sV999c67
p1763
(VChocolate Chip Cookies (Dairy Free/Gluten Free)
p1764
Vhttp://static.food2fork.com/glutenfreeveganchocolatechipcookies9f02.jpg
p1765
Vhttp://www.elanaspantry.com/dairy-free-gluten-free-chocolate-chip-cookies/
p1766
(lp1767
g8
aVceltic sea salt
p1768
aVbaking soda
p1769
aVgrapeseed oil
p1770
aVvanilla extract
p1771
aVagave nectar
p1772
aVchocolate drop
p1773
atp1774
sV743bbc
p1775
(VPeppermint Mocha Kahlua Truffles
p1776
Vhttp://static.food2fork.com/Truffles27e58.jpg
p1777
Vhttp://www.mybakingaddiction.com/peppermint-truffles-recipe/
p1778
(lp1779
Vsemi chocolate
p1780
ag6
aVheavy cream
p1781
aVvanilla extract
p1782
aVkahlua peppermint mocha liqueur see step
p1783
ag11
atp1784
sV23970
p1785
(VNo Bake Chocolate Oat Bars
p1786
Vhttp://static.food2fork.com/40267621a5.jpg
p1787
Vhttp://allrecipes.com/Recipe/No-Bake-Chocolate-Oat-Bars/Detail.aspx
p1788
(lp1789
g6
ag7
aVvanilla extract
p1790
aVquick cooking oat
p1791
ag11
ag80
atp1792
sVfbfc9f
p1793
(VBrown Butter Chocolate Chip Hazelnut Cookie Bars
p1794
Vhttp://static.food2fork.com/BrownButterChocolateChipHazelnutCookieBars1850d.jpg
p1795
Vhttp://www.twopeasandtheirpod.com/brown-butter-chocolate-chip-hazelnut-cookie-bars/
p1796
(lp1797
g8
aVsea salt
p1798
aVbaking soda
p1799
ag6
ag7
ag20
aVvanilla extract
p1800
ag11
aVhazelnut
p1801
atp1802
sVf2c667
p1803
(VRhubarb Berry Crisp
p1804
Vhttp://static.food2fork.com/rhubarbberrycrisp8a2ea.jpg
p1805
Vhttp://www.twopeasandtheirpod.com/rhubarb-berry-crisp/
p1806
(lp1807
NaVrhubarb
p1808
aVmixed berry used blackberry
p1809
ag7
ag632
aVvanilla extract
p1810
aVcornstarch
p1811
aVold-fashioned oat use gluten-free oat
p1812
ag8
aVcinnamon
p1813
aVteasopon salt
p1814
ag6
ag171
atp1815
sV3ddcb3
p1816
(VPeanut Butter Do-si-do Chocolate Chip Cookies
p1817
Vhttp://static.food2fork.com/PeanutButterDosidoCookies3tef76.jpg
p1818
Vhttp://picky-palate.com/2013/03/25/peanut-butter-do-si-do-chocolate-chip-cookies/
p1819
(lp1820
g6
ag7
ag80
ag20
aVpure vanilla extract
p1821
ag8
aVbaking soda
p1822
aVkosher salt
p1823
ag11
aVgirl scout do-si-do cooky
p1824
aVcanola oil
p1825
atp1826
sVbaf966
p1827
(VChocolate Power Bar Balls
p1828
Vhttp://static.food2fork.com/chocolatepowerbarballsrecipeglutenfreeveganDSC_144151de.jpg
p1829
Vhttp://www.elanaspantry.com/chocolate-power-bar-balls/
p1830
(lp1831
Vmedjool date
p1832
aVwalnut
p1833
aVchocolate drop
p1834
aVvanilla extract
p1835
aVceltic sea salt
p1836
aNatp1837
sVdb191c
p1838
(VHomemade Frappuccino
p1839
Vhttp://static.food2fork.com/frapp72ed.jpg
p1840
Vhttp://thepioneerwoman.com/cooking/2014/09/homemade-frappuccino/
p1841
(lp1842
NaVsweetened
p1843
aVvanilla extract
p1844
aVchocolate syrup
p1845
ag11
aVwhipped cream
p1846
aVhalf-and-half
p1847
atp1848
sVa59752
p1849
(VCroissant French Toast
p1850
Vhttp://static.food2fork.com/croissantc807.jpg
p1851
Vhttp://thepioneerwoman.com/cooking/2014/02/croissant-french-toast/
p1852
(lp1853
Vcroissant
p1854
ag20
aVhalf-and-half
p1855
ag7
aVcinnamon
p1856
aVvanilla extract
p1857
ag6
aVsyrup
p1858
aVstrawberry
p1859
aVwhipped cream
p1860
atp1861
sV26451
p1862
(VRed Velvet Cake
p1863
Vhttp://static.food2fork.com/9198f9a7.jpg
p1864
Vhttp://allrecipes.com/Recipe/Red-Velvet-Cake/Detail.aspx
p1865
(lp1866
g391
ag7
ag20
aVcocoa
p1867
aVred food coloring
p1868
aVsalt
p1869
aVvanilla extract
p1870
aVbuttermilk
p1871
ag8
aVbaking soda
p1872
aVdistilled white vinegar
p1873
ag164
ag6
atp1874
sV3741
p1875
(VBest Peanut Butter Cookies Ever
p1876
Vhttp://static.food2fork.com/61039fbc7.jpg
p1877
Vhttp://allrecipes.com/Recipe/Best-Peanut-Butter-Cookies-Ever/Detail.aspx
p1878
(lp1879
g80
ag7
ag20
aVbaking soda
p1880
aVsalt
p1881
aVvanilla extract
p1882
atp1883
sV04afdf
p1884
(VChocolate Pumpkin Ice Cream Sandwiches
p1885
Vhttp://static.food2fork.com/ChocolatePumpkinIceCreamSandwiches129d8.jpg
p1886
Vhttp://www.twopeasandtheirpod.com/chocolate-pumpkin-ice-cream-sandwiches/
p1887
(lp1888
Nag8
aVbaking soda
p1889
aVsalt
p1890
ag212
ag6
ag7
ag20
aVvanilla extract
p1891
ag171
atp1892
sVb1bbf4
p1893
(VSalted Caramel Ice Cream
p1894
Vhttp://static.food2fork.com/3545175003.jpg
p1895
Vhttp://www.epicurious.com/recipes/food/views/Salted-Caramel-Ice-Cream-354517
p1896
(lp1897
g7
aVheavy cream
p1898
aVflaky sea salt such maldon
p1899
aVpure vanilla extract
p1900
ag164
ag20
ag171
atp1901
sV90dbcf
p1902
(VDark Chocolate Pudding
p1903
Vhttp://static.food2fork.com/ChocolateAvocadoPudding7b862.jpg
p1904
Vhttp://www.twopeasandtheirpod.com/dark-chocolate-pudding/
p1905
(lp1906
g164
aVavocado
p1907
aVplus unsweetened cocoa powder
p1908
aVplus pure maple syrup
p1909
aVvanilla extract
p1910
aValmond extract did n't add this
p1911
aVcinnamon
p1912
aVsea salt
p1913
aVraspberry
p1914
atp1915
sV37e537
p1916
(VLemon Cookies with Toasted Coconut Frosting
p1917
Vhttp://static.food2fork.com/LemonCookieswithToastedCoconutFrosting838bf.jpg
p1918
Vhttp://www.twopeasandtheirpod.com/lemon-cookies-with-toasted-coconut-frosting/
p1919
(lp1920
Nag8
aVbaking powder
p1921
aVsalt
p1922
ag7
ag31
ag6
ag20
aVvanilla extract
p1923
aVcoconut extract
p1924
ag164
aVtoasted coconut
p1925
atp1926
sV22492
p1927
(VMegan's Granola
p1928
Vhttp://static.food2fork.com/639760047e.jpg
p1929
Vhttp://allrecipes.com/Recipe/Megans-Granola/Detail.aspx
p1930
(lp1931
Vrolled oat
p1932
aVwheat germ
p1933
aVoat bran
p1934
aVsunflower seed
p1935
aVfinely almond
p1936
aVfinely pecan
p1937
aVfinely walnut
p1938
aVsalt
p1939
ag7
aVmaple syrup
p1940
aVhoney
p1941
aVvegetable oil
p1942
aVcinnamon
p1943
aVvanilla extract
p1944
aVraisin sweetened cranberry
p1945
atp1946
sV09956c
p1947
(VAll Recipes
p1948
Vhttp://static.food2fork.com/homemadepumpkinchailatte1325d.jpg
p1949
Vhttp://cookieandkate.com/2014/homemade-pumpkin-chai-latte/
p1950
(lp1951
S'steak'
p1952
aVplain
p1953
aVreal pumpkin pure
p1954
aVreal maple syrup honey
p1955
aVvanilla extract
p1956
aVcinnamon
p1957
aVginger
p1958
aVnutmeg
p1959
aNaVtiny salt
p1960
aVarrowroot starch cornstarch optional
p1961
aVoptional garnish cinnamon stick star anise
p1962
ag164
aVmaple syrup
p1963
atp1964
sVd1eb2f
p1965
(VBaked French Toast Casserole with Cranberry & Pistachio Streusel
p1966
Vhttp://static.food2fork.com/8289353137_0cb745e0ebe69a.jpg
p1967
Vhttp://www.cookincanuck.com/2012/12/baked-french-toast-casserole-recipe-cranberries-pistachios/
p1968
(lp1969
g285
ag20
ag632
ag164
aVvanilla extract
p1970
aVcinnamon
p1971
aVnutmeg
p1972
ag7
ag6
aVcranberry
p1973
aVshelled pistachio
p1974
atp1975
sV49371e
p1976
(VFrozen Coconut Yogurt with Cinnamon
p1977
Vhttp://static.food2fork.com/3686691da1.jpg
p1978
Vhttp://www.epicurious.com/recipes/food/views/Frozen-Coconut-Yogurt-with-Cinnamon-368669
p1979
(lp1980
g359
ag7
ag164
aVcinnamon
p1981
aVcoconut extract
p1982
aVunsweetened coconut
p1983
atp1984
sV29382
p1985
(VSoft Oatmeal Cookies
p1986
Vhttp://static.food2fork.com/410926750.jpg
p1987
Vhttp://allrecipes.com/Recipe/Soft-Oatmeal-Cookies/Detail.aspx
p1988
(lp1989
g6
ag7
ag20
aVvanilla extract
p1990
ag8
aVbaking soda
p1991
aVsalt
p1992
aVcinnamon
p1993
aVquick cooking oat
p1994
atp1995
sV27314
p1996
(VRussian Tea Cakes I
p1997
Vhttp://static.food2fork.com/2736408f3.jpg
p1998
Vhttp://allrecipes.com/Recipe/Russian-Tea-Cakes-I/Detail.aspx
p1999
(lp2000
g6
aVvanilla extract
p2001
ag7
ag8
aVwalnut
p2002
atp2003
sV10f62d
p2004
(VLemon Coconut Crumb Bars
p2005
Vhttp://static.food2fork.com/LemonCoconutCrumbBars2e77c.jpg
p2006
Vhttp://www.twopeasandtheirpod.com/lemon-coconut-crumb-bars/
p2007
(lp2008
g8
aVsalt
p2009
aVbaking powder
p2010
aVcoconut oil
p2011
ag7
ag20
aVvanilla extract
p2012
aVcoconut extract
p2013
aVflaked coconut
p2014
ag31
atp2015
sV5030
p2016
(VBuckeyes I
p2017
Vhttp://static.food2fork.com/235474005b.jpg
p2018
Vhttp://allrecipes.com/Recipe/Buckeyes-I/Detail.aspx
p2019
(lp2020
g80
ag6
aVvanilla extract
p2021
ag7
ag11
atp2022
sV70ef10
p2023
(VGreen Velvet Baked Sprinkle Donuts
p2024
Vhttp://static.food2fork.com/GreenVelvetBakedSprinkleDonuts1t8813.jpg
p2025
Vhttp://picky-palate.com/2013/03/01/green-velvet-baked-sprinkle-donuts/
p2026
(lp2027
g8
aVbaking powder
p2028
aVkosher salt
p2029
ag7
ag20
aVpure vanilla extract
p2030
aVinstant vanilla pudding mix
p2031
aVbuttermilk
p2032
aVdrop green food coloring
p2033
aVheavy cream
p2034
aVsprinkle
p2035
atp2036
sV8f6b0c
p2037
(VSlow Cooker Brownie Pudding Cake
p2038
Vhttp://static.food2fork.com/iTkf77HWL16787.jpg
p2039
Vhttp://www.framedcooks.com/2012/03/slow-cooker-brownie-pudding-cake.html
p2040
(lp2041
g496
aVone instant chocolate pudding
p2042
aVsour cream
p2043
ag20
aVvegetable oil
p2044
aNaVvanilla extract
p2045
ag171
atp2046
sV0b37ae
p2047
(VRolo Chocolate Chip Cookies
p2048
Vhttp://static.food2fork.com/RoloStackFinal725c.jpg
p2049
Vhttp://www.mybakingaddiction.com/rolo-stuffed-chocolate-chip-cookies/
p2050
(lp2051
g6
ag7
aVvanilla
p2052
ag20
ag8
aVbaking soda
p2053
aVkosher salt
p2054
ag11
atp2055
sV2882
p2056
(VBanana Sour Cream Bread
p2057
Vhttp://static.food2fork.com/177469ea05.jpg
p2058
Vhttp://allrecipes.com/Recipe/Banana-Sour-Cream-Bread/Detail.aspx
p2059
(lp2060
g7
aVcinnamon
p2061
ag6
ag20
ag299
aVcontainer sour cream
p2062
aVvanilla extract
p2063
aVsalt
p2064
aVbaking soda
p2065
ag8
aVwalnut
p2066
atp2067
sV854f07
p2068
(VWhite Chocolate Dipped Snickerdoodles
p2069
Vhttp://static.food2fork.com/WhiteChocolateDippedSnickerdoodles34ac3.jpg
p2070
Vhttp://www.twopeasandtheirpod.com/white-chocolate-dipped-snickerdoodles/
p2071
(lp2072
Nag8
aVcream tartar
p2073
aVbaking soda
p2074
aVsalt
p2075
ag7
ag6
ag20
aVvanilla extract
p2076
aVcinnamon
p2077
ag24
atp2078
sV284cdc
p2079
(VDouble Chocolate Walnut Brownies
p2080
Vhttp://static.food2fork.com/doublechocolatewalnutbrowniesrecipeglutenfreeDSC_8600da13.jpg
p2081
Vhttp://www.elanaspantry.com/double-chocolate-walnut-brownies/
p2082
(lp2083
Vchocolate drop
p2084
ag8
aVceltic sea salt
p2085
aVbaking soda
p2086
ag20
aVagave nectar
p2087
aVgrapeseed oil
p2088
aVvanilla extract
p2089
aVwalnut
p2090
atp2091
sV70098e
p2092
(VChocolate chip cookies
p2093
Vhttp://static.food2fork.com/chocolatechipcookies_72335_16x98e38.jpg
p2094
Vhttp://www.bbc.co.uk/food/recipes/chocolatechipcookies_72335
p2095
(lp2096
g8
aVbicarbonate soda
p2097
aVsalt
p2098
ag6
ag7
aVvanilla extract
p2099
ag20
aVdark chocolate
p2100
atp2101
sV34422
p2102
(VWhite Chocolate Macadamia Nut Cookies III
p2103
Vhttp://static.food2fork.com/292145580f.jpg
p2104
Vhttp://allrecipes.com/Recipe/White-Chocolate-Macadamia-Nut-Cookies-Iii/Detail.aspx
p2105
(lp2106
g6
ag7
ag20
aVvanilla extract
p2107
aValmond extract
p2108
ag8
aVbaking soda
p2109
aVsalt
p2110
ag80
aVcoarsely white chocolate
p2111
atp2112
sVcadd9e
p2113
(VMini M&M'S Cookies
p2114
Vhttp://static.food2fork.com/MiniMMCookies8c279.jpg
p2115
Vhttp://www.twopeasandtheirpod.com/mini-mms-cookies/
p2116
(lp2117
g8
aVcornstarch
p2118
aVbaking soda
p2119
aVsea salt
p2120
ag6
ag7
ag20
aVvanilla extract
p2121
aVmini
p2122
ag11
atp2123
sV09ed0a
p2124
(VPaleo Girl Scout Cookies: Samoas
p2125
Vhttp://static.food2fork.com/Samoras200518f5d.jpg
p2126
Vhttp://www.elanaspantry.com/paleo-samoas/
p2127
(lp2128
g8
aVunsweetened coconut
p2129
aVbaking soda
p2130
aVhoney
p2131
aVvanilla extract
p2132
ag20
aVcoconut oil
p2133
aVdark chocolate chunk
p2134
ag7
aVcoconut nectar
p2135
ag164
atp2136
sVccea19
p2137
(VChocolate Cranberry Power Bars
p2138
Vhttp://static.food2fork.com/chocolatecranberrypowerbarrecipeglutenfreeDSC_135577e7.jpg
p2139
Vhttp://www.elanaspantry.com/chocolate-cranberry-power-bars/
p2140
(lp2141
Vpecan
p2142
aVcacao powder
p2143
aVmedjool date
p2144
aVvanilla extract
p2145
aVdrop stevia
p2146
aVagave nectar honey
p2147
aVcranberry
p2148
atp2149
sV155c78
p2150
(VApple Pie Muffins
p2151
Vhttp://static.food2fork.com/ApplePieMuffinsSingle53e7.jpg
p2152
Vhttp://www.mybakingaddiction.com/apple-streusel-muffins-recipe/
p2153
(lp2154
g8
aVpumpkin pie spice
p2155
aVbaking soda
p2156
aVkosher salt
p2157
ag20
aVbuttermilk
p2158
ag6
aVvanilla extract
p2159
ag7
atp2160
sV54482
p2161
(VChocolate Zucchini Cupcakes
p2162
Vhttp://static.food2fork.com/chocolatezucchinicupcakes3403a.jpg
p2163
Vhttp://www.twopeasandtheirpod.com/chocolate-zucchini-cupcakes/
p2164
(lp2165
Nag7
ag6
aVcanola oil
p2166
ag20
aVvanilla extract
p2167
aVbuttermilk
p2168
aVzucchini
p2169
ag11
ag8
ag212
aVsalt
p2170
aVbaking soda
p2171
aVcinnamon
p2172
ag164
atp2173
sV3ffdec
p2174
(VEasy Brownies Recipe
p2175
Vhttp://static.food2fork.com/30376_RecipeImage_620x413_easy_brownies2640.jpg
p2176
Vhttp://www.chow.com/recipes/30376-easy-brownies
p2177
(lp2178
g11
ag6
ag20
ag7
aVvanilla extract
p2179
aVbaking powder
p2180
aVsalt
p2181
ag8
atp2182
sV54484
p2183
(VMud Hen Bars
p2184
Vhttp://static.food2fork.com/mudhenbars1f132.jpg
p2185
Vhttp://www.twopeasandtheirpod.com/mud-hen-bars/
p2186
(lp2187
g6
ag7
ag20
aVvanilla extract
p2188
ag8
aVbaking powder
p2189
aVsalt
p2190
ag11
aVmini marshmallow
p2191
ag80
atp2192
sV54486
p2193
(VBiscoff Oatmeal Cookies
p2194
Vhttp://static.food2fork.com/biscoffoatmealcookies254c.jpg
p2195
Vhttp://www.twopeasandtheirpod.com/biscoff-oatmeal-cookies/
p2196
(lp2197
Vold fashioned oat
p2198
ag8
aVbaking soda
p2199
aVcinnamon
p2200
aVsalt
p2201
ag6
aVbiscoff spread
p2202
ag7
ag20
aVvanilla extract
p2203
atp2204
sV4e35c6
p2205
(VAlmond Joy Cupcakes
p2206
Vhttp://static.food2fork.com/almondjoycupcakesf655.jpg
p2207
Vhttp://www.mybakingaddiction.com/almond-joy-cupcakes/
p2208
(lp2209
g601
ag496
aVinstant chocolate pudding mix
p2210
aVsour cream
p2211
aVvegetable oil
p2212
ag20
aVpure vanilla extract
p2213
aNatp2214
sV1eae9c
p2215
(VSoft Batch Style Chocolate Chip Cookies
p2216
Vhttp://static.food2fork.com/SoftBatchStyleChocolateChipCookies7t1200x3000a7d.jpg
p2217
Vhttp://picky-palate.com/2013/01/16/soft-batch-style-chocolate-chip-cookies/
p2218
(lp2219
g6
ag7
ag20
aVpure vanilla extract
p2220
ag8
aVcornstarch
p2221
aVbaking soda
p2222
aVkosher salt
p2223
ag11
atp2224
sV3525
p2225
(VBelgian Waffles
p2226
Vhttp://static.food2fork.com/2777852a.jpg
p2227
Vhttp://allrecipes.com/Recipe/Belgian-Waffles/Detail.aspx
p2228
(lp2229
Vactive dry yeast
p2230
ag164
ag20
ag6
ag7
aVsalt
p2231
aVvanilla extract
p2232
ag8
atp2233
sV48e3b1
p2234
(VPecan Shortbread Cookies
p2235
Vhttp://static.food2fork.com/pecan_shortbread_cookiesceaa.jpg
p2236
Vhttp://www.elanaspantry.com/pecan-shortbread-cookies/
p2237
(lp2238
g8
aVceltic sea salt
p2239
aVbaking soda
p2240
aVpecan
p2241
aVagave nectar honey
p2242
ag6
aVvanilla extract
p2243
atp2244
sV9a984f
p2245
(VPortuguese custard tarts (Pasteis de nata)
p2246
Vhttp://static.food2fork.com/1354638_MEDIUM5c5a.jpg
p2247
Vhttp://www.bbcgoodfood.com/recipes/1354638/portuguese-custard-tarts-pasteis-de-nata
p2248
(lp2249
g7
ag31
aVcinnamon stick
p2250
ag164
ag8
aVcornflour
p2251
aVfew drop vanilla extract
p2252
ag20
aVpuff pastry
p2253
ag6
atp2254
sV47073
p2255
(VCleta Bailey\u2019s Toffee Squares
p2256
Vhttp://static.food2fork.com/5222530386_1e1b2a5a2b_o042c.jpg
p2257
Vhttp://thepioneerwoman.com/cooking/2010/12/cleta-baileys-toffee-squares/
p2258
(lp2259
g6
ag7
ag20
aVvanilla
p2260
ag8
ag11
aVfinely pecan
p2261
atp2262
sV47072
p2263
(VLia's Butter Toffee
p2264
Vhttp://static.food2fork.com/5240498317_2cc4daa9f0_oed75.jpg
p2265
Vhttp://thepioneerwoman.com/cooking/2010/12/lias-butter-toffee/
p2266
(lp2267
NaVsalt
p2268
aVvanilla extract
p2269
atp2270
sV8b57a5
p2271
(VPeppermint Cookie Brownies
p2272
Vhttp://static.food2fork.com/IMG_9203e21b.jpg
p2273
Vhttp://whatsgabycooking.com/peppermint-cookie-brownies/
p2274
(lp2275
g6
ag7
aVunsweetened cocoa powder
p2276
aVsea salt
p2277
aVvanilla extract
p2278
ag20
ag8
aS'cookies'
p2279
ag601
atp2280
sVd64e7f
p2281
(Vchocolate caramel crack(ers)
p2282
Vhttp://static.food2fork.com/3426632141_04a9bbdc6fb6e0.jpg
p2283
Vhttp://smittenkitchen.com/blog/2009/04/chocolate-caramel-crackers/
p2284
(lp2285
g562
ag6
ag7
aVbig sea salt
p2286
aVpure vanilla extract
p2287
ag11
aVtoasted almond
p2288
aVextra sea salt sprinkling
p2289
atp2290
sV1daa21
p2291
(VPumpkin Toffee Chocolate Chip Muffins
p2292
Vhttp://static.food2fork.com/PumpkinToffeeChocolateChipMuffins18cc2.jpg
p2293
Vhttp://www.twopeasandtheirpod.com/pumpkin-toffee-chocolate-chip-muffins/
p2294
(lp2295
Nag8
aVcinnamon
p2296
aVginger
p2297
aVnutmeg
p2298
aVbaking soda
p2299
aVsalt
p2300
aVpumpkin puree
p2301
ag7
aVcanola oil
p2302
ag20
aVvanilla extract
p2303
aVtoffee bit
p2304
ag11
ag6
atp2305
sV6a4f65
p2306
(VEasy Banana Cake with Peanut Butter Frosting
p2307
Vhttp://static.food2fork.com/BananaCakewithPeanutButterFrosting5553d.jpg
p2308
Vhttp://www.twopeasandtheirpod.com/easy-banana-cake-with-peanut-butter-frosting/
p2309
(lp2310
Nag8
aVbaking soda
p2311
aVsalt
p2312
ag6
ag7
ag20
ag359
aVvanilla extract
p2313
ag299
ag80
ag164
atp2314
sV508f3d
p2315
(VChocolate Chip Cookies
p2316
Vhttp://static.food2fork.com/chocolate_chip_cookies11061.jpg
p2317
Vhttp://www.elanaspantry.com/chocolate-chip-cookies/
p2318
(lp2319
g8
aVceltic sea salt
p2320
aVbaking soda
p2321
ag6
aVvanilla extract
p2322
aVagave nectar
p2323
aVchocolate drop
p2324
atp2325
sVb4010a
p2326
(VBrown Butter Buttermilk Syrup
p2327
Vhttp://static.food2fork.com/BrownButterButtermilkSyrup6c8a1.jpg
p2328
Vhttp://www.twopeasandtheirpod.com/brown-butter-buttermilk-syrup/
p2329
(lp2330
g6
ag7
aVbuttermilk
p2331
aVbaking soda
p2332
aVvanilla extract
p2333
atp2334
sV36830
p2335
(VRice Pudding
p2336
Vhttp://static.food2fork.com/ricepudding520300x2008b35f906.jpg
p2337
Vhttp://www.simplyrecipes.com/recipes/rice_pudding/
p2338
(lp2339
g164
ag1089
aVsalt
p2340
ag20
ag7
aVvanilla extract
p2341
aVcinnamon
p2342
aVraisin
p2343
atp2344
sV36785
p2345
(VPumpkin Cheesecake
p2346
Vhttp://static.food2fork.com/pumpkincheesecake1300x20028c71729.jpg
p2347
Vhttp://www.simplyrecipes.com/recipes/pumpkin_cheesecake/
p2348
(lp2349
Vpecan
p2350
ag8
ag7
ag562
ag6
ag20
aV-ounce cream cheese
p2351
aVcinnamon
p2352
aVginger
p2353
aVnutmeg
p2354
aVallspice
p2355
aVsalt
p2356
aVvanilla extract
p2357
aV-ounce pumpkin puree*
p2358
aS'bourbon whiskey'
p2359
aV-inch diameter
p2360
atp2361
sV47082
p2362
(VDreamy Apple Pie
p2363
Vhttp://static.food2fork.com/5175380067_3389e85a93_z100f.jpg
p2364
Vhttp://thepioneerwoman.com/cooking/2010/11/dreamy-apple-pie/
p2365
(lp2366
Vunbaked pie crust
p2367
aVfilling
p2368
ag238
ag7
ag8
aVheavy cream
p2369
aVvanilla extract
p2370
aVcinnamon
p2371
aVtopping
p2372
ag6
aVpecan
p2373
aVsalt
p2374
atp2375
sV12221
p2376
(VEasy Morning Glory Muffins
p2377
Vhttp://static.food2fork.com/1626252173.jpg
p2378
Vhttp://allrecipes.com/Recipe/Easy-Morning-Glory-Muffins/Detail.aspx
p2379
(lp2380
g8
ag7
aVbaking soda
p2381
aVcinnamon
p2382
aVsalt
p2383
ag864
aVraisin
p2384
aVwalnut
p2385
aVunsweetened flaked coconut
p2386
ag238
ag20
aVvegetable oil
p2387
aVvanilla extract
p2388
atp2389
sV54416
p2390
(VRed Velvet Crinkle Cookies
p2391
Vhttp://static.food2fork.com/redvelvetcrinklecookies6b61.jpg
p2392
Vhttp://www.twopeasandtheirpod.com/red-velvet-crinkle-cookies/
p2393
(lp2394
g496
ag8
ag20
aVcanola oil
p2395
aVvanilla extract
p2396
ag7
ag2279
atp2397
sV54413
p2398
(VChocolate Dutch Baby
p2399
Vhttp://static.food2fork.com/chocolatedutchbaby2cc2.jpg
p2400
Vhttp://www.twopeasandtheirpod.com/chocolate-dutch-baby/
p2401
(lp2402
g164
ag20
ag8
aVunsweetened cocoa powder
p2403
aVcoarse salt
p2404
aVvanilla extract
p2405
ag7
ag6
aVstrawberry
p2406
atp2407
sV54411
p2408
(VApple Cinnamon Crumb Muffins
p2409
Vhttp://static.food2fork.com/applecinnamoncrumbmuffins16af.jpg
p2410
Vhttp://www.twopeasandtheirpod.com/apple-cinnamon-crumb-muffins/
p2411
(lp2412
g8
ag7
aVbaking soda
p2413
aVsalt
p2414
aVcinnamon
p2415
aVall-spice
p2416
aVbuttermilk
p2417
aVcanola oil
p2418
ag20
aVvanilla extract
p2419
ag238
aNag6
atp2420
sV839262
p2421
(VRice Pudding
p2422
Vhttp://static.food2fork.com/DSC_80673314.jpg
p2423
Vhttp://thepioneerwoman.com/cooking/2014/11/rice-pudding/
p2424
(lp2425
Vraisin
p2426
ag2359
ag171
aNag164
aVheavy cream
p2427
ag6
aVsalt
p2428
aVcinnamon
p2429
aVnutmeg
p2430
aVvanilla extract
p2431
ag20
aVcaramel-pecan sauce
p2432
ag7
ag154
aVpecan
p2433
atp2434
sV8de30d
p2435
(VRaspberry Bakewell cake
p2436
Vhttp://static.food2fork.com/11695_MEDIUM90e6.jpg
p2437
Vhttp://www.bbcgoodfood.com/recipes/11695/raspberry-bakewell-cake
p2438
(lp2439
Valmond
p2440
ag6
ag7
ag8
ag20
aVvanilla extract
p2441
aVraspberry
p2442
aVflaked almond
p2443
atp2444
sV47104
p2445
(VDecorated Brownie Bites
p2446
Vhttp://static.food2fork.com/4966611828_a6ef35083f_o63eb.jpg
p2447
Vhttp://thepioneerwoman.com/cooking/2010/09/pretty-little-brownie-bites/
p2448
(lp2449
NaV-ounce square unsweetened chocolate
p2450
ag6
ag7
ag20
aVvanilla extract
p2451
ag8
ag164
aVsemi-sweet chocolate chunk
p2452
aV-ounce square semi-sweet chocolate
p2453
aVcream
p2454
ag154
atp2455
sV2c6c09
p2456
(VRaspberry White Chocolate&nbsp;Scones - Home - Pastry Affair
p2457
Vhttp://static.food2fork.com/8347362529_d889961ddd_bf98a.jpg
p2458
Vhttp://www.pastryaffair.com/blog/raspberry-white-chocolate-scones.html
p2459
(lp2460
g8
ag7
aVbaking powder
p2461
aVsalt
p2462
ag6
aVraspberry
p2463
ag11
ag20
aVvanilla extract
p2464
aVheavy cream
p2465
atp2466
sV30791
p2467
(VStrawberry Oatmeal Breakfast Smoothie
p2468
Vhttp://static.food2fork.com/409456251d.jpg
p2469
Vhttp://allrecipes.com/Recipe/Strawberry-Oatmeal-Breakfast-Smoothie/Detail.aspx
p2470
(lp2471
g164
aVrolled oat
p2472
ag299
aVstrawberry
p2473
aVvanilla extract
p2474
ag7
atp2475
sV49408
p2476
(VBanana Cream Pie with Salty Bourbon Caramel
p2477
Vhttp://static.food2fork.com/bananacreampiewithsaltybourboncaramel646af0f.jpg
p2478
Vhttp://www.bonappetit.com/recipes/2012/02/banana-cream-pie-with-salty-bourbon-caramel
p2479
(lp2480
Vunsalted
p2481
ag8
aVkosher salt
p2482
aVbaking soda
p2483
ag7
ag6
ag20
aVvanilla extract
p2484
ag164
aVheavy cream
p2485
aVcornstarch
p2486
ag2359
ag154
ag299
atp2487
sVb45149
p2488
(VMy Favorite Doctored Up Cake Mix Recipe
p2489
Vhttp://static.food2fork.com/HeathCupcakes11of1d771.jpg
p2490
Vhttp://www.mybakingaddiction.com/doctored-up-cake-mix-recipe/
p2491
(lp2492
g496
aVinstant chocolate pudding mix
p2493
aVsour cream
p2494
aVvegetable oil
p2495
ag20
aVpure vanilla extract
p2496
atp2497
sVaea246
p2498
(VFresh Strawberry Yogurt Cake
p2499
Vhttp://static.food2fork.com/DSC05423180x1809c1b.jpg
p2500
Vhttp://www.aspicyperspective.com/2010/05/farmstand-fresh.html
p2501
(lp2502
g6
ag7
ag20
ag31
ag8
aVbaking soda
p2503
aVsalt
p2504
aVplain vanilla
p2505
aVstrawberry
p2506
atp2507
sV448eeb
p2508
(VSkillet Chocolate Chip Cookie
p2509
Vhttp://static.food2fork.com/ChocolateChipSkilletCookie3f5ae.jpg
p2510
Vhttp://www.twopeasandtheirpod.com/skillet-chocolate-chip-cookie/
p2511
(lp2512
g6
ag7
ag20
aVvanilla extract
p2513
ag8
aVcornstarch
p2514
aVbaking soda
p2515
aVsea salt
p2516
ag11
aVsprinkle
p2517
atp2518
sVe39a8d
p2519
(VBrown Butter Maple Granola
p2520
Vhttp://static.food2fork.com/BrownButterMapleGranola39c8c.jpg
p2521
Vhttp://www.twopeasandtheirpod.com/brown-butter-maple-granola/
p2522
(lp2523
Vold-fashioned oat
p2524
aVsweetened coconut
p2525
aValmond
p2526
aVpecan
p2527
ag7
aVcinnamon
p2528
aVsea salt
p2529
ag6
aVpure maple syrup
p2530
aVvanilla extract
p2531
aVcranberry
p2532
atp2533
sV36647
p2534
(VOatmeal Raisin Cookies
p2535
Vhttp://static.food2fork.com/oatmealraisincookiesa300x2002a1966b2.jpg
p2536
Vhttp://www.simplyrecipes.com/recipes/oatmeal_raisin_cookies/
p2537
(lp2538
g6
ag7
ag8
aVsalt
p2539
aVbaking soda
p2540
aVnutmeg
p2541
aVcinnamon
p2542
ag20
aVvanilla
p2543
aVrolled oat use quaker quick old fashioned not use instant
p2544
aVraisin
p2545
aVwalnut
p2546
atp2547
sVa792d4
p2548
(VChocolate Shortbread Heart Cookies
p2549
Vhttp://static.food2fork.com/ChocolateShortbreadHeartCookies75440.jpg
p2550
Vhttp://www.twopeasandtheirpod.com/chocolate-shortbread-heart-cookies/
p2551
(lp2552
g8
ag212
aVsalt
p2553
ag7
ag6
aVvanilla extract
p2554
ag11
aVsprinkle
p2555
atp2556
sV19928
p2557
(VPeanut Butter Cup Cookies
p2558
Vhttp://static.food2fork.com/271187cccf.jpg
p2559
Vhttp://allrecipes.com/Recipe/Peanut-Butter-Cup-Cookies/Detail.aspx
p2560
(lp2561
g8
aVsalt
p2562
aVbaking soda
p2563
ag6
ag7
ag80
ag20
aVvanilla extract
p2564
ag164
atp2565
sVb94039
p2566
(VNutty White-Chocolate Blondies Recipe
p2567
Vhttp://static.food2fork.com/12131_blondies_600425f.jpg
p2568
Vhttp://www.chow.com/recipes/12131-nutty-white-chocolate-blondies
p2569
(lp2570
g6
ag7
aVvanilla extract
p2571
aVkosher salt
p2572
aVbaking powder
p2573
ag20
ag8
ag80
ag11
atp2574
sV54341
p2575
(VBanana Pudding Cookies
p2576
Vhttp://static.food2fork.com/BananaPuddingCookies4f142.jpg
p2577
Vhttp://www.twopeasandtheirpod.com/banana-pudding-cookies/
p2578
(lp2579
g6
ag7
ag299
ag20
aVvanilla extract
p2580
ag8
aVbaking soda
p2581
aVsalt
p2582
aVvanilla wafer cooky
p2583
ag11
atp2584
sV6868
p2585
(VChewy Chocolate Chip Oatmeal Cookies
p2586
Vhttp://static.food2fork.com/508714d505.jpg
p2587
Vhttp://allrecipes.com/Recipe/Chewy-Chocolate-Chip-Oatmeal-Cookies/Detail.aspx
p2588
(lp2589
g6
ag7
ag20
aVvanilla extract
p2590
ag8
aVbaking soda
p2591
aVsalt
p2592
aVquick-cooking oat
p2593
aVwalnut
p2594
ag11
atp2595
sV54346
p2596
(VNo-Bake Peanut Butter Pretzel Chocolate Chip Granola Bars
p2597
Vhttp://static.food2fork.com/nobakepeanutbutterpretzelchocolatechipgranolabars436b7.jpg
p2598
Vhttp://www.twopeasandtheirpod.com/no-bake-peanut-butter-pretzel-chocolate-chip-granola-bars/
p2599
(lp2600
g6
ag7
aVhoney
p2601
ag80
aVvanilla extract
p2602
aVquick oat
p2603
ag171
aVpretzel
p2604
ag11
atp2605
sV37077
p2606
(VThumbprint Cookies
p2607
Vhttp://static.food2fork.com/thumbprintcookies300x200fcbd041f.jpg
p2608
Vhttp://www.simplyrecipes.com/recipes/thumbprint_cookies/
p2609
(lp2610
g6
ag7
ag20
aVvanilla extract
p2611
aVsalt
p2612
ag8
ag80
aVyour favorite jam
p2613
aVparchment paper
p2614
atp2615
sV06684e
p2616
(VChocolate Chip Cookie Ice Cream Bars
p2617
Vhttp://static.food2fork.com/ChocolateChipCookieIceCreamBars3b5a4.jpg
p2618
Vhttp://www.twopeasandtheirpod.com/chocolate-chip-cookie-ice-cream-bars/
p2619
(lp2620
Nag8
aVsalt
p2621
aVbaking soda
p2622
ag6
ag7
ag20
aVvanilla extract
p2623
ag11
aVsea salt
p2624
aVfudge sauce
p2625
atp2626
sV913de3
p2627
(Vthick, chewy granola bars
p2628
Vhttp://static.food2fork.com/4371314178_dca7b6e3e49d34.jpg
p2629
Vhttp://smittenkitchen.com/blog/2010/02/thick-chewy-granola-bars/
p2630
(lp2631
Vquick rolled oat gluten-free
p2632
ag7
ag8
aVsalt
p2633
aVcinnamon
p2634
ag1549
ag80
aVvanilla extract optional
p2635
ag6
aVhoney
p2636
ag154
aNatp2637
sV54579
p2638
(VPumpkin Nutella Snack Cake
p2639
Vhttp://static.food2fork.com/nutellacake4a75.jpg
p2640
Vhttp://www.twopeasandtheirpod.com/pumpkin-nutella-cake/
p2641
(lp2642
g8
aVcinnamon
p2643
aVnutmeg
p2644
aVginger
p2645
aVbaking soda
p2646
aVsalt
p2647
ag6
ag7
ag20
aVvanilla extract
p2648
aVcanned pumpkin puree
p2649
aVnutella
p2650
atp2651
sV46970
p2652
(VBaklava
p2653
Vhttp://static.food2fork.com/bak9e33.jpg
p2654
Vhttp://thepioneerwoman.com/cooking/2011/12/baklava/
p2655
(lp2656
Vphyllo dough
p2657
aVwalnut pecan
p2658
aVcinnamon
p2659
ag6
aVhoney
p2660
aNag7
aVvanilla extract
p2661
atp2662
sV5b407f
p2663
(VChocolate Candied Ginger&nbsp;Biscotti - Home - Pastry Affair
p2664
Vhttp://static.food2fork.com/8566907111_bcf8798e01_b1b2c.jpg
p2665
Vhttp://www.pastryaffair.com/blog/chocolate-candied-ginger-biscotti.html
p2666
(lp2667
g6
ag7
ag20
aVmolasses
p2668
aVvanilla extract
p2669
ag8
aVbaking powder
p2670
aVsalt
p2671
ag11
aVcandied ginger
p2672
aVsemi-sweet chocolate
p2673
atp2674
sVd4eee9
p2675
(VMocha Brownies
p2676
Vhttp://static.food2fork.com/brownies8bf0.jpg
p2677
Vhttp://thepioneerwoman.com/cooking/2013/06/mocha-brownies/
p2678
(lp2679
Nag6
ag7
ag20
aVvanilla extract
p2680
ag8
aVcocoa powder
p2681
aVsalt
p2682
ag982
atp2683
sVaa628d
p2684
(VSymphony Brownies
p2685
Vhttp://static.food2fork.com/SymphonyBrownies8558.jpg
p2686
Vhttp://www.mybakingaddiction.com/symphony-brownies/
p2687
(lp2688
Vunsweetened chocolate coarsely
p2689
ag6
ag7
ag20
aVvanilla extract
p2690
aVkosher salt
p2691
ag8
atp2692
sV1b9141
p2693
(VBanana Granola
p2694
Vhttp://static.food2fork.com/BananaGranola31df7.jpg
p2695
Vhttp://www.twopeasandtheirpod.com/banana-granola/
p2696
(lp2697
Vold fashioned oat gluten-free oat
p2698
aVwalnut
p2699
aVsea salt
p2700
aVcinnamon
p2701
ag299
aVmelted coconut oil
p2702
aVpure maple syrup
p2703
ag7
aVvanilla extract
p2704
ag11
atp2705
sV8f6a81
p2706
(VPeanut Butter Snickers Brownies
p2707
Vhttp://static.food2fork.com/PeanutButterBrownies879f.jpg
p2708
Vhttp://www.mybakingaddiction.com/peanut-butter-brownies-recipe/
p2709
(lp2710
Vunsweetened chocolate coarsely
p2711
ag6
ag7
ag20
aVpure vanilla extract
p2712
aVsalt
p2713
ag8
ag80
atp2714
sVcca5e6
p2715
(VNo Churn Cinnamon Snickerdoodle Ice Cream
p2716
Vhttp://static.food2fork.com/NoChurnCinnamonSnickerdoodleIceCream4e8d0.jpg
p2717
Vhttp://www.twopeasandtheirpod.com/no-churn-cinnamon-snickerdoodle-ice-cream/
p2718
(lp2719
g164
aVpure vanilla extract
p2720
aVcinnamon
p2721
aVheavy cream
p2722
aNaVsnickerdoodle cooky
p2723
aVsugar mixture
p2724
atp2725
sV45a6fe
p2726
(VAlmond Toffee Sea Salt Brownies
p2727
Vhttp://static.food2fork.com/AlmondToffeeSeaSaltBrownies10b23f.jpg
p2728
Vhttp://www.twopeasandtheirpod.com/almond-toffee-sea-salt-brownies/
p2729
(lp2730
g6
ag7
aVdutch-process cocoa
p2731
aVbaking powder
p2732
aVsea salt
p2733
aVvanilla extract
p2734
ag20
ag8
ag11
aVtoffee bit
p2735
aVroughly blue diamond oven roasted sea salt almond
p2736
aVextra sea salt
p2737
atp2738
sV003370
p2739
(VNew York Cheesecake
p2740
Vhttp://static.food2fork.com/2869_MEDIUMf22c.jpg
p2741
Vhttp://www.bbcgoodfood.com/recipes/2869/new-york-cheesecake
p2742
(lp2743
g6
aVdigestive biscuit
p2744
ag7
aVpack philadelphia cheese
p2745
ag8
aVvanilla extract
p2746
ag31
ag20
aVcarton soured cream
p2747
atp2748
sVea7bcc
p2749
(VSilver Dollar Pancakes
p2750
Vhttp://static.food2fork.com/glutenfreepancakesalmondboardcalifornia7b96.jpg
p2751
Vhttp://www.elanaspantry.com/silver-dollar-pancakes/
p2752
(lp2753
g20
aNaVvanilla extract
p2754
aVagave nectar honey
p2755
ag8
aVceltic sea salt
p2756
aVbaking soda
p2757
aVgrapeseed oil
p2758
atp2759
sV6e5646
p2760
(VBreakfast Bars
p2761
Vhttp://static.food2fork.com/breakfast_bars_dsc_0620a630.jpg
p2762
Vhttp://www.elanaspantry.com/breakfast-bars/
p2763
(lp2764
g8
aVceltic sea salt
p2765
aVbaking soda
p2766
aVgrapeseed oil
p2767
aVagave nectar
p2768
aVvanilla extract
p2769
aVunsweetened coconut
p2770
aVpumpkin seed
p2771
aVsunflower seed
p2772
aVblanched slivered almond
p2773
aVraisin
p2774
atp2775
sVc290a9
p2776
(VChocolate Pie
p2777
Vhttp://static.food2fork.com/chocolatepieb23d.jpg
p2778
Vhttp://thepioneerwoman.com/cooking/2014/10/chocolate-pie/
p2779
(lp2780
Vpie crust
p2781
ag7
aVcornstarch
p2782
aVsalt
p2783
ag164
ag20
aNaVvanilla extract
p2784
ag6
aVwhipped cream
p2785
atp2786
sVf49ef6
p2787
(VGingerbread Hot Chocolate
p2788
Vhttp://static.food2fork.com/205xNxgingerbreadhotchocolate5216.jpg.pagespeed.ic.GOXhRUhxXB.jpg
p2789
Vhttp://www.healthy-delicious.com/2013/12/rum-bun-gingerbread-hot-chocolate-recipe/
p2790
(lp2791
g164
ag11
aVmolasses
p2792
aVcocoa powder
p2793
ag7
aVvanilla
p2794
aVcinnamon
p2795
aVginger
p2796
aVnutmeg
p2797
aVsalt
p2798
aVcaptain morgan black spiced rum
p2799
aVserve whipped cream
p2800
aVlukewarm
p2801
aVpacket yeast
p2802
aVkosher salt
p2803
ag20
aVhoney
p2804
ag6
ag8
aVcaptain morgan original spiced rum
p2805
aVraisin
p2806
ag632
atp2807
sV2092
p2808
(VAward-Winning Soft Chocolate Chip Cookies
p2809
Vhttp://static.food2fork.com/693521dc19.jpg
p2810
Vhttp://allrecipes.com/Recipe/Award-Winning-Soft-Chocolate-Chip-Cookies/Detail.aspx
p2811
(lp2812
g8
aVbaking soda
p2813
ag6
ag7
aVinstant vanilla pudding mix
p2814
ag20
aVvanilla extract
p2815
ag11
aVwalnut
p2816
atp2817
sV17746
p2818
(VJanet's Rich Banana Bread
p2819
Vhttp://static.food2fork.com/1717611eb3.jpg
p2820
Vhttp://allrecipes.com/Recipe/Janets-Rich-Banana-Bread/Detail.aspx
p2821
(lp2822
g6
ag7
ag20
aVvanilla extract
p2823
ag8
aVbaking soda
p2824
aVsalt
p2825
aVsour cream
p2826
aVwalnut
p2827
ag299
atp2828
sV803e26
p2829
(VM'hanncha (Snake Cake)
p2830
Vhttp://static.food2fork.com/3614113ae8.jpg
p2831
Vhttp://www.epicurious.com/recipes/food/views/Mhanncha-Snake-Cake-361411
p2832
(lp2833
Valmond
p2834
ag7
aVcinnamon
p2835
aVcardamom
p2836
ag6
ag20
aVorange-flower
p2837
ag632
aVvanilla extract
p2838
aV-inch sheet phyllo dough
p2839
aNaVsliced almond
p2840
atp2841
sV918d41
p2842
(Vpumpkin cinnamon rolls
p2843
Vhttp://static.food2fork.com/8056778926_78fe9ec560d0d1.jpg
p2844
Vhttp://smittenkitchen.com/blog/2012/10/pumpkin-cinnamon-rolls/
p2845
(lp2846
g6
ag164
aVactive dry yeast from -ounce gram envelope yeast
p2847
ag8
ag7
aVtable salt
p2848
aVcinnamon
p2849
aVnutmeg
p2850
aVcardamom
p2851
aVginger
p2852
aVpumpkin puree
p2853
ag20
aVoil coating rising bowl
p2854
aVpacked
p2855
aVcream cheese
p2856
aVfew drop vanilla extract
p2857
aVminute before youre ready bake them
p2858
atp2859
sV275d52
p2860
(VMelting middle truffles
p2861
Vhttp://static.food2fork.com/8272_MEDIUM4704.jpg
p2862
Vhttp://www.bbcgoodfood.com/recipes/8272/melting-middle-truffles
p2863
(lp2864
Vdulce leche caramel toffee
p2865
aVdark chocolate cocoa
p2866
ag164
ag752
aVvanilla extract
p2867
aVabout cocoa powder
p2868
atp2869
sV47074
p2870
(VChristmas Cherries
p2871
Vhttp://static.food2fork.com/5219306274_042550932e_o5730.jpg
p2872
Vhttp://thepioneerwoman.com/cooking/2010/11/christmas-cherries/
p2873
(lp2874
g6
ag7
ag20
aVvanilla extract
p2875
ag31
ag632
ag8
aVcandied green red cherry
p2876
atp2877
sV49033
p2878
(VPeach Dutch Baby Pancake with Cherry Compote
p2879
Vhttp://static.food2fork.com/peachdutchbabypancakewithcherrycompote646b336.jpg
p2880
Vhttp://www.bonappetit.com/recipes/2012/08/peach-dutch-baby-pancake-with-cherry-compote
p2881
(lp2882
Vhoney
p2883
ag31
aNag6
ag20
ag8
ag164
ag7
aVvanilla extract
p2884
aVkosher salt
p2885
ag440
atp2886
sV7c8e0f
p2887
(VSlim Mints Recipe
p2888
Vhttp://static.food2fork.com/28197_slim_mints_3_600db31.jpg
p2889
Vhttp://www.chow.com/recipes/28197-slim-mints
p2890
(lp2891
g20
aVpeppermint oil
p2892
aVvanilla extract
p2893
ag8
ag7
aVunsweetened dutch-process cocoa powder
p2894
aVsalt
p2895
ag6
ag171
aVsemisweet chocolate couverture
p2896
atp2897
sV47707
p2898
(VMadeleines
p2899
Vhttp://static.food2fork.com/madeleinerecipe_076a2d.jpg
p2900
Vhttp://www.101cookbooks.com/archives/madeleines-recipe.html
p2901
(lp2902
g6
ag8
ag20
aVfine-grain sea salt
p2903
ag7
ag31
aVvanilla extract
p2904
aVspecial equipment madeleine baking pan
p2905
aNatp2906
sV75179d
p2907
(VPumpkin French Toast
p2908
Vhttp://static.food2fork.com/PumpkinFrenchToast1d115.jpg
p2909
Vhttp://www.twopeasandtheirpod.com/pumpkin-french-toast/
p2910
(lp2911
g20
ag164
aVpumpkin puree
p2912
ag7
aVvanilla extract
p2913
aVcinnamon
p2914
aNaVpumpkin pie spice
p2915
ag6
ag285
aVmaple syrup
p2916
atp2917
sVd5ae7f
p2918
(Vclassic ice cream sandwiches
p2919
Vhttp://static.food2fork.com/6961536206_aeeb5860df4778.jpg
p2920
Vhttp://smittenkitchen.com/blog/2012/04/classic-ice-cream-sandwiches/
p2921
(lp2922
g8
aVplus extra dark dutch-processed unsweetened cocoa powder
p2923
ag6
ag7
aVtable salt
p2924
ag20
aVvanilla extract
p2925
aVgallon approximately gram
p2926
ag601
atp2927
sV38553
p2928
(VGlazed Lemon Cookies
p2929
Vhttp://static.food2fork.com/makeaheadcookies_300e114a110.jpg
p2930
Vhttp://www.realsimple.com/food-recipes/browse-all-recipes/glazed-lemon-cookies-00000000007540/index.html
p2931
(lp2932
g6
ag7
ag20
aVpure vanilla extract
p2933
aVkosher salt
p2934
ag8
ag31
atp2935
sVf0e119
p2936
(VPaleo Fruitcake
p2937
Vhttp://static.food2fork.com/paleofruitcakeglutenfreerecipeDSC_4329e400.jpg
p2938
Vhttp://www.elanaspantry.com/paleo-fruitcake/
p2939
(lp2940
g8
aVceltic sea salt
p2941
aVbaking soda
p2942
aVdate
p2943
aVraisin
p2944
aVcherry
p2945
aVwalnut
p2946
ag20
aVcoconut oil
p2947
ag7
aVvanilla extract
p2948
ag632
ag31
atp2949
sV576de1
p2950
(VPumpkin Maple Cookies
p2951
Vhttp://static.food2fork.com/PumpkinMapleCookies5998d.jpg
p2952
Vhttp://www.twopeasandtheirpod.com/pumpkin-maple-cookies/
p2953
(lp2954
Nag8
aVbaking soda
p2955
aVpumpkin pie spice
p2956
aVsalt
p2957
ag6
ag7
ag20
aVvanilla extract
p2958
aVpure pumpkin puree
p2959
aVpure maple syrup
p2960
aVold-fashioned oat
p2961
aVmaple extract flavoring
p2962
ag164
atp2963
sV47337
p2964
(VDelicious Chocolate Pie
p2965
Vhttp://static.food2fork.com/2262074186_2f7abc0554_o959c.jpg
p2966
Vhttp://thepioneerwoman.com/cooking/2008/02/the_meal_of_love_part_iv_de-licious_chocolate_pie/
p2967
(lp2968
Nag6
ag7
aVvanilla extract
p2969
ag20
aVbaked pie shell
p2970
atp2971
sVb79506
p2972
(Vgraham crackers
p2973
Vhttp://static.food2fork.com/3573636757_c784326ab63feb.jpg
p2974
Vhttp://smittenkitchen.com/blog/2009/05/graham-crackers/
p2975
(lp2976
g8
ag7
aVbaking soda
p2977
aVkosher coarse sea salt
p2978
ag6
aVmild-flavored honey
p2979
ag164
aVpure vanilla extract
p2980
aNaVcinnamon
p2981
atp2982
sV8fdb5e
p2983
(VPower Bars
p2984
Vhttp://static.food2fork.com/power_baredc6.jpg
p2985
Vhttp://www.elanaspantry.com/power-bars/
p2986
(lp2987
Valmond
p2988
aVgolden flaxmeal
p2989
aVunsweetened coconut
p2990
ag6
aVceltic sea salt
p2991
aVcoconut oil
p2992
aVdrop stevia
p2993
aVagave nectar honey
p2994
aVvanilla extract
p2995
aVchocolate drop
p2996
atp2997
sVc2bb13
p2998
(VHomemade Banana Cream Pie
p2999
Vhttp://static.food2fork.com/205xNxHomemadeBananaCreamPie7778.jpg.pagespeed.ic.zjH5kBtYpG.jpg
p3000
Vhttp://www.healthy-delicious.com/2014/04/homemade-banana-cream-pie-recipe/
p3001
(lp3002
Vvanilla wafer crumb
p3003
ag6
ag7
aVcornstarch
p3004
aVsalt
p3005
ag164
ag20
ag299
aVheavy cream
p3006
aVvanilla extract
p3007
atp3008
sVfd9bc4
p3009
(Vbest chocolate pudding
p3010
Vhttp://static.food2fork.com/2257264280_95c98f62931988.jpg
p3011
Vhttp://smittenkitchen.com/blog/2008/02/best-chocolate-pudding/
p3012
(lp3013
Vcornstarch
p3014
ag7
aVsalt
p3015
ag164
aVsemisweet chocolate
p3016
aVpure vanilla extract
p3017
atp3018
sV0d0807
p3019
(VChocolate courgette cake
p3020
Vhttp://static.food2fork.com/633634_MEDIUM97ac.jpg
p3021
Vhttp://www.bbcgoodfood.com/recipes/633634/chocolate-courgette-cake
p3022
(lp3023
g8
aVcocoa powder
p3024
aVmixed spice
p3025
aVextra virgin olive oil
p3026
ag7
ag20
aVvanilla extract
p3027
aVcourgette measure volume measuring jug
p3028
aVtoasted hazelnut
p3029
aVdark chocolate
p3030
aVdouble cream
p3031
atp3032
sV2794
p3033
(VBanana Cream Pie I
p3034
Vhttp://static.food2fork.com/113053386.jpg
p3035
Vhttp://allrecipes.com/Recipe/Banana-Cream-Pie-I/Detail.aspx
p3036
(lp3037
g7
ag8
aVsalt
p3038
ag164
ag20
ag6
aVvanilla extract
p3039
aVpie crust
p3040
ag299
atp3041
sVbb2c0b
p3042
(VNo Bake Lemon Oreo Cheesecake
p3043
Vhttp://static.food2fork.com/lemonnobakecheesecake6348.jpg
p3044
Vhttp://www.mybakingaddiction.com/no-bake-lemon-oreo-cheesecake/
p3045
(lp3046
g31
aVcream cheese
p3047
aVpure vanilla extract
p3048
atp3049
sV427c7e
p3050
(VIce Cream French Toast
p3051
Vhttp://static.food2fork.com/IceCreamFrenchToast256c1.jpg
p3052
Vhttp://www.twopeasandtheirpod.com/ice-cream-french-toast/
p3053
(lp3054
g171
ag20
aVvanilla extract
p3055
aVcinnamon
p3056
aVpiece texas toast
p3057
aNag6
aVmaple syrup
p3058
aVberry
p3059
atp3060
sV14831
p3061
(VGourmet Sweet Potato Classic
p3062
Vhttp://static.food2fork.com/303240ec6a.jpg
p3063
Vhttp://allrecipes.com/Recipe/Gourmet-Sweet-Potato-Classic/Detail.aspx
p3064
(lp3065
g752
aVsalt
p3066
ag6
ag20
aVvanilla extract
p3067
aVcinnamon
p3068
ag7
aVheavy cream
p3069
ag8
aVpecan
p3070
atp3071
sV37516
p3072
(VTurtle Bars
p3073
Vhttp://static.food2fork.com/turtlebars_3007969f72e.jpg
p3074
Vhttp://www.realsimple.com/food-recipes/browse-all-recipes/turtle-bars-10000001046897/index.html
p3075
(lp3076
g8
ag7
ag6
ag164
ag20
aVpure vanilla extract
p3077
aVpecan
p3078
ag11
aVtoffee-and-chocolate baking piece
p3079
atp3080
sV3944
p3081
(VBlack Bean Brownies
p3082
Vhttp://static.food2fork.com/2445336a7c.jpg
p3083
Vhttp://allrecipes.com/Recipe/Black-Bean-Brownies/Detail.aspx
p3084
(lp3085
g237
ag20
aVvegetable oil
p3086
aVcocoa powder
p3087
aVsalt
p3088
aVvanilla extract
p3089
ag7
ag982
ag164
atp3090
sV47644
p3091
(VWhole Bean Vanilla Cookies
p3092
Vhttp://static.food2fork.com/whole_vanilla_bean_cookiesd0f3.jpg
p3093
Vhttp://www.101cookbooks.com/archives/whole-bean-vanilla-cookies-recipe.html
p3094
(lp3095
g7
ag237
aVsea salt
p3096
ag6
aVvanilla extract
p3097
ag8
atp3098
sV47143
p3099
(VCinnamon Toast - The RIGHT Way
p3100
Vhttp://static.food2fork.com/4552411197_9b159bddb7ff3f.jpg
p3101
Vhttp://thepioneerwoman.com/cooking/2010/04/the-right-way-and-the-wrong-way-to-make-cinnamon-toast/
p3102
(lp3103
g285
ag6
ag7
aVcinnamon
p3104
aVvanilla extract
p3105
aVnutmeg
p3106
atp3107
sVe9fe6c
p3108
(VCrunchy French Toast
p3109
Vhttp://static.food2fork.com/crunchye275.jpg
p3110
Vhttp://thepioneerwoman.com/cooking/2015/06/crunchy-french-toast/
p3111
(lp3112
g20
aVhalf-and-half
p3113
aVvanilla extract
p3114
aVcinnamon
p3115
ag7
ag285
aVpanko breadcrumb
p3116
ag6
atp3117
sV8f8678
p3118
(Vbest cocoa brownies
p3119
Vhttp://static.food2fork.com/4311324727_6f62e705fb64af.jpg
p3120
Vhttp://smittenkitchen.com/blog/2010/01/best-cocoa-brownies/
p3121
(lp3122
g6
ag7
aVplus gram
p3123
aVsalt heaping flaky salt
p3124
aVpure vanilla extract
p3125
ag20
ag8
aVwalnut pecan piece
p3126
atp3127
sV21745
p3128
(VPlaygroup Granola Bars
p3129
Vhttp://static.food2fork.com/125805dabb.jpg
p3130
Vhttp://allrecipes.com/Recipe/Playgroup-Granola-Bars/Detail.aspx
p3131
(lp3132
Vrolled oat
p3133
ag7
aVwheat germ
p3134
aVcinnamon
p3135
ag8
aVraisin
p3136
aVsalt
p3137
aVhoney
p3138
ag20
aVvegetable oil
p3139
aVvanilla extract
p3140
atp3141
sV35740
p3142
(VAwesome Oatmeal Chocolate Chip Cookie
p3143
Vhttp://static.food2fork.com/oatmealchocolatechipcookiea300x200074105da.jpg
p3144
Vhttp://www.simplyrecipes.com/recipes/awesome_oatmeal_chocolate_chip_cookie/
p3145
(lp3146
Vstick
p3147
ag8
aVsalt
p3148
aVbaking soda
p3149
aVcinnamon
p3150
aVnutmeg
p3151
ag7
ag20
aVvanilla extract
p3152
aNag11
aVpecan
p3153
aVsweetened
p3154
aVold fashioned rolled oat quick oat are okay
p3155
atp3156
sV31aea4
p3157
(VChocolate Cookies with Toppings
p3158
Vhttp://static.food2fork.com/cornchowderd4ff.jpg
p3159
Vhttp://thepioneerwoman.com/cooking/2012/11/tomorrows-luscious-scrumptious-recipes/
p3160
(lp3161
g6
ag7
ag20
aVvanilla extract
p3162
ag8
aVcocoa powder
p3163
aVsalt
p3164
aNaVdipping bar
p3165
aVpistachio
p3166
aVtoffee bar
p3167
ag80
ag164
aVsea salt
p3168
aVgrand marnier
p3169
ag982
aVwhipped cream
p3170
ag632
aS'onions'
p3171
aS'bacon'
p3172
aVbell pepper
p3173
ag469
aS'chicken'
p3174
aVhalf-and-half
p3175
aVmonterey jack
p3176
aVpepper jack
p3177
ag285
atp3178
sV54440
p3179
(VChocolate Chip Peppermint Crunch Cookies
p3180
Vhttp://static.food2fork.com/chocolatechippeppermintcrunchcookies22da7.jpg
p3181
Vhttp://www.twopeasandtheirpod.com/chocolate-chip-peppermint-crunch-cookies/
p3182
(lp3183
g496
aVbaking soda
p3184
aVsalt
p3185
ag6
ag7
ag20
aVvanilla extract
p3186
ag11
aVbox peppermint crunch junior mint
p3187
ag660
aVsea salt
p3188
atp3189
sV54448
p3190
(VPumpkin Oatmeal Cookies with Dried Cranberries & Chocolate Chips
p3191
Vhttp://static.food2fork.com/pumpkinoatmealcookies17fb8.jpg
p3192
Vhttp://www.twopeasandtheirpod.com/pumpkin-oatmeal-cookies-with-dried-cranberries-chocolate-chips/
p3193
(lp3194
g8
aVbaking soda
p3195
aVcinnamon
p3196
aVginger
p3197
aVnutmeg
p3198
aVall allspice
p3199
aNaVkosher salt
p3200
ag6
ag7
aVpure pumpkin puree
p3201
ag20
aVvanilla extract
p3202
aVold-fashioned oat
p3203
ag11
aVcranberry
p3204
atp3205
sV54307
p3206
(VApple Cinnamon Crumble
p3207
Vhttp://static.food2fork.com/applecrumble3e47a.jpg
p3208
Vhttp://www.twopeasandtheirpod.com/apple-cinnamon-crumble/
p3209
(lp3210
Vpeeled
p3211
ag31
aVvanilla extract
p3212
ag7
aVcinnamon
p3213
ag8
aNaVold-fashioned oat
p3214
aVsalt
p3215
ag6
atp3216
sV54303
p3217
(VWhite Chocolate Peppermint M&M Cookies
p3218
Vhttp://static.food2fork.com/WhiteChocolatePeppermintMMCookies533cd.jpg
p3219
Vhttp://www.twopeasandtheirpod.com/white-chocolate-peppermint-mm-cookies/
p3220
(lp3221
g8
aVsalt
p3222
aVbaking soda
p3223
ag6
ag7
ag20
aVvanilla extract
p3224
ag11
ag660
aVwhite chocolate peppermint
p3225
atp3226
sV7b6077
p3227
(Vmy favorite brownies
p3228
Vhttp://static.food2fork.com/7810497752_23b973b33305e3.jpg
p3229
Vhttp://smittenkitchen.com/blog/2012/08/my-favorite-brownies/
p3230
(lp3231
Vunsweetened chocolate
p3232
ag6
ag7
ag20
aVvanilla extract
p3233
aVflaky sea salt table salt
p3234
ag8
atp3235
sVf903fe
p3236
(VHealthy No-Bake Cookies {Vegan & Gluten-Free}
p3237
Vhttp://static.food2fork.com/healthynobakecookies3eb08.jpg
p3238
Vhttp://www.twopeasandtheirpod.com/healthy-no-bake-cookies/
p3239
(lp3240
Vagave nectar
p3241
aVdutch-process cocoa powder
p3242
ag164
aVcoconut oil
p3243
ag6
aVgluten-free oat
p3244
aVcoconut
p3245
aVvanilla extract
p3246
aVsalt
p3247
atp3248
sV35510
p3249
(VQuinoa Porridge with Blueberries and Pecans
p3250
Vhttp://static.food2fork.com/Quinoa2BPorridge2Bwith2BBlueberries2Band2BPecans2B5002B0680625f3dc4.jpg
p3251
Vhttp://www.closetcooking.com/2008/02/quinoa-porridge.html
p3252
(lp3253
Vquinoa
p3254
ag164
aVvanilla extract
p3255
aVcinnamon
p3256
aVmaple syrup
p3257
aVblueberry
p3258
aVpeacans
p3259
atp3260
sV774867
p3261
(VAlmond Meringue Recipe with Raspberry Sorbet
p3262
Vhttp://static.food2fork.com/AlmondMeringueRaspberry02f9.jpg
p3263
Vhttp://www.cookincanuck.com/2013/02/almond-meringue-recipe-with-raspberry-sorbet/
p3264
(lp3265
Vsliced almond
p3266
ag20
aVcream tartar
p3267
ag7
ag31
aVvanilla extract
p3268
aVraspberry sorbet
p3269
atp3270
sV975e33
p3271
(VNo-Bake Chocolate Peanut Butter Pretzel Cookies
p3272
Vhttp://static.food2fork.com/NoBakeChocolatePeanutButterPretzelCookies44147.jpg
p3273
Vhttp://www.twopeasandtheirpod.com/no-bake-chocolate-peanut-butter-pretzel-cookies/
p3274
(lp3275
g6
ag164
ag7
aVunsweetened cocoa
p3276
ag80
aVvanilla extract
p3277
aVold fashioned oat
p3278
aVpretzel
p3279
aVsea salt
p3280
aVnote-you make these gluten-free using gluten-free oat pretzel
p3281
atp3282
sV14606
p3283
(VGlazed Apple Cookies
p3284
Vhttp://static.food2fork.com/22660e7a9.jpg
p3285
Vhttp://allrecipes.com/Recipe/Glazed-Apple-Cookies/Detail.aspx
p3286
(lp3287
g391
ag7
ag20
ag8
aVbaking soda
p3288
aVsalt
p3289
aVcinnamon
p3290
aNaVnutmeg
p3291
aVwalnut
p3292
ag238
aVraisin
p3293
ag164
ag6
aVvanilla extract
p3294
aVhalf-and-half cream
p3295
atp3296
sVe029ca
p3297
(VVintage chocolate chip cookies
p3298
Vhttp://static.food2fork.com/2459643_MEDIUMfb7c.jpg
p3299
Vhttp://www.bbcgoodfood.com/recipes/2459643/vintage-chocolate-chip-cookies
p3300
(lp3301
g6
ag7
aVvanilla extract
p3302
ag20
ag8
aVbicarbonate soda
p3303
aVsalt
p3304
ag11
atp3305
sVc8778f
p3306
(VHoney Bun Cake
p3307
Vhttp://static.food2fork.com/HoneyBunRecipe293e.jpg
p3308
Vhttp://www.mybakingaddiction.com/honey-bun-cake-recipe/
p3309
(lp3310
g496
aVvegetable oil
p3311
ag20
aVsour cream
p3312
aVpure vanilla extract
p3313
ag7
atp3314
sV977082
p3315
(VGood-for-you granola
p3316
Vhttp://static.food2fork.com/1590_MEDIUMab34.jpg
p3317
Vhttp://www.bbcgoodfood.com/recipes/1590/goodforyou-granola
p3318
(lp3319
Vvegetable oil
p3320
aVmaple syrup
p3321
aVhoney
p3322
aVvanilla extract
p3323
aVrolled oat
p3324
aVsunflower seed
p3325
aVsesame seed
p3326
aVpumpkin seed
p3327
aVflaked almond
p3328
aVberry
p3329
aVcoconut flake desiccated coconut
p3330
atp3331
sV38660
p3332
(VBuckeyes
p3333
Vhttp://static.food2fork.com/cookiesbuckeye_3004f21952b.jpg
p3334
Vhttp://www.realsimple.com/food-recipes/browse-all-recipes/buckeyes-00100000069999/index.html
p3335
(lp3336
g80
ag6
ag7
aVpure vanilla extract
p3337
aVkosher salt
p3338
aVbittersweet chocolate
p3339
atp3340
sV10546
p3341
(VCreme Brulee French Toast
p3342
Vhttp://static.food2fork.com/34106bd1.jpg
p3343
Vhttp://allrecipes.com/Recipe/Creme-Brulee-French-Toast/Detail.aspx
p3344
(lp3345
g6
ag7
ag154
ag285
ag20
aVhalf-and-half cream
p3346
aVvanilla extract
p3347
ag632
aVsalt
p3348
atp3349
sV0847ee
p3350
(VMolten Mug Chocolate Cake
p3351
Vhttp://static.food2fork.com/13829_medium53d8.jpg
p3352
Vhttp://www.bbcgoodfood.com/recipes/8047/molten-mug-chocolate-cake
p3353
(lp3354
Vingredient
p3355
ag982
ag496
ag7
aVcocoa
p3356
ag20
ag164
aVoil
p3357
aVsplash vanilla
p3358
ag11
ag80
atp3359
sV37802
p3360
(VGerman Pancake
p3361
Vhttp://static.food2fork.com/germanpancake_3004bccf4fd.jpg
p3362
Vhttp://www.realsimple.com/food-recipes/browse-all-recipes/german-pancake-10000001177727/index.html
p3363
(lp3364
g20
ag8
ag164
aVkosher salt
p3365
aVvanilla extract
p3366
ag6
ag31
ag1549
ag7
atp3367
sV15089
p3368
(VGranny Kat\u2019s Pumpkin Roll
p3369
Vhttp://static.food2fork.com/13618200a4.jpg
p3370
Vhttp://allrecipes.com/Recipe/Granny-Kats-Pumpkin-Roll/Detail.aspx
p3371
(lp3372
g8
ag7
aVbaking soda
p3373
aVpumpkin pie spice
p3374
aVpumpkin puree
p3375
ag20
ag31
aVnbsp
p3376
aVcream cheese
p3377
ag6
aVvanilla extract
p3378
atp3379
sVfe414a
p3380
(VBrown Butter Banana Blondies
p3381
Vhttp://static.food2fork.com/brownbutterbananablondies12cbf7.jpg
p3382
Vhttp://www.healthy-delicious.com/2013/06/brown-butter-banana-blondies/
p3383
(lp3384
g6
ag7
ag20
aVvanilla
p3385
ag8
ag285
aVsalt
p3386
ag299
ag11
atp3387
sV35b520
p3388
(VDelicious Chocolate Pie
p3389
Vhttp://static.food2fork.com/pie2484c.jpg
p3390
Vhttp://thepioneerwoman.com/cooking/2013/09/french-silk-pie-step-by-step/
p3391
(lp3392
Nag6
ag7
aVvanilla extract
p3393
ag20
aVbaked pie shell
p3394
atp3395
sV24217
p3396
(VOatmeal Chocolate Coconut Chewy
p3397
Vhttp://static.food2fork.com/1004266f97d.jpg
p3398
Vhttp://allrecipes.com/Recipe/Oatmeal-Chocolate-Coconut-Chewy/Detail.aspx
p3399
(lp3400
g6
ag7
ag20
ag164
aVvanilla extract
p3401
ag8
aVbaking soda
p3402
aVsalt
p3403
aVrolled oat
p3404
ag11
aVwalnut
p3405
aVcoconut
p3406
atp3407
sVb028d3
p3408
(VBlueberry Coconut Granola Bars
p3409
Vhttp://static.food2fork.com/BlueberryCoconutGranolaBars3473f.jpg
p3410
Vhttp://www.twopeasandtheirpod.com/blueberry-coconut-granola-bars/
p3411
(lp3412
Vold fashioned oat
p3413
ag8
aVcoconut
p3414
ag7
aVkosher salt
p3415
aVblueberry
p3416
aVcoconut oil
p3417
aVhoney
p3418
aVteaspoosn coconut extract
p3419
aVvanilla extract
p3420
atp3421
sV7f5515
p3422
(VHazelnut Granola with Dried Cherries and Dark Chocolate
p3423
Vhttp://static.food2fork.com/HazelnutGranolawithCherriesandDarkChocolate6c876.jpg
p3424
Vhttp://www.twopeasandtheirpod.com/hazelnut-granola-with-dried-cherries-and-dark-chocolate/
p3425
(lp3426
Vold-fashioned oat
p3427
aVroughly hazelnut
p3428
aVsweetened coconut
p3429
aVcinnamon
p3430
aVsea salt
p3431
aVcoconut oil
p3432
aVpure maple syrup
p3433
aVhoney
p3434
aVvanilla extract
p3435
aVhazelnut extract
p3436
aVcherry
p3437
aVdark chocolate
p3438
atp3439
sV3e3792
p3440
(VVanilla Fig Bars
p3441
Vhttp://static.food2fork.com/VanillaFigBars577368b5.jpg
p3442
Vhttp://www.elanaspantry.com/vanilla-fig-bars/
p3443
(lp3444
Vblanched slivered almond
p3445
aVunsweetened coconut
p3446
aVceltic sea salt
p3447
aVdrop vanilla crme stevia
p3448
aVfig
p3449
atp3450
sV47045
p3451
(VSweet Cinnamon Scones
p3452
Vhttp://static.food2fork.com/5525020534_a195290297_o113fa.jpg
p3453
Vhttp://thepioneerwoman.com/cooking/2011/03/sweet-cinnamon-scones/
p3454
(lp3455
g8
ag7
aVbaking powder
p3456
aVcinnamon
p3457
ag6
aVheavy cream
p3458
ag20
aVvanilla extract
p3459
ag11
aVtopping
p3460
atp3461
sV27512
p3462
(VSam's Famous Carrot Cake
p3463
Vhttp://static.food2fork.com/7949869bb4.jpg
p3464
Vhttp://allrecipes.com/Recipe/Sams-Famous-Carrot-Cake/Detail.aspx
p3465
(lp3466
g20
aVbuttermilk
p3467
aVvegetable oil
p3468
ag7
aVvanilla extract
p3469
aVcinnamon
p3470
aVsalt
p3471
ag8
aVbaking soda
p3472
ag864
aVflaked coconut
p3473
aVwalnut
p3474
aVpineapple with juice
p3475
aVraisin
p3476
atp3477
sV9ebcf0
p3478
(VFrosted Strawberry Pop Tarts Recipe
p3479
Vhttp://static.food2fork.com/29470_strawberry_pop_tarts_4_620c498.jpg
p3480
Vhttp://www.chow.com/recipes/29470-frosted-strawberry-pop-tarts
p3481
(lp3482
g8
ag7
aVsalt
p3483
ag6
ag20
ag164
aNag31
aVvanilla extract
p3484
atp3485
sVdd18b3
p3486
(VMake Your Own Ice Cream ConesOn a Panini Press!
p3487
Vhttp://static.food2fork.com/Strawberrryicecreamcone250f41f.jpg
p3488
Vhttp://paninihappy.com/make-your-own-ice-cream-cones-on-a-panini-press/
p3489
(lp3490
Vheavy cream
p3491
aVvanilla extract
p3492
ag7
ag8
aVcinnamon
p3493
aVnutmeg
p3494
aVcornstarch
p3495
atp3496
sV37151
p3497
(VZucchini Bread
p3498
Vhttp://static.food2fork.com/zucchinibreadb300x20088eee4e6.jpg
p3499
Vhttp://www.simplyrecipes.com/recipes/zucchini_bread/
p3500
(lp3501
g20
ag7
aVvanilla
p3502
aVzucchini
p3503
ag6
aVbaking soda
p3504
aVsalt
p3505
ag8
aVnutmeg
p3506
aVcinnamon
p3507
aVpecan walnut
p3508
aVcranberry raisin
p3509
atp3510
sV29425
p3511
(VSopapilla Cheesecake Dessert
p3512
Vhttp://static.food2fork.com/1529617feb.jpg
p3513
Vhttp://allrecipes.com/Recipe/Sopapilla-Cheesecake-Dessert/Detail.aspx
p3514
(lp3515
Vcream cheese
p3516
ag7
aVvanilla extract
p3517
ag142
aVnbsp
p3518
ag6
aVcinnamon
p3519
aVsliced almond
p3520
atp3521
sV37155
p3522
(VZucchini Muffins
p3523
Vhttp://static.food2fork.com/zucchinimuffins300x20031e082ae.jpg
p3524
Vhttp://www.simplyrecipes.com/recipes/zucchini_muffins/
p3525
(lp3526
Vzucchini
p3527
ag6
ag7
ag20
aVvanilla
p3528
aVbaking soda
p3529
aVsalt
p3530
ag8
aVcinnamon
p3531
aVnutmeg
p3532
aVwalnut
p3533
aVraisin cranberry
p3534
atp3535
sV751471
p3536
(VAll Recipes
p3537
Vhttp://static.food2fork.com/saltedpeanutbutterandhoneyicecream270x37230ef.jpg
p3538
Vhttp://cookieandkate.com/2014/salted-peanut-butter-and-honey-ice-cream/
p3539
(lp3540
g164
aVhoney
p3541
aVcreamy
p3542
aVpure vanilla extract
p3543
aVsea salt
p3544
aVarrowroot starch
p3545
aVcayenne pepper
p3546
atp3547
sV20922d
p3548
(VMalted Chocolate Chip Whopper Cookies
p3549
Vhttp://static.food2fork.com/MaltedChocolateChipCookies1797aa.jpg
p3550
Vhttp://www.twopeasandtheirpod.com/malted-chocolate-chip-whoppers-cookies/
p3551
(lp3552
g8
aNag164
aVcornstarch
p3553
aVbaking soda
p3554
aVsea salt
p3555
ag6
ag7
ag20
aVvanilla extract
p3556
ag11
ag660
atp3557
sVcc7f3a
p3558
(VBaked Peach Almond Oatmeal
p3559
Vhttp://static.food2fork.com/BakedPeachAlmondOatmeal6196c.jpg
p3560
Vhttp://www.twopeasandtheirpod.com/baked-peach-almond-oatmeal/
p3561
(lp3562
Vrolled oat
p3563
ag7
aVsalt
p3564
aVbaking powder
p3565
aVcinnamon
p3566
aValmond
p3567
ag164
ag20
aVcoconut oil
p3568
aVvanilla extract
p3569
aValmond extract
p3570
ag440
atp3571
sV47662
p3572
(VChocolate Loaf Cake
p3573
Vhttp://static.food2fork.com/chocolate_loaf_cake_recipe414c.jpg
p3574
Vhttp://www.101cookbooks.com/archives/chocolate-loaf-cake-recipe.html
p3575
(lp3576
g31
ag8
aVbaking soda
p3577
aVsea salt
p3578
ag6
ag7
ag20
aVvanilla extract
p3579
aVbittersweet chocolate
p3580
aVplus boiling
p3581
atp3582
sV9bba9f
p3583
(VDark Chocolate Brownies
p3584
Vhttp://static.food2fork.com/brownies89ae.jpg
p3585
Vhttp://thepioneerwoman.com/cooking/2014/01/dark-chocolate-brownies/
p3586
(lp3587
g6
aNaVunsweetened cocoa powder
p3588
ag7
aVvanilla
p3589
ag20
ag8
ag11
atp3590
sVd2927b
p3591
(VCHOW's Intense Brownies Recipe
p3592
Vhttp://static.food2fork.com/chocolate_brownie_60007a6.jpg
p3593
Vhttp://www.chow.com/recipes/10451-chows-intense-brownies
p3594
(lp3595
Vbittersweet chocolate
p3596
ag6
ag20
ag7
aVunsweetened cocoa powder
p3597
aVvanilla extract
p3598
aVbrewed espresso
p3599
aVplus salt
p3600
ag8
atp3601
sV8c8551
p3602
(VGhirardelli Stuffed Brownie Sundaes
p3603
Vhttp://static.food2fork.com/ghirardellisundaesda7f.jpg
p3604
Vhttp://www.mybakingaddiction.com/ghirardelli-stuffed-brownie-sundaes/
p3605
(lp3606
Vunsweetened chocolate coarsely
p3607
ag6
ag7
ag20
aVpure vanilla extract
p3608
aVsalt
p3609
ag8
atp3610
sV0adaeb
p3611
(VPaleo Breakfast Bread: Video
p3612
Vhttp://static.food2fork.com/paleobreakfastbreadrecipeDSC_5457eca8.jpg
p3613
Vhttp://www.elanaspantry.com/paleo-breakfast-bread/
p3614
(lp3615
g6
ag20
aVhoney
p3616
aVvanilla extract
p3617
aVstevia
p3618
aVceltic sea salt
p3619
aVbaking soda
p3620
aVcinnamon
p3621
atp3622
sV4936
p3623
(VBrownie Chocolate Chip Cheesecake
p3624
Vhttp://static.food2fork.com/988276a571.jpg
p3625
Vhttp://allrecipes.com/Recipe/Brownie-Chocolate-Chip-Cheesecake/Detail.aspx
p3626
(lp3627
Vpillsbury classic traditional fudge brownie
p3628
aVcream cheese
p3629
ag164
ag20
aVvanilla extract
p3630
ag11
atp3631
sV0ee5b8
p3632
(VPaleo Chocolate Frosting
p3633
Vhttp://static.food2fork.com/PaleoChocolateFrostinga58539904.jpg
p3634
Vhttp://www.elanaspantry.com/paleo-chocolate-frosting/
p3635
(lp3636
g11
aVcoconut oil
p3637
aVvanilla extract
p3638
atp3639
sV38083
p3640
(VOld-Fashioned Gingerbread Men
p3641
Vhttp://static.food2fork.com/cookies2_300746f6a49.jpg
p3642
Vhttp://www.realsimple.com/food-recipes/browse-all-recipes/old-fashioned-gingerbread-men-10000001010480/index.html
p3643
(lp3644
g8
aVbaking soda
p3645
aVsalt
p3646
aVginger
p3647
aVcinnamon
p3648
aVnutmeg
p3649
aNag6
ag7
ag20
aVunsulfured molasses
p3650
aVvanilla extract
p3651
atp3652
sV06ece5
p3653
(VCoconut-ice marshmallows
p3654
Vhttp://static.food2fork.com/2852686_MEDIUMa6d4.jpg
p3655
Vhttp://www.bbcgoodfood.com/recipes/2852686/coconutice-marshmallows
p3656
(lp3657
Vdesiccated coconut
p3658
aVsheet gelatine
p3659
ag7
aVliquid glucose
p3660
ag20
aVvanilla extract
p3661
aVmalibu
p3662
aVpink food colouring
p3663
atp3664
sV9430
p3665
(VCool Whipped Frosting
p3666
Vhttp://static.food2fork.com/3916241994.jpg
p3667
Vhttp://allrecipes.com/Recipe/Cool-Whipped-Frosting/Detail.aspx
p3668
(lp3669
Vcontainer whipped topping
p3670
aVinstant vanilla pudding mix
p3671
ag164
aVvanilla extract
p3672
atp3673
sV48236
p3674
(VNutella Bread Pudding Recipe
p3675
Vhttp://static.food2fork.com/NutellaBreadPuddingRecipe200x150ed86.jpg
p3676
Vhttp://www.steamykitchen.com/19406-nutella-bread-pudding-recipe.html
p3677
(lp3678
Vcroissant preferably day old
p3679
aVnutella
p3680
aVpecan
p3681
ag20
aVheavy cream
p3682
aVvanilla extract
p3683
aVsalt
p3684
ag7
atp3685
sVe9caf1
p3686
(VEasy Cinnamon Roll Knots
p3687
Vhttp://static.food2fork.com/CinnamonRollKnots34fe0.jpg
p3688
Vhttp://www.twopeasandtheirpod.com/easy-cinnamon-roll-knots/
p3689
(lp3690
NaVpizza dough
p3691
aVhomemade
p3692
ag6
ag7
aVcinnamon
p3693
aVcream cheese
p3694
ag164
aVvanilla extract
p3695
atp3696
sV54471
p3697
(VGooey Cinnamon Biscuits
p3698
Vhttp://static.food2fork.com/cinnamonbiscuits6fcca.jpg
p3699
Vhttp://www.twopeasandtheirpod.com/gooey-cinnamon-biscuits/
p3700
(lp3701
g8
ag7
aVbaking powder
p3702
aVcinnamon
p3703
aVsalt
p3704
aVheavy cream
p3705
ag11
aVvanilla extract
p3706
atp3707
sV238d64
p3708
(VButtermilk scones
p3709
Vhttp://static.food2fork.com/518627_MEDIUM78d0.jpg
p3710
Vhttp://www.bbcgoodfood.com/recipes/518627/buttermilk-scones
p3711
(lp3712
g8
aVsalt
p3713
ag6
ag7
ag752
aVvanilla extract
p3714
ag164
atp3715
sV287295
p3716
(VCinnamon Raisin Baked French Toast
p3717
Vhttp://static.food2fork.com/frenchtoast9fc3.jpg
p3718
Vhttp://thepioneerwoman.com/cooking/2013/08/cinnamon-raisin-french-toast/
p3719
(lp3720
g285
ag6
ag20
ag164
aVheavy cream
p3721
ag7
aVcinnamon
p3722
aVvanilla extract
p3723
aVtopping
p3724
ag8
aVsalt
p3725
aVraisin
p3726
aVmaple syrup
p3727
atp3728
sV37476
p3729
(VOld-Fashioned Peanut-Butter Cookies
p3730
Vhttp://static.food2fork.com/PeanutButter_3007b4838d3.jpg
p3731
Vhttp://www.realsimple.com/food-recipes/browse-all-recipes/old-fashioned-peanut-butter-cookies-00000000046655/index.html
p3732
(lp3733
g80
ag7
ag20
aVbaking soda
p3734
aVpure vanilla extract
p3735
aVkosher salt
p3736
atp3737
sVc009a7
p3738
(VHow To Make Perfect M and M Cookies
p3739
Vhttp://static.food2fork.com/HowToMakeThePerfectMMCookie1t450x617da4c.jpg
p3740
Vhttp://picky-palate.com/2013/04/03/how-to-make-perfect-m-and-m-cookies/
p3741
(lp3742
g6
ag7
ag20
aVpure vanilla extract
p3743
ag8
aVinstant vanilla pudding mix
p3744
aVbaking soda
p3745
aVkosher salt
p3746
ag11
aVmini
p3747
atp3748
sV1ec6e4
p3749
(Vcrispy chewy chocolate chip cookies
p3750
Vhttp://static.food2fork.com/3304831464_6373d4df341c32.jpg
p3751
Vhttp://smittenkitchen.com/blog/2009/03/crispy-chewy-chocolate-chip-cookies/
p3752
(lp3753
g8
aVbaking soda
p3754
aVsalt
p3755
ag6
ag7
aVvanilla extract
p3756
ag20
ag11
atp3757
sV36003
p3758
(VChocolate Nutella Cookies
p3759
Vhttp://static.food2fork.com/nutellacookies300x2003569dc36.jpg
p3760
Vhttp://www.simplyrecipes.com/recipes/chocolate_nutella_cookies/
p3761
(lp3762
g6
ag7
aVnutella
p3763
aVvanilla
p3764
ag20
aNaVunsweetened cocoa
p3765
aVbaking soda
p3766
aVsalt
p3767
ag11
aVhazelnut
p3768
atp3769
sV5192
p3770
(VButtercream Icing
p3771
Vhttp://static.food2fork.com/96104a30b.jpg
p3772
Vhttp://allrecipes.com/Recipe/Buttercream-Icing/Detail.aspx
p3773
(lp3774
g391
ag6
aVvanilla extract
p3775
ag7
ag164
atp3776
sV52624e
p3777
(Vchocolate-hazelnut macaroon torte
p3778
Vhttp://static.food2fork.com/8578358713_5c9526d9960176.jpg
p3779
Vhttp://smittenkitchen.com/blog/2013/03/chocolate-hazelnut-macaroon-torte/
p3780
(lp3781
g6
ag7
ag20
aVhazelnut
p3782
aVtable salt
p3783
aVvanilla extract**
p3784
aVbittersweet chocolate
p3785
aNag982
aVchilled heavy whipping cream
p3786
aVfrangelico another hazelnut liqueur vanilla extract**
p3787
atp3788
sV36009
p3789
(VChocolate Truffles
p3790
Vhttp://static.food2fork.com/chocolatetrufflesa300x200fefdf91a.jpg
p3791
Vhttp://www.simplyrecipes.com/recipes/chocolate_truffles/
p3792
(lp3793
Vsemi-sweet bittersweet chocolate high quality
p3794
aVheavy whipping cream
p3795
aVvanilla extract
p3796
aVmint leaf bunch
p3797
aVcinnamon
p3798
aVcardamon ( cinnamon stick
p3799
aVamaretto
p3800
aValmond extract
p3801
aVcocoa powder
p3802
aVfinely walnut
p3803
aVfinely almond
p3804
atp3805
sV49392
p3806
(VChocolate-Stout Brownies
p3807
Vhttp://static.food2fork.com/chocolatestoutbrownies646c0d0.jpg
p3808
Vhttp://www.bonappetit.com/recipes/2012/02/chocolate-stout-brownies
p3809
(lp3810
Vstout
p3811
aVsemisweet bittersweet chocolate
p3812
ag6
ag7
ag20
aVvanilla extract
p3813
ag8
aVkosher salt
p3814
atp3815
sV37480
p3816
(VPeanut Butter-Cup Cookies
p3817
Vhttp://static.food2fork.com/hallopeanutcup_3004f16f2cd.jpg
p3818
Vhttp://www.realsimple.com/food-recipes/browse-all-recipes/peanut-butter-cup-cookies-00000000021356/index.html
p3819
(lp3820
g8
aVbaking soda
p3821
aVkosher salt
p3822
ag6
ag7
ag20
aVpure vanilla extract
p3823
ag80
atp3824
sV12215
p3825
(VEasy Mint Chocolate Chip Ice Cream
p3826
Vhttp://static.food2fork.com/81649afd8.jpg
p3827
Vhttp://allrecipes.com/Recipe/Easy-Mint-Chocolate-Chip-Ice-Cream/Detail.aspx
p3828
(lp3829
g164
aVheavy cream
p3830
ag7
aVsalt
p3831
aVvanilla extract
p3832
aVpeppermint extract
p3833
aVdrop green food coloring
p3834
ag11
atp3835
sV807b09
p3836
(VHomemade Vanilla Marshmallows
p3837
Vhttp://static.food2fork.com/Marshmallows7ae2.jpg
p3838
Vhttp://www.mybakingaddiction.com/homemade-marshmallows/
p3839
(lp3840
NaVunflavored gelatin
p3841
ag154
ag7
aV*vanilla extract
p3842
aVcornstarch
p3843
atp3844
sVdd73b7
p3845
(VAll Recipes
p3846
Vhttp://static.food2fork.com/rawveganfudgerecipe5550x3680cfa.jpg
p3847
Vhttp://cookieandkate.com/2011/easy-vegan-fudge-recipe/
p3848
(lp3849
Vcoconut butter*
p3850
ag80
ag299
ag234
aVagave nectar
p3851
aVvanilla extract
p3852
aVcinnamon
p3853
aVsea salt
p3854
atp3855
sV54403
p3856
(VChocolate Mint Oreo Cookies
p3857
Vhttp://static.food2fork.com/chocolatemintoreocookies1e873.jpg
p3858
Vhttp://www.twopeasandtheirpod.com/chocolate-mint-oreo-cookies/
p3859
(lp3860
g8
aVbaking soda
p3861
aVsalt
p3862
aVhershey special dark cocoa
p3863
ag6
ag7
ag20
aVvanilla extract
p3864
ag11
aVcool mint oreo cooky
p3865
atp3866
sV54619
p3867
(VRolo Cookies
p3868
Vhttp://static.food2fork.com/RoloCookieRecipedf9f.jpg
p3869
Vhttp://www.twopeasandtheirpod.com/rolo-cookies/
p3870
(lp3871
g8
aVbaking soda
p3872
aVsalt
p3873
aVcocoa
p3874
ag6
ag7
ag20
aVvanilla extract
p3875
ag24
atp3876
sVc3e11f
p3877
(VNutella Cheesecake Trifles
p3878
Vhttp://static.food2fork.com/NutellaTriflesCherry1399.jpg
p3879
Vhttp://www.mybakingaddiction.com/nutella-cheesecake-trifles/
p3880
(lp3881
Vpan brownie
p3882
aVcream cheese
p3883
aVnutella
p3884
aVpure vanilla extract
p3885
atp3886
sV3be299
p3887
(VPaleo Peanut Butter Patties  Tagalongs
p3888
Vhttp://static.food2fork.com/PaleoPeanutButterPatties0699e7c7.jpg
p3889
Vhttp://www.elanaspantry.com/paleo-peanut-butter-patties-tagalongs/
p3890
(lp3891
g8
aVceltic sea salt
p3892
aVbaking soda
p3893
ag391
aVhoney
p3894
aVvanilla extract
p3895
aVsunbutter
p3896
aVdark chocolate chunk
p3897
atp3898
sV1481cb
p3899
(VPeach Almond Crisp
p3900
Vhttp://static.food2fork.com/PeachAlmondCrisp63f28.jpg
p3901
Vhttp://www.twopeasandtheirpod.com/peach-almond-crisp/
p3902
(lp3903
Nag440
ag8
ag7
ag154
aVvanilla extract
p3904
aVold fashioned oat
p3905
aVsalt
p3906
aVcinnamon
p3907
ag6
aVblue diamond honey roasted cinnamon almond
p3908
ag171
atp3909
sV47112
p3910
(VRaspberry Crisp
p3911
Vhttp://static.food2fork.com/4881171714_69e0f61878_z5389.jpg
p3912
Vhttp://thepioneerwoman.com/cooking/2010/08/raspberry-crisp/
p3913
(lp3914
Vraspberry
p3915
aVcornstarch
p3916
ag7
aVvanilla extract
p3917
ag8
aVoat
p3918
aVpecan
p3919
aVsalt
p3920
ag6
ag171
atp3921
sVb7225c
p3922
(VAll Recipes
p3923
Vhttp://static.food2fork.com/pumpkinoatpancakes463d.jpg
p3924
Vhttp://cookieandkate.com/2013/pumpkin-oat-pancakes/
p3925
(lp3926
Vpumpkin puree
p3927
ag164
aVcoconut oil
p3928
ag31
aVmaple syrup
p3929
aVvanilla extract
p3930
ag20
ag8
aVbaking soda
p3931
aVsalt
p3932
aVcinnamon
p3933
aVginger
p3934
aVnutmeg
p3935
aVallspice
p3936
atp3937
sV11496
p3938
(VDoggie Birthday Cake
p3939
Vhttp://static.food2fork.com/3705578b56.jpg
p3940
Vhttp://allrecipes.com/Recipe/Doggie-Birthday-Cake/Detail.aspx
p3941
(lp3942
g20
ag80
aVcooking oil
p3943
aVvanilla extract
p3944
aVhoney
p3945
ag864
ag8
aVbaking soda
p3946
atp3947
sVb383fe
p3948
(VButterfinger Brownies
p3949
Vhttp://static.food2fork.com/butterfngerbrowniese1ba.jpg
p3950
Vhttp://www.mybakingaddiction.com/butterfinger-brownies/
p3951
(lp3952
Vunsweetened chocolate coarsely
p3953
ag6
ag7
ag20
aVpure vanilla extract
p3954
aVsalt
p3955
ag8
atp3956
sV9fbeb3
p3957
(VPumpkin Blondies
p3958
Vhttp://static.food2fork.com/PumpkinBlondiesJaime26cb5.jpg
p3959
Vhttp://www.mybakingaddiction.com/pumpkin-blondies/
p3960
(lp3961
g8
aVpumpkin pie spice
p3962
aVcinnamon
p3963
aVbaking soda
p3964
aVkosher salt
p3965
ag6
ag7
ag20
aVvanilla extract
p3966
aVpure pumpkin puree
p3967
ag11
atp3968
sV8086
p3969
(VChocolate Chip Pudding Cookies
p3970
Vhttp://static.food2fork.com/5035175284.jpg
p3971
Vhttp://allrecipes.com/Recipe/Chocolate-Chip-Pudding-Cookies/Detail.aspx
p3972
(lp3973
g8
aVbaking soda
p3974
ag6
ag7
aVinstant butterscotch pudding mix
p3975
aVvanilla extract
p3976
ag20
ag11
aVwalnut
p3977
atp3978
sV54ab45
p3979
(VMint Chocolate Chip Cookie Bars
p3980
Vhttp://static.food2fork.com/IMG_1912183c.jpg
p3981
Vhttp://whatsgabycooking.com/mint-chocolate-chip-cookie-bars/
p3982
(lp3983
g6
ag7
ag20
aVvanilla
p3984
ag8
ag212
aVbaking soda
p3985
aVsalt
p3986
ag11
ag601
atp3987
sV717195
p3988
(VPumpkin Granola Bars
p3989
Vhttp://static.food2fork.com/pumpkingranolabars6728.jpg
p3990
Vhttp://www.mybakingaddiction.com/pumpkin-granola-bars/
p3991
(lp3992
Vold fashioned oat
p3993
aVpumpkin pie spice
p3994
aVsalt
p3995
ag7
aVpumpkin puree
p3996
aVapplesauce sweetened unsweetened
p3997
aVhoney
p3998
aVvanilla extract
p3999
aVcranberry
p4000
ag11
aVpecan
p4001
atp4002
sVecc975
p4003
(VAll Recipes
p4004
Vhttp://static.food2fork.com/bananaalmondflaxsmoothie167d9.jpg
p4005
Vhttp://cookieandkate.com/2011/banana-almond-smoothie/
p4006
(lp4007
g299
ag6
aVful flax seed
p4008
ag164
aVdrizzle honey
p4009
aVtiny drop almond extract vanilla extract
p4010
atp4011
sVf2cfd6
p4012
(VBaked French Toast
p4013
Vhttp://static.food2fork.com/bakedfrenchtoastec40.jpg
p4014
Vhttp://thepioneerwoman.com/cooking/2012/08/baked-french-toast/
p4015
(lp4016
Vfrench toast
p4017
ag6
ag285
ag20
ag164
aVheavy cream
p4018
ag7
aVvanilla extract
p4019
aVtopping
p4020
ag8
aVcinnamon
p4021
aVsalt
p4022
aVnutmeg
p4023
aVsyrup
p4024
aVblueberry
p4025
atp4026
sV54279
p4027
(VCannoli Stuffed French Toast
p4028
Vhttp://static.food2fork.com/cannolistuffedfrenchtoast48a37.jpg
p4029
Vhttp://www.twopeasandtheirpod.com/cannoli-stuffed-french-toast/
p4030
(lp4031
Vricotta cheese
p4032
ag7
aVvanilla extract
p4033
ag11
ag20
aVheavy cream
p4034
ag285
ag6
aVpowdered sugar-for serving
p4035
atp4036
sV54278
p4037
(VChocolate Turtle Cookies
p4038
Vhttp://static.food2fork.com/chocolateturtlecookies4569d.jpg
p4039
Vhttp://www.twopeasandtheirpod.com/chocolate-turtle-cookies/
p4040
(lp4041
g8
aVbaking soda
p4042
aVsalt
p4043
ag212
ag6
ag7
ag20
aVvanilla extract
p4044
ag11
aVpecan
p4045
aVcaramel bit caramel
p4046
aVsalted caramel sauce
p4047
aNatp4048
sV3f4dd4
p4049
(VBeetroot brownies
p4050
Vhttp://static.food2fork.com/749700_MEDIUM5f24.jpg
p4051
Vhttp://www.bbcgoodfood.com/recipes/749700/beetroot-brownies
p4052
(lp4053
g234
ag6
aVbar plain chocolate cocoa
p4054
aVvanilla extract
p4055
ag7
ag20
ag8
aVcocoa powder
p4056
atp4057
sV0b65e3
p4058
(VChocolate-Stout Brownies
p4059
Vhttp://static.food2fork.com/3886578192.jpg
p4060
Vhttp://www.epicurious.com/recipes/food/views/Chocolate-Stout-Brownies-388657
p4061
(lp4062
Vstout
p4063
aVsemisweet bittersweet chocolate
p4064
ag6
ag7
ag20
aVvanilla extract
p4065
ag8
aVkosher salt
p4066
atp4067
sV9925
p4068
(VCranberry Pistachio Biscotti
p4069
Vhttp://static.food2fork.com/28097d749.jpg
p4070
Vhttp://allrecipes.com/Recipe/Cranberry-Pistachio-Biscotti/Detail.aspx
p4071
(lp4072
Vlight olive oil
p4073
ag7
aVvanilla extract
p4074
aValmond extract
p4075
ag20
ag8
aVsalt
p4076
aVbaking powder
p4077
aVcranberry
p4078
ag80
atp4079
sV11bdb6
p4080
(VMini Blueberry Galettes
p4081
Vhttp://static.food2fork.com/blueberrye996.jpg
p4082
Vhttp://thepioneerwoman.com/cooking/2014/07/mini-blueberry-galettes/
p4083
(lp4084
Vstorebought pie crust
p4085
aVblueberry
p4086
ag7
aVcornstarch
p4087
ag31
aVvanilla extract
p4088
aVsalt
p4089
ag20
aNaVwhipped cream
p4090
atp4091
sV18647
p4092
(VOvernight Blueberry French Toast
p4093
Vhttp://static.food2fork.com/38151724f8.jpg
p4094
Vhttp://allrecipes.com/Recipe/Overnight-Blueberry-French-Toast/Detail.aspx
p4095
(lp4096
g285
aVcream cheese
p4097
aVblueberry
p4098
ag20
ag164
aVvanilla extract
p4099
aVmaple syrup
p4100
ag7
aVcornstarch
p4101
aNag6
atp4102
sVa5892f
p4103
(VApple Homemade Ice Cream Recipe
p4104
Vhttp://static.food2fork.com/IMG_46991180x18055e7.jpg
p4105
Vhttp://www.aspicyperspective.com/2013/02/homemade-ice-cream-recipe.html
p4106
(lp4107
Vamp
p4108
ag20
ag238
ag7
aVvanilla extract
p4109
aVsalt
p4110
atp4111
sV8e279c
p4112
(VCarrot &amp; cream cheese cupcakes
p4113
Vhttp://static.food2fork.com/470640_MEDIUMe9b0.jpg
p4114
Vhttp://www.bbcgoodfood.com/recipes/470640/carrot-and-cream-cheese-cupcakes
p4115
(lp4116
g7
ag8
aVbicarbonate soda
p4117
aVmixed spice
p4118
ag632
ag20
aVsunflower oil
p4119
ag864
ag6
aVsoft cheese
p4120
aVvanilla extract
p4121
atp4122
sV2849
p4123
(VBanana Oatmeal Bread
p4124
Vhttp://static.food2fork.com/734332c58f.jpg
p4125
Vhttp://allrecipes.com/Recipe/Banana-Oatmeal-Bread/Detail.aspx
p4126
(lp4127
g391
ag7
ag20
aVvanilla extract
p4128
ag8
aVquick cooking oat
p4129
aVbaking soda
p4130
aVsalt
p4131
ag164
aVcinnamon
p4132
ag299
aVraisin
p4133
atp4134
sVe4eb4f
p4135
(VTwix Caramel Cookie Bars
p4136
Vhttp://static.food2fork.com/TwixCaramelCookieBars40757.jpg
p4137
Vhttp://www.twopeasandtheirpod.com/twix-caramel-cookie-bars/
p4138
(lp4139
g8
aVsea salt
p4140
aVbaking soda
p4141
ag6
ag7
ag20
aVvanilla extract
p4142
ag660
ag164
aVsalted caramel sauce
p4143
atp4144
sVfc2a32
p4145
(VWill the Real Fudge Baby Please Stand Up
p4146
Vhttp://static.food2fork.com/fudgebabiesveganrawglutenfreerecipe49e6.jpg
p4147
Vhttp://www.elanaspantry.com/will-the-real-fudge-baby-please-stand-up/
p4148
(lp4149
Vmedjool date
p4150
aVwalnut
p4151
aVcacao powder
p4152
aVvanilla extract
p4153
aVceltic sea salt omit you not like salt much
p4154
atp4155
sV38949
p4156
(VNo-Bake Chocolate, Peanut Butter, and Oatmeal Cookies
p4157
Vhttp://static.food2fork.com/nobakechoco_300a3574aac.jpg
p4158
Vhttp://www.realsimple.com/food-recipes/browse-all-recipes/chocolate-peanut-butter-cookies-00100000069870/index.html
p4159
(lp4160
g6
ag7
aVheavy cream
p4161
aVunsweetened cocoa powder
p4162
ag80
aVpure vanilla extract
p4163
aVold-fashioned rolled oat not quick-cooking
p4164
atp4165
sV54296
p4166
(VGiant Nutella Stuffed Chocolate Chip Cookies
p4167
Vhttp://static.food2fork.com/GiantNutellaStuffedChocolateChipCookies3238e.jpg
p4168
Vhttp://www.twopeasandtheirpod.com/giant-nutella-stuffed-chocolate-chip-cookies/
p4169
(lp4170
g8
aVbaking soda
p4171
aVsea salt
p4172
ag6
ag7
ag20
aVpure vanilla extract
p4173
ag11
aVnutella
p4174
atp4175
sV54359
p4176
(VCherry Almond Cake
p4177
Vhttp://static.food2fork.com/cherryalmondcake1b841.jpg
p4178
Vhttp://www.twopeasandtheirpod.com/cherry-almond-cake/
p4179
(lp4180
g6
ag8
aVbaking powder
p4181
aVsalt
p4182
ag7
ag20
aVbuttermilk
p4183
aVvanilla extract
p4184
aValmond extract
p4185
aVcherry
p4186
aNaValmond paste
p4187
ag164
aVtoasted sliced almond
p4188
atp4189
sV6879
p4190
(VChewy Granola Bars
p4191
Vhttp://static.food2fork.com/974860238a.jpg
p4192
Vhttp://allrecipes.com/Recipe/Chewy-Granola-Bars/Detail.aspx
p4193
(lp4194
Vrolled oat
p4195
ag8
aVbaking soda
p4196
aVvanilla extract
p4197
ag6
aVhoney
p4198
ag7
ag11
atp4199
sV54292
p4200
(VCrunchy Quinoa Granola
p4201
Vhttp://static.food2fork.com/CrunchyQuinoaGranola38b63.jpg
p4202
Vhttp://www.twopeasandtheirpod.com/crunchy-quinoa-granola/
p4203
(lp4204
Vquinoa
p4205
aVrolled oat
p4206
aValmond
p4207
aVpepitas
p4208
aVshaved coconut
p4209
ag7
aVcinnamon
p4210
aVsalt
p4211
aVnatural applesauce
p4212
aVhoney
p4213
aVcoconut oil
p4214
aVvanilla extract
p4215
aVcranberry
p4216
aVraisin
p4217
atp4218
sV54356
p4219
(VBlueberry Peach Crumble
p4220
Vhttp://static.food2fork.com/blueberrypeachcrumble56a9d.jpg
p4221
Vhttp://www.twopeasandtheirpod.com/blueberry-peach-crumble/
p4222
(lp4223
Vblueberry
p4224
ag440
ag31
aVvanilla extract
p4225
ag7
ag8
aNaVold-fashioned oat
p4226
aVsalt
p4227
aVcinnamon
p4228
ag6
atp4229
sV98c380
p4230
(VCoconut Chocolate Chip Ice Cream
p4231
Vhttp://static.food2fork.com/dairyfreecoconutchocolatechipicecreamrecipe633b.jpg
p4232
Vhttp://www.elanaspantry.com/coconut-chocolate-chip-ice-cream/
p4233
(lp4234
g164
ag20
ag7
aVvanilla extract
p4235
aVceltic sea salt
p4236
aVchocolate drop
p4237
atp4238
sV54299
p4239
(VOreo White Chocolate Pudding Cookies
p4240
Vhttp://static.food2fork.com/OreoWhiteChocolatePuddingCookies1fbb5.jpg
p4241
Vhttp://www.twopeasandtheirpod.com/oreo-white-chocolate-pudding-cookies/
p4242
(lp4243
g6
ag7
aVwhite chocolate instant pudding mix
p4244
ag20
aVvanilla extract
p4245
ag8
aVbaking soda
p4246
aVsalt
p4247
aVoreo
p4248
ag11
atp4249
sV54351
p4250
(VChocolate Fudge Zucchini Cookies
p4251
Vhttp://static.food2fork.com/chocolatefudgezucchinicookies538d1.jpg
p4252
Vhttp://www.twopeasandtheirpod.com/chocolate-fudge-zucchini-cookies/
p4253
(lp4254
g8
aVbaking soda
p4255
aVsalt
p4256
ag6
ag212
ag7
ag359
aVvanilla extract
p4257
aVfinely zucchini
p4258
ag11
atp4259
sV54353
p4260
(VPeaches and Cream Stuffed French Toast
p4261
Vhttp://static.food2fork.com/peachesandcreamstuffedfrenchtoast46a71.jpg
p4262
Vhttp://www.twopeasandtheirpod.com/peaches-and-cream-stuffed-french-toast/
p4263
(lp4264
NaVcream cheese
p4265
ag7
aVcinnamon
p4266
aVvanilla extract
p4267
ag440
ag285
ag20
ag164
atp4268
sV13637
p4269
(VFrench Toast Casserole
p4270
Vhttp://static.food2fork.com/4904757f70.jpg
p4271
Vhttp://allrecipes.com/Recipe/French-Toast-Casserole/Detail.aspx
p4272
(lp4273
g285
ag20
ag164
ag7
aVsalt
p4274
aVvanilla extract
p4275
ag145
aVcinnamon
p4276
atp4277
sV25cab8
p4278
(VApple Cake with Cream Cheese Frosting
p4279
Vhttp://static.food2fork.com/AppleCakewithCreamCheeseFrosting88857.jpg
p4280
Vhttp://www.twopeasandtheirpod.com/apple-cake-with-cream-cheese-frosting/
p4281
(lp4282
Nag8
aVbaking soda
p4283
aVcinnamon
p4284
aVsalt
p4285
aVnutmeg
p4286
aVallspice
p4287
ag7
aVcanola vegetable oil
p4288
ag20
aVvanilla extract
p4289
ag238
aVcream cheese
p4290
ag6
atp4291
sV20073
p4292
(VPeanut Butter Sheet Cake
p4293
Vhttp://static.food2fork.com/3311278fdb.jpg
p4294
Vhttp://allrecipes.com/Recipe/Peanut-Butter-Sheet-Cake/Detail.aspx
p4295
(lp4296
g8
ag7
aVbaking soda
p4297
aVsalt
p4298
aNag6
ag80
aVvegetable oil
p4299
ag20
aVbuttermilk
p4300
aVvanilla extract
p4301
aVnbsp
p4302
ag164
aVminiature marshmallow
p4303
atp4304
sVe0037a
p4305
(VBlueberry-Lime Muffins
p4306
Vhttp://static.food2fork.com/BlueberryLimeMuffins21of11bd03.jpg
p4307
Vhttp://www.mybakingaddiction.com/blueberry-lime-muffins-recipe/
p4308
(lp4309
g7
aVzest two lime
p4310
ag8
aVsalt
p4311
aVbaking soda
p4312
ag20
aVvegetable oil
p4313
aVvanilla extract
p4314
aVsour cream
p4315
aVblueberry
p4316
atp4317
sVe9eab4
p4318
(VApple Bread with Brown Butter Glaze
p4319
Vhttp://static.food2fork.com/AppleBreadwithBrownButterGlaze440ff.jpg
p4320
Vhttp://www.twopeasandtheirpod.com/apple-bread-with-brown-butter-glaze/
p4321
(lp4322
Nag6
ag8
aVbaking soda
p4323
aVsalt
p4324
aVcinnamon
p4325
aVallspice
p4326
ag7
ag20
aVapplesauce
p4327
aVvanilla extract
p4328
ag238
ag164
atp4329
sV6845e1
p4330
(VGranola
p4331
Vhttp://static.food2fork.com/granola851d.jpg
p4332
Vhttp://www.elanaspantry.com/granola/
p4333
(lp4334
Valmond
p4335
ag80
aVpumpkin seed
p4336
aVraisin
p4337
aVvanilla extract
p4338
aVcinnamon
p4339
aVceltic sea salt
p4340
atp4341
sV49d5f9
p4342
(VEggnog White Chocolate Streusel Cake
p4343
Vhttp://static.food2fork.com/EggNogWhiteChocolateStreuselCake18857.jpg
p4344
Vhttp://www.twopeasandtheirpod.com/eggnog-white-chocolate-streusel-cake/
p4345
(lp4346
Nag8
aVbaking powder
p4347
aVsalt
p4348
aVcinnamon
p4349
aVnutmeg
p4350
ag6
ag7
ag20
aVeggnog
p4351
aVvanilla extract
p4352
aVrum extract
p4353
ag11
atp4354
sVe5c8d4
p4355
(VSalted Caramel Butterscotch Blondies
p4356
Vhttp://static.food2fork.com/SaltedCaramelButterscotchBlondies144bb.jpg
p4357
Vhttp://www.twopeasandtheirpod.com/salted-caramel-butterscotch-blondies/
p4358
(lp4359
g8
aVbaking soda
p4360
aVsalt
p4361
ag6
ag7
ag20
aVvanilla extract
p4362
ag11
aNaVsalted caramel sauce
p4363
aVsea salt
p4364
atp4365
sV2908aa
p4366
(VCookie Sticks
p4367
Vhttp://static.food2fork.com/cookiesticksandmilk61af.jpg
p4368
Vhttp://www.mybakingaddiction.com/cookie-sticks/
p4369
(lp4370
Vcanola oil
p4371
ag80
ag7
ag20
aVpure vanilla extract
p4372
ag8
aVbaking soda
p4373
aVsalt
p4374
atp4375
sV99904c
p4376
(Vthick, chewy oatmeal raisin cookies
p4377
Vhttp://static.food2fork.com/3293368826_5cf670353bd480.jpg
p4378
Vhttp://smittenkitchen.com/blog/2009/02/thick-chewy-oatmeal-raisin-cookies/
p4379
(lp4380
Vstick
p4381
ag7
ag20
aVvanilla extract
p4382
ag8
aVbaking soda
p4383
aVcinnamon
p4384
aVtable salt often use
p4385
aVrolled oat
p4386
aVraisin
p4387
aVwalnut
p4388
atp4389
sV5fe8b4
p4390
(VBrown Butter Toffee Chocolate Chunk Cookies
p4391
Vhttp://static.food2fork.com/BrownButterToffeeChocolateChunkCookies7cceb.jpg
p4392
Vhttp://www.twopeasandtheirpod.com/brown-butter-toffee-chocolate-chunk-cookies/
p4393
(lp4394
g6
ag7
ag20
aVvanilla extract
p4395
ag8
aVcornstarch
p4396
aVsea salt
p4397
aVbaking soda
p4398
ag11
ag660
aVcoarse sea salt
p4399
atp4400
sVe83452
p4401
(VBerry shortbread cheesecake slice
p4402
Vhttp://static.food2fork.com/681682_MEDIUM2eb0.jpg
p4403
Vhttp://www.bbcgoodfood.com/recipes/681682/berry-shortbread-cheesecake-slice
p4404
(lp4405
Vpack shortbread biscuit
p4406
ag6
aVtub soft cheese
p4407
aVtub crme frache
p4408
aVvanilla extract
p4409
ag7
ag8
ag20
aVseedless raspberry jam
p4410
aVmixed summer berry
p4411
atp4412
sV30453a
p4413
(VChocolate Almond Butter Granola Bites
p4414
Vhttp://static.food2fork.com/chocolatealmondgranolabites1872.jpg
p4415
Vhttp://www.mybakingaddiction.com/chocolate-almond-butter-granola-bites/
p4416
(lp4417
Vhoney
p4418
ag6
aVpure vanilla extract
p4419
aVgranola cereal
p4420
aVold-fashioned rolled oat
p4421
atp4422
sV248ada
p4423
(VBasic biscuit dough
p4424
Vhttp://static.food2fork.com/3468_MEDIUMef8c.jpg
p4425
Vhttp://www.bbcgoodfood.com/recipes/3468/basic-biscuit-dough
p4426
(lp4427
g6
ag7
ag20
aVvanilla extract
p4428
ag8
atp4429
sV60fc58
p4430
(VAll Recipes
p4431
Vhttp://static.food2fork.com/pumpkinpecansconeswithmapleglaze9d22.jpg
p4432
Vhttp://cookieandkate.com/2013/pumpkin-pecan-scones-with-maple-glaze/
p4433
(lp4434
g234
ag8
aVbaking powder
p4435
ag7
aVcinnamon
p4436
aVginger
p4437
aVnutmeg
p4438
aVallspice
p4439
aVsalt
p4440
ag6
aVpumpkin puree
p4441
ag164
aVvanilla extract
p4442
aVsea salt
p4443
aVvanilla
p4444
aVgood maple syrup
p4445
atp4446
sVe201ef
p4447
(VMint Chocolate No Bake Cheesecake
p4448
Vhttp://static.food2fork.com/MintChocolateCheesecake1e46.jpg
p4449
Vhttp://www.mybakingaddiction.com/mint-chocolate-no-bake-cheesecake/
p4450
(lp4451
Vcream cheese
p4452
ag7
aVpure vanilla extract
p4453
aVpure peppermint extract
p4454
aVtub whipped topping
p4455
atp4456
sV52384
p4457
(VBlack-Bottom Peanut Butter Mousse Pie
p4458
Vhttp://static.food2fork.com/mare_black_bottom_peanut_butter_mousse_pie_h5197.jpg
p4459
Vhttp://www.bonappetit.com/recipes/2006/08/black_bottom_peanut_butter_mousse_pie
p4460
(lp4461
Vnonstick vegetable oil spray
p4462
ag562
ag6
ag7
aVnbsp
p4463
ag11
aVplus chilled whipping cream
p4464
ag154
aVvanilla extract
p4465
ag80
atp4466
sV3640
p4467
(VBest Chocolate Chip Cookies
p4468
Vhttp://static.food2fork.com/888218c791.jpg
p4469
Vhttp://allrecipes.com/Recipe/Best-Chocolate-Chip-Cookies/Detail.aspx
p4470
(lp4471
g6
ag7
ag20
aVvanilla extract
p4472
ag8
aVbaking soda
p4473
aNaVsalt
p4474
ag11
aVwalnut
p4475
atp4476
sV992631
p4477
(VThin Mint Brownies
p4478
Vhttp://static.food2fork.com/MintBrownies8573.jpg
p4479
Vhttp://www.mybakingaddiction.com/thin-mint-brownies/
p4480
(lp4481
Vunsweetened chocolate coarsely
p4482
ag6
ag7
ag20
aVpure vanilla extract
p4483
aVpeppermint extract
p4484
aVsalt
p4485
ag8
atp4486
sV233fab
p4487
(VBattenberg cake
p4488
Vhttp://static.food2fork.com/1120657_MEDIUMb72a.jpg
p4489
Vhttp://www.bbcgoodfood.com/recipes/1120657/battenberg-cake
p4490
(lp4491
g6
ag7
ag8
aValmond
p4492
aVbaking powder
p4493
ag20
aVvanilla extract
p4494
aValmond extract
p4495
aVingredient almond sponge
p4496
aVpink food colouring
p4497
aVapricot jam
p4498
aVblock white marzipan
p4499
atp4500
sV587e0f
p4501
(VPrimal Chocolate Chip Cookies
p4502
Vhttp://static.food2fork.com/PrimalChocolateChipCookies57198951.jpg
p4503
Vhttp://www.elanaspantry.com/primal-chocolate-chip-cookies/
p4504
(lp4505
g8
aVceltic sea salt
p4506
aVbaking soda
p4507
ag391
aVhoney
p4508
aVvanilla extract
p4509
aVsemi-sweet chocolate chunk
p4510
atp4511
sV47446
p4512
(VLemon-and-lime icebox pie with a chocolate graham-cracker crust
p4513
Vhttp://static.food2fork.com/lemon_lime_icebox_pie_DSC81598b2cfab2.jpg
p4514
Vhttp://homesicktexan.blogspot.com/2011/07/lemon-and-lime-icebox-pie.html
p4515
(lp4516
g601
ag562
aVcocoa powder
p4517
ag7
aVcinnamon
p4518
aVvanilla extract
p4519
aVkosher salt
p4520
ag6
atp4521
sV31748
p4522
(VSweet Potato Pie I
p4523
Vhttp://static.food2fork.com/6894232ca9.jpg
p4524
Vhttp://allrecipes.com/Recipe/Sweet-Potato-Pie-I/Detail.aspx
p4525
(lp4526
g752
ag6
ag7
ag164
ag20
aVnutmeg
p4527
aVcinnamon
p4528
aVvanilla extract
p4529
aVunbaked pie crust
p4530
atp4531
sV69e93e
p4532
(VPistachio + White Chocolate Biscotti
p4533
Vhttp://static.food2fork.com/biscotti2fc04.jpg
p4534
Vhttp://www.healthy-delicious.com/2013/04/perfect-pairings-pistachio-and-white-chocolate-biscotti/
p4535
(lp4536
Vsalted pistachio
p4537
ag7
ag20
aVvanilla extract
p4538
ag8
aVbaking soda
p4539
ag11
aNatp4540
sV47832
p4541
(VLiquid Nitrogen Ice Cream
p4542
Vhttp://static.food2fork.com/liquid_nitrogen_icecream_recipe26211.jpg
p4543
Vhttp://www.101cookbooks.com/archives/001366.html
p4544
(lp4545
g164
ag237
ag7
aVplus cornstarch
p4546
aVvanilla extract
p4547
atp4548
sV8035
p4549
(VChocolate Chip Cheesecake I
p4550
Vhttp://static.food2fork.com/841255ca6.jpg
p4551
Vhttp://allrecipes.com/Recipe/Chocolate-Chip-Cheesecake-I/Detail.aspx
p4552
(lp4553
g562
ag7
aVunsweetened cocoa powder
p4554
ag6
aVcream cheese
p4555
ag164
ag20
aVvanilla extract
p4556
ag11
ag8
atp4557
sVa0c07e
p4558
(VRaspberry Coconut Cake with Coconut Streusel
p4559
Vhttp://static.food2fork.com/RaspberryCoconutCake47262.jpg
p4560
Vhttp://www.twopeasandtheirpod.com/raspberry-coconut-cake-with-coconut-streusel/
p4561
(lp4562
Nag8
aVbaking powder
p4563
aVsalt
p4564
ag6
ag7
ag20
ag164
aVvanilla extract
p4565
aVcoconut extract
p4566
aVsweetened flaked coconut
p4567
aVraspberry
p4568
atp4569
sV47650
p4570
(VLemony Olive Oil Banana Bread
p4571
Vhttp://static.food2fork.com/lemon_banana_bread_recipe3cab.jpg
p4572
Vhttp://www.101cookbooks.com/archives/lemony-olive-oil-banana-bread-recipe.html
p4573
(lp4574
g8
ag7
aVbaking soda
p4575
aVkosher salt
p4576
aVcoarsely bittersweet chocolate
p4577
aVextra virgin olive oil
p4578
ag20
aVmashed
p4579
aVplain
p4580
ag31
aVvanilla extract
p4581
aNatp4582
sV2471
p4583
(VBaked French Toast
p4584
Vhttp://static.food2fork.com/666041acf.jpg
p4585
Vhttp://allrecipes.com/Recipe/Baked-French-Toast-2/Detail.aspx
p4586
(lp4587
g285
ag20
ag164
aVhalf-and-half cream
p4588
aVvanilla extract
p4589
aVcinnamon
p4590
ag6
ag7
ag154
atp4591
sV8032
p4592
(VChocolate Chip Cheese Ball
p4593
Vhttp://static.food2fork.com/2549540e77.jpg
p4594
Vhttp://allrecipes.com/Recipe/Chocolate-Chip-Cheese-Ball/Detail.aspx
p4595
(lp4596
Vcream cheese
p4597
ag6
ag7
aVvanilla extract
p4598
ag11
aVfinely pecan
p4599
atp4600
sV36693
p4601
(VPavlova
p4602
Vhttp://static.food2fork.com/raspberrypavlova1296x20012c94441.jpg
p4603
Vhttp://www.simplyrecipes.com/recipes/pavlova/
p4604
(lp4605
Vpure vanilla extract
p4606
aS'wine'
p4607
aVcornstarch
p4608
ag7
aNaVsalt
p4609
aVpint berry
p4610
aVwhipped cream topping
p4611
atp4612
sV4767bf
p4613
(VAll Recipes
p4614
Vhttp://static.food2fork.com/bananaoatmuffinsrecipe270x372ffe5.jpg
p4615
Vhttp://cookieandkate.com/2015/healthy-banana-muffins-recipe/
p4616
(lp4617
Vmelted coconut oil extra virgin olive oil
p4618
aVmaple syrup honey
p4619
ag20
ag299
ag164
aVbaking soda
p4620
aVvanilla extract
p4621
aVsalt
p4622
aVcinnamon
p4623
ag8
aVold-fashioned oat
p4624
ag7
atp4625
sV7e26ab
p4626
(Vcashew butter balls
p4627
Vhttp://static.food2fork.com/8291118983_733531907b7cee.jpg
p4628
Vhttp://smittenkitchen.com/blog/2012/12/cashew-butter-balls/
p4629
(lp4630
g234
ag8
aVtable salt
p4631
ag6
ag7
aVvanilla extract
p4632
atp4633
sV15023
p4634
(VGrandma's Peach French Toast
p4635
Vhttp://static.food2fork.com/2662125201.jpg
p4636
Vhttp://allrecipes.com/Recipe/Grandmas-Peach-French-Toast/Detail.aspx
p4637
(lp4638
g7
ag6
aNag440
ag285
ag20
aVvanilla extract
p4639
aVcinnamon
p4640
atp4641
sV76ff07
p4642
(VAll Recipes
p4643
Vhttp://static.food2fork.com/freshminticecream10f6b3.jpg
p4644
Vhttp://cookieandkate.com/2011/light-mint-ice-cream-recipe/
p4645
(lp4646
g164
aVhalf-and-half
p4647
aVmint leaf
p4648
ag7
aVsalt
p4649
ag20
aVreal vanilla extract
p4650
atp4651
sVed9409
p4652
(VGluten-Free Vegan Banana Peanut Butter Chocolate Chip Cookies
p4653
Vhttp://static.food2fork.com/BananaPeanutButterChocolateChipCookies13e87.jpg
p4654
Vhttp://www.twopeasandtheirpod.com/gluten-free-vegan-banana-peanut-butter-chocolate-chip-cookies/
p4655
(lp4656
Nag80
aVcoconut oil
p4657
aVagave nectar
p4658
aVvanilla extract
p4659
aVgluten-free oat
p4660
aVbaking powder
p4661
aVcinnamon
p4662
aVsea salt
p4663
ag11
atp4664
sV38271
p4665
(VHot Chocolate Cake
p4666
Vhttp://static.food2fork.com/hotchocolatecake_3001011b953.jpg
p4667
Vhttp://www.realsimple.com/food-recipes/browse-all-recipes/hot-chocolate-cake-10000001570281/index.html
p4668
(lp4669
g6
ag8
ag7
aVsemisweet chocolate
p4670
ag20
aVvanilla extract
p4671
aVsalt
p4672
aVmini marshmallow
p4673
aVunsweetened cocoa powder
p4674
atp4675
sV2fcfd2
p4676
(VVegan Chocolate Coconut Cookies
p4677
Vhttp://static.food2fork.com/VeganChocolateCoconutCookies54159.jpg
p4678
Vhttp://www.twopeasandtheirpod.com/vegan-chocolate-coconut-cookies/
p4679
(lp4680
g8
aVbaking powder
p4681
aVsea salt
p4682
ag212
aVcoconut oil
p4683
ag7
aVvanilla extract
p4684
aVcoconut extract
p4685
aValmond breeze almondmilk coconutmilk original
p4686
aVsweetened flake coconut
p4687
atp4688
sV18419
p4689
(VOriginal Irish Cream
p4690
Vhttp://static.food2fork.com/74221ee4c.jpg
p4691
Vhttp://allrecipes.com/Recipe/Original-Irish-Cream/Detail.aspx
p4692
(lp4693
Vheavy cream
p4694
ag164
ag2359
ag982
aVchocolate syrup
p4695
aVvanilla extract
p4696
aValmond extract
p4697
atp4698
sV42a677
p4699
(Vpotato chip cookies
p4700
Vhttp://static.food2fork.com/6767377751_752a65deaf675d.jpg
p4701
Vhttp://smittenkitchen.com/blog/2012/01/potato-chip-cookies/
p4702
(lp4703
g6
ag7
aVpure vanilla extract
p4704
aVtable salt optional
p4705
aVtoasted pecan
p4706
ag752
ag8
aVflaked sea salt
p4707
aVsemi- bittersweet chocolate
p4708
atp4709
sVad56ae
p4710
(VChocolate fudge cupcakes
p4711
Vhttp://static.food2fork.com/470642_MEDIUM0800.jpg
p4712
Vhttp://www.bbcgoodfood.com/recipes/470642/chocolate-fudge-cupcakes
p4713
(lp4714
g6
aVplain chocolate
p4715
aVlight
p4716
ag20
aVvanilla extract
p4717
ag8
aVsmarties
p4718
aVdouble cream
p4719
ag7
atp4720
sV66b1bc
p4721
(VChocolate Dipped Toffee Shortbread
p4722
Vhttp://static.food2fork.com/ToffeeShortbread8fccc.jpg
p4723
Vhttp://www.twopeasandtheirpod.com/chocolate-dipped-toffee-shortbread/
p4724
(lp4725
g8
aVsalt
p4726
ag6
ag7
aVvanilla extract
p4727
aVtoffee bit
p4728
ag164
atp4729
sV9caae8
p4730
(VPuerto Rican Pineapple Rum Cake
p4731
Vhttp://static.food2fork.com/511269003236.jpg
p4732
Vhttp://www.epicurious.com/recipes/food/views/Puerto-Rican-Pineapple-Rum-Cake-51126900
p4733
(lp4734
g7
aVdark rum
p4735
ag6
aVpineapple
p4736
ag20
aVpure vanilla extract
p4737
ag8
aVkosher salt
p4738
aVpecan
p4739
ag171
ag496
atp4740
sVd093aa
p4741
(VThe ultimate makeover: Chocolate brownies
p4742
Vhttp://static.food2fork.com/10036_MEDIUM352e.jpg
p4743
Vhttp://www.bbcgoodfood.com/recipes/10036/the-ultimate-makeover-chocolate-brownies
p4744
(lp4745
Vdark chocolate
p4746
ag8
aVcocoa powder
p4747
aVbicarbonate soda
p4748
ag7
ag982
aVvanilla extract
p4749
aVbuttermilk
p4750
ag20
aVmayonnaise used hellman
p4751
atp4752
sV1932
p4753
(VAunt Teen's Creamy Chocolate Fudge
p4754
Vhttp://static.food2fork.com/523066ec56.jpg
p4755
Vhttp://allrecipes.com/Recipe/Aunt-Teens-Creamy-Chocolate-Fudge/Detail.aspx
p4756
(lp4757
Vmarshmallow creme
p4758
ag7
ag164
ag6
aVsalt
p4759
ag11
ag80
aVvanilla extract
p4760
atp4761
sV47158
p4762
(VApple Fritters
p4763
Vhttp://static.food2fork.com/4402493593_31d952d180c057.jpg
p4764
Vhttp://thepioneerwoman.com/cooking/2010/03/apple-fritters/
p4765
(lp4766
Vfritter
p4767
ag8
ag7
aVbaking powder
p4768
aVsalt
p4769
aVcinnamon
p4770
ag20
ag164
aVvanilla extract
p4771
ag6
ag238
aVglaze
p4772
aVvanilla
p4773
atp4774
sVbefd71
p4775
(VFlourless Almond Butter Chocolate Chip Cookies
p4776
Vhttp://static.food2fork.com/FlourlessAlmondButterChocolateChipCookies28bf3.jpg
p4777
Vhttp://www.twopeasandtheirpod.com/flourless-almond-butter-chocolate-chip-cookies/
p4778
(lp4779
g6
ag7
ag20
aVvanilla extract
p4780
aVbaking soda
p4781
aVsea salt
p4782
ag11
aVextra sea salt
p4783
atp4784
sV46950
p4785
(VChocolate Cookies with Toppings
p4786
Vhttp://static.food2fork.com/cookies8724.jpg
p4787
Vhttp://thepioneerwoman.com/cooking/2012/02/chocolate-cookies-with-toppings/
p4788
(lp4789
g6
ag7
ag20
aVvanilla extract
p4790
ag8
aVcocoa powder
p4791
aVsalt
p4792
aNaVdipping bar
p4793
aVpistachio
p4794
aVtoffee bar
p4795
ag80
atp4796
sV42f451
p4797
(VGranny Smith Apple Crisp
p4798
Vhttp://static.food2fork.com/applecrispxylitolglutenfreerecipeDSC_1025261b.jpg
p4799
Vhttp://www.elanaspantry.com/granny-smith-apple-crisp/
p4800
(lp4801
g238
aVxylitol
p4802
ag31
aNaVarrowroot powder
p4803
ag8
aVceltic sea salt
p4804
aVcinnamon
p4805
aVvanilla extract
p4806
aVcoconut oil
p4807
atp4808
sV6be371
p4809
(VRoasted BananaNutella Quick Bread Recipe
p4810
Vhttp://static.food2fork.com/30562_RecipeImage_620x413_roasted_banana_nutella_breade5d9.jpg
p4811
Vhttp://www.chow.com/recipes/30562-roasted-banana-nutella-quick-bread
p4812
(lp4813
g299
aVchocolate-hazelnut spread
p4814
ag8
aVbaking soda
p4815
aVsalt
p4816
aVvegetable oil
p4817
ag7
ag20
aVvanilla extract
p4818
atp4819
sVf83d53
p4820
(VEasy Mini Pumpkin Cinnamon Rolls
p4821
Vhttp://static.food2fork.com/EasyMiniPumpkinCinnamonRolls14d2ad.jpg
p4822
Vhttp://www.twopeasandtheirpod.com/easy-mini-pumpkin-cinnamon-rolls/
p4823
(lp4824
NaVpillsbury crescent recipe creation refrigerated seamless dough sheet
p4825
ag6
ag7
aVcinnamon
p4826
aVcream cheese
p4827
aVvanilla extract
p4828
ag164
atp4829
sV9ea9dd
p4830
(VCoconut Brownies
p4831
Vhttp://static.food2fork.com/CoconutBrownies5f265.jpg
p4832
Vhttp://www.twopeasandtheirpod.com/coconut-brownies/
p4833
(lp4834
g8
aVdutch-process cocoa
p4835
aVbaking powder
p4836
aVsalt
p4837
aVcoconut oil
p4838
ag7
aVvanilla extract
p4839
aVteasoon coconut extract
p4840
ag20
ag11
aVcoconut flake
p4841
atp4842
sV36910
p4843
(VSesame Brittle
p4844
Vhttp://static.food2fork.com/sesamebrittlec300x20015bdff26.jpg
p4845
Vhttp://www.simplyrecipes.com/recipes/sesame_brittle/
p4846
(lp4847
g7
aVhoney
p4848
aVsalt
p4849
aVnutmeg
p4850
aNag234
aVvanilla extract
p4851
ag6
aVbaking soda
p4852
atp4853
sV54436
p4854
(VBaked Eggnog French Toast
p4855
Vhttp://static.food2fork.com/bakedeggnogfrenchtoaste953.jpg
p4856
Vhttp://www.twopeasandtheirpod.com/baked-eggnog-french-toast/
p4857
(lp4858
g285
ag20
aVeggnog
p4859
ag7
aVvanilla extract
p4860
aVnutmeg
p4861
aNag8
aVcinnamon
p4862
aVsalt
p4863
ag6
aVmaple syrup-for serving
p4864
atp4865
sV54439
p4866
(VRed Velvet Cheesecake Cookies
p4867
Vhttp://static.food2fork.com/redvelvetcheesecakecookiesace1.jpg
p4868
Vhttp://www.twopeasandtheirpod.com/red-velvet-cheesecake-cookies/
p4869
(lp4870
Nag496
ag8
ag20
aVcanola oil
p4871
aVvanilla extract
p4872
aVcream cheese
p4873
ag7
ag11
atp4874
sV35868
p4875
(VButternut Squash with Walnuts and Vanilla
p4876
Vhttp://static.food2fork.com/butternutsquashwalnutsvanilla300x200a9dc9f24.jpg
p4877
Vhttp://www.simplyrecipes.com/recipes/butternut_squash_with_walnuts_and_vanilla/
p4878
(lp4879
Vbutternut squash
p4880
aVbay leaf
p4881
aVsalt
p4882
aVheaping walnut
p4883
ag6
aVginger
p4884
aVvanilla extract
p4885
ag31
aVthyme
p4886
aVblack pepper
p4887
atp4888
sV54536
p4889
(VVanilla Pudding Chocolate Chip Cookies
p4890
Vhttp://static.food2fork.com/puddingcookiesfac1.jpg
p4891
Vhttp://www.twopeasandtheirpod.com/vanilla-pudding-chocolate-chip-cookies/
p4892
(lp4893
g6
ag7
aVvanilla instant pudding mix
p4894
ag20
aVvanilla extract
p4895
ag8
aVbaking soda
p4896
aVsalt
p4897
ag11
atp4898
sVad08bf
p4899
(VAll Recipes
p4900
Vhttp://static.food2fork.com/toastedoatmealwithstrawberrychiajamandcoconutwhippedcream2272.jpg
p4901
Vhttp://cookieandkate.com/2014/toasted-oatmeal-strawberry-chia-jam-coconut-whipped-cream/
p4902
(lp4903
g24
aVhoney
p4904
aVchia seed
p4905
ag6
aVrolled oat
p4906
aNag164
aVgenerous kosher sea salt
p4907
aVcinnamon
p4908
aVginger
p4909
aVoptional mix-ins flax seed
p4910
aVvanilla extract
p4911
atp4912
sV88843c
p4913
(VStrawberry Pretzel Salad
p4914
Vhttp://static.food2fork.com/StrawberryPretzelDessertf50d.jpg
p4915
Vhttp://www.mybakingaddiction.com/strawberry-pretzel-dessert/
p4916
(lp4917
Vsalted pretzel
p4918
ag7
ag6
aVcream cheese
p4919
aVpure vanilla extract
p4920
aVcontainer whipped topping
p4921
aVstrawberry flavored gelatin
p4922
aVboiling
p4923
atp4924
sV1e368a
p4925
(VSamoa Popsicles
p4926
Vhttp://static.food2fork.com/SamoaPop1editedd2e7.jpg
p4927
Vhttp://www.mybakingaddiction.com/samoa-popsicles-recipe/
p4928
(lp4929
Vpre-made coconut pudding
p4930
ag164
aVpure vanilla extract
p4931
aVsamoa cooky
p4932
aVmagic shell
p4933
atp4934
sV54319
p4935
(VBiscoff Pumpkin Oatmeal Cookies
p4936
Vhttp://static.food2fork.com/BiscoffPumpkinOatmealCookies5b69f.jpg
p4937
Vhttp://www.twopeasandtheirpod.com/biscoff-pumpkin-oatmeal-cookies/
p4938
(lp4939
g8
aVbaking soda
p4940
aVcinnamon
p4941
aVnutmeg
p4942
aVginger
p4943
aVallspice
p4944
aVsalt
p4945
ag6
ag7
aVpumpkin puree
p4946
aVbiscoff spread
p4947
ag20
aVvanilla extract
p4948
aVold fashioned oat
p4949
atp4950
sV35469
p4951
(VPeppermint White Chocolate Chip Cookies
p4952
Vhttp://static.food2fork.com/Peppermint2BWhite2BChocolate2BChip2BCookies2B5002B955242da3a40.jpg
p4953
Vhttp://www.closetcooking.com/2012/12/peppermint-white-chocolate-chip-cookies.html
p4954
(lp4955
g6
ag7
ag20
aVvanilla extract
p4956
ag8
aVbaking soda
p4957
aVsalt
p4958
ag11
ag660
atp4959
sV35660
p4960
(VTriple Chocolate Pumpkin Pie
p4961
Vhttp://static.food2fork.com/Triple2BChocolate2BPumpkin2BPie2B5002B36377adf55ab.jpg
p4962
Vhttp://www.closetcooking.com/2012/10/triple-chocolate-pumpkin-pie.html
p4963
(lp4964
g562
ag6
ag7
aVcoarse salt
p4965
aVcinnamon
p4966
aVginger
p4967
aVbittersweet chocolate
p4968
aVsemisweet chocolate
p4969
aVsolid-pack pumpkin
p4970
ag164
ag20
aVcornstarch
p4971
aVpure vanilla extract
p4972
aVnutmeg
p4973
aNaVwhipped cream
p4974
atp4975
sVc8709f
p4976
(VEasy Vanilla Pudding Recipe
p4977
Vhttp://static.food2fork.com/27483_easy_vanilla_pudding_620b6a3.jpg
p4978
Vhttp://www.chow.com/recipes/27483-easy-vanilla-pudding
p4979
(lp4980
g7
aVcornstarch
p4981
aVsalt
p4982
ag164
ag20
ag6
aVvanilla extract
p4983
atp4984
sV42afb3
p4985
(VCherry Hand Pies
p4986
Vhttp://static.food2fork.com/CherryHandPies1of11f3a.jpg
p4987
Vhttp://www.mybakingaddiction.com/cherry-hand-pies-recipe/
p4988
(lp4989
Vcornstarch
p4990
aVcherry
p4991
ag7
ag31
aVvanilla extract
p4992
aVkosher salt
p4993
aVpuff pastry*
p4994
ag8
ag20
atp4995
sV18504
p4996
(VOutrageous Chocolate Chip Cookies
p4997
Vhttp://static.food2fork.com/254977e8d.jpg
p4998
Vhttp://allrecipes.com/Recipe/Outrageous-Chocolate-Chip-Cookies/Detail.aspx
p4999
(lp5000
g6
ag7
ag80
aVvanilla extract
p5001
ag20
ag8
aVbaking soda
p5002
aVsalt
p5003
aVrolled oat
p5004
ag11
atp5005
sVef5613
p5006
(VMonster Easter Cookies
p5007
Vhttp://static.food2fork.com/MonsterEasterCookies3t7cba.jpg
p5008
Vhttp://picky-palate.com/2013/03/18/monster-easter-cookies/
p5009
(lp5010
g6
ag7
ag20
aVpure vanilla extract
p5011
ag8
aVbaking soda
p5012
aVkosher salt
p5013
ag80
aVmilky way bunny
p5014
atp5015
sV25630
p5016
(VPumpkin Ginger Cupcakes
p5017
Vhttp://static.food2fork.com/4677396efc.jpg
p5018
Vhttp://allrecipes.com/Recipe/Pumpkin-Ginger-Cupcakes/Detail.aspx
p5019
(lp5020
g8
aVinstant butterscotch pudding mix
p5021
aVbaking soda
p5022
aVsalt
p5023
aVcinnamon
p5024
aVginger
p5025
aVallspice
p5026
aNaVfinely crystallized ginger
p5027
aVnbsp
p5028
ag6
ag7
ag20
aVvanilla extract
p5029
aVpumpkin puree
p5030
atp5031
sVa4919f
p5032
(VBanana and Fromage Blanc Grilled Cheese Recipe
p5033
Vhttp://static.food2fork.com/11103_banana_fromage_chese_sandwich_6008584.jpg
p5034
Vhttp://www.chow.com/recipes/11103-banana-and-fromage-blanc-grilled-cheese
p5035
(lp5036
Vfromage blanc
p5037
ag299
aVvanilla extract
p5038
ag7
ag6
aV-inch-thick
p5039
atp5040
sV3607
p5041
(VBest Big, Fat, Chewy Chocolate Chip Cookie
p5042
Vhttp://static.food2fork.com/596220f796.jpg
p5043
Vhttp://allrecipes.com/Recipe/Best-Big-Fat-Chewy-Chocolate-Chip-Cookie/Detail.aspx
p5044
(lp5045
g8
aVbaking soda
p5046
aVsalt
p5047
ag6
ag7
aVvanilla extract
p5048
ag20
ag11
atp5049
sV0695a0
p5050
(VCarrot Cake Oatmeal Cookies with Cream Cheese Glaze
p5051
Vhttp://static.food2fork.com/CarrotCakeOatmealCookieswithCreamCheeseGlaze20bb7.jpg
p5052
Vhttp://www.twopeasandtheirpod.com/carrot-cake-oatmeal-cookies-with-cream-cheese-glaze/
p5053
(lp5054
Nag8
aVbaking soda
p5055
aVsalt
p5056
aVcinnamon
p5057
aVnutmeg
p5058
aVcoconut oil
p5059
ag7
ag20
aVvanilla extract
p5060
ag864
aVold fashioned oat
p5061
aVsweetened coconut flake
p5062
aVraisin
p5063
aVcream cheese
p5064
ag164
aVpure vanilla extract
p5065
atp5066
sVfc0f19
p5067
(Vsalted caramel brownies
p5068
Vhttp://static.food2fork.com/8452566415_fab87d715280b3.jpg
p5069
Vhttp://smittenkitchen.com/blog/2013/02/salted-caramel-brownies/
p5070
(lp5071
g7
ag6
aVheaped flaky sea salt table salt
p5072
aVheavy cream
p5073
aVunsweetened chocolate
p5074
ag20
aVvanilla extract
p5075
ag8
atp5076
sV2cef01
p5077
(VAll Recipes
p5078
Vhttp://static.food2fork.com/healthymaplepumpkinmuffinsbdc6.jpg
p5079
Vhttp://cookieandkate.com/2014/healthy-maple-pumpkin-muffins/
p5080
(lp5081
Vmelted coconut oil extra virgin olive oil
p5082
aVmaple syrup honey
p5083
aVeggs*
p5084
aVpumpkin pure
p5085
ag164
aVbaking soda
p5086
aVvanilla extract
p5087
aVsalt
p5088
aVcinnamon
p5089
aVginger
p5090
aVnutmeg
p5091
aVallspice
p5092
ag8
aVold-fashioned oat
p5093
atp5094
sV54365
p5095
(VRed, White & Blue Funfetti Sandwich Cookies
p5096
Vhttp://static.food2fork.com/redwhiteandbluefunfettisandwichcookies3acac.jpg
p5097
Vhttp://www.twopeasandtheirpod.com/red-white-blue-funfetti-sandwich-cookies/
p5098
(lp5099
g6
ag7
aVvanilla extract
p5100
aValmond extract
p5101
ag20
ag8
aVcornstarch
p5102
aVbaking soda
p5103
aVsalt
p5104
aVred
p5105
aNaVheavy cream
p5106
aVblue food coloring
p5107
atp5108
sV29426
p5109
(VSopapilla Cheesecake Pie
p5110
Vhttp://static.food2fork.com/1942063ea2.jpg
p5111
Vhttp://allrecipes.com/Recipe/Sopapilla-Cheesecake-Pie/Detail.aspx
p5112
(lp5113
Vcream cheese
p5114
ag7
aVmexican vanilla extract
p5115
ag142
aVcinnamon
p5116
ag6
aVhoney
p5117
atp5118
sV16638
p5119
(VHomemade Vanilla Pudding
p5120
Vhttp://static.food2fork.com/8489233d8.jpg
p5121
Vhttp://allrecipes.com/Recipe/Homemade-Vanilla-Pudding/Detail.aspx
p5122
(lp5123
g164
ag7
aVcornstarch
p5124
aVsalt
p5125
aVvanilla extract
p5126
ag6
atp5127
sV03c9ab
p5128
(VAll Recipes
p5129
Vhttp://static.food2fork.com/veganbanananutscones5fe3.jpg
p5130
Vhttp://cookieandkate.com/2014/vegan-banana-nut-scones/
p5131
(lp5132
g234
ag8
aVbaking powder
p5133
aVcinnamon
p5134
aVginger
p5135
aVsalt
p5136
ag6
ag299
ag164
aVmaple syrup honey
p5137
aVvanilla extract
p5138
aVpowdered sugar*
p5139
aVsea salt
p5140
aVvanilla
p5141
aVmaple syrup
p5142
atp5143
sV73d7ff
p5144
(VPumpkin Chocolate Chip Streusel Cake
p5145
Vhttp://static.food2fork.com/PumpkinChocolateChipStreuselCake421df.jpg
p5146
Vhttp://www.twopeasandtheirpod.com/pumpkin-chocolate-chip-streusel-cake/
p5147
(lp5148
Nag8
aVcinnamon
p5149
aVnutmeg
p5150
aVginger
p5151
aVbaking soda
p5152
aVsalt
p5153
ag6
ag7
ag20
aVvanilla extract
p5154
aVcanned pumpkin puree
p5155
ag11
atp5156
sV54369
p5157
(VCookie Dough Pretzel Bites
p5158
Vhttp://static.food2fork.com/CookieDoughPretzelBites497ce.jpg
p5159
Vhttp://www.twopeasandtheirpod.com/cookie-dough-pretzel-bites/
p5160
(lp5161
Nag6
ag7
ag8
aVsalt
p5162
ag164
aVvanilla extract
p5163
ag11
aVpretzel
p5164
aVsprinkle
p5165
atp5166
sVb5fb4f
p5167
(VCherry Clafoutis (Clafouti) Recipe
p5168
Vhttp://static.food2fork.com/29695_cherry_clafoutis_620f477.jpg
p5169
Vhttp://www.chow.com/recipes/29695-cherry-clafoutis-clafouti
p5170
(lp5171
g6
aVsweet cherry
p5172
ag20
ag164
ag7
aValmond extract
p5173
aVvanilla extract
p5174
aVsalt
p5175
ag8
atp5176
sV613931
p5177
(VLemon Cookies Recipe
p5178
Vhttp://static.food2fork.com/IMG_6199180x1807c0b.jpg
p5179
Vhttp://www.aspicyperspective.com/2013/03/lemon-cookies-recipe.html
p5180
(lp5181
g601
ag6
ag7
aVsalt
p5182
ag20
aVvanilla extract
p5183
ag31
ag8
aVdrop yellow food coloring *optional
p5184
aVcream cheese
p5185
atp5186
sV0e3cbd
p5187
(VRum Balls
p5188
Vhttp://static.food2fork.com/RumBalls15cc.jpg
p5189
Vhttp://www.mybakingaddiction.com/rum-balls/
p5190
(lp5191
Vvanilla wafer
p5192
ag7
aVunsweetened cocoa powder
p5193
aVfinely pecan
p5194
aVpure vanilla extract
p5195
ag154
atp5196
sV6f1c47
p5197
(VLemon Pudding&nbsp;Cake - Home - Pastry Affair
p5198
Vhttp://static.food2fork.com/8517986100_e29ce56f03_b45f8.jpg
p5199
Vhttp://www.pastryaffair.com/blog/lemon-pudding-cake.html
p5200
(lp5201
g6
ag7
ag31
ag20
ag8
aVvanilla extract
p5202
aVsalt
p5203
ag164
aVcream tartar
p5204
aVquart boiling
p5205
atp5206
sV37887
p5207
(VEarl Grey Tea Cookies
p5208
Vhttp://static.food2fork.com/earlgreyteacookies_300fcf589cf.jpg
p5209
Vhttp://www.realsimple.com/food-recipes/browse-all-recipes/earl-grey-tea-cookies-10000001046907/index.html
p5210
(lp5211
g8
ag7
ag1952
aVsalt
p5212
aVpure vanilla extract
p5213
ag6
atp5214
sVe4a332
p5215
(VAll Recipes
p5216
Vhttp://static.food2fork.com/chaicoconuticecreame1ae.jpg
p5217
Vhttp://cookieandkate.com/2013/chai-coconut-ice-cream/
p5218
(lp5219
g24
ag164
ag171
aVpure vanilla extract
p5220
aVginger
p5221
aVcinnamon
p5222
aVcardamom
p5223
aNaVallspice
p5224
aVsea salt
p5225
ag601
atp5226
sV37141
p5227
(VWhite Chocolate Macadamia Nut Cookies
p5228
Vhttp://static.food2fork.com/whitechocolatemacadamianutcookies300x2003b465dec.jpg
p5229
Vhttp://www.simplyrecipes.com/recipes/white_chocolate_macadamia_nut_cookies/
p5230
(lp5231
g8
aVsalt
p5232
aVbaking powder
p5233
ag6
ag7
ag20
aVvanilla extract
p5234
ag982
ag80
ag11
atp5235
sV09a215
p5236
(VBanana-Chocolate Chip Cake with Peanut Butter Frosting
p5237
Vhttp://static.food2fork.com/51117350b449.jpg
p5238
Vhttp://www.epicurious.com/recipes/food/views/Banana-Chocolate-Chip-Cake-with-Peanut-Butter-Frosting-51117350
p5239
(lp5240
Vnonstick vegetable oil spray
p5241
ag8
aVbaking soda
p5242
aVkosher salt
p5243
ag7
ag6
ag20
aVvanilla extract
p5244
ag299
aVsour cream
p5245
ag24
ag80
ag11
ag496
atp5246
sV93b140
p5247
(VMillie's Cookies recipe
p5248
Vhttp://static.food2fork.com/1032146_mediumb8f0.jpg
p5249
Vhttp://www.bbcgoodfood.com/recipes/1580654/millies-cookies-recipe
p5250
(lp5251
g6
ag7
ag20
aVvanilla extract
p5252
ag8
aVsalt
p5253
ag11
atp5254
sV48965
p5255
(VBanana-Chocolate Chip Cake with Peanut Butter Frosting
p5256
Vhttp://static.food2fork.com/bananachocolatechipcakewithpeanutbutterfrosting646a1d2.jpg
p5257
Vhttp://www.bonappetit.com/recipes/2012/10/banana-chocolate-chip-cake-with-peanut-butter-frosting
p5258
(lp5259
Vnonstick vegetable oil spray
p5260
ag8
aVbaking soda
p5261
aVkosher salt
p5262
ag7
ag6
ag20
aVvanilla extract
p5263
ag299
aVsour cream
p5264
ag24
ag80
ag11
ag496
atp5265
sV23534
p5266
(VMrs. Sigg's Snickerdoodles
p5267
Vhttp://static.food2fork.com/171375f9c0.jpg
p5268
Vhttp://allrecipes.com/Recipe/Mrs-Siggs-Snickerdoodles/Detail.aspx
p5269
(lp5270
g6
ag391
ag7
ag20
aVvanilla extract
p5271
ag8
aVcream tartar
p5272
aVbaking soda
p5273
aVsalt
p5274
aVcinnamon
p5275
atp5276
sVba79f6
p5277
(VStrawberry Rhubarb Crisp
p5278
Vhttp://static.food2fork.com/strawberryrhubarbcrisp4eef.jpg
p5279
Vhttp://cookieandkate.com/2013/strawberry-rhubarb-crisp/
p5280
(lp5281
Vstrawberry
p5282
aVrhubarb
p5283
aVhoney*
p5284
aVarrowroot starch cornstarch
p5285
aVvanilla extract
p5286
aVold-fashioned oat
p5287
ag8
ag7
aVsea salt
p5288
ag6
ag359
atp5289
sV760097
p5290
(VBrown Sugar Butterscotch Cookies
p5291
Vhttp://static.food2fork.com/BrownSugarButterscotchCookies27ed7.jpg
p5292
Vhttp://www.twopeasandtheirpod.com/brown-sugar-butterscotch-cookies/
p5293
(lp5294
g8
aVbaking soda
p5295
aVcornstarch
p5296
aVsalt
p5297
aVcinnamon
p5298
ag6
ag7
ag20
aVvanilla extract
p5299
ag11
atp5300
sVa61b1d
p5301
(VBrown Butter Pumpkin Streusel Muffins with Brown Butter Glaze
p5302
Vhttp://static.food2fork.com/BrownButterPumpkinMuffins1f922.jpg
p5303
Vhttp://www.twopeasandtheirpod.com/brown-butter-pumpkin-streusel-muffins-with-brown-butter-glaze/
p5304
(lp5305
Nag6
ag8
aVcinnamon
p5306
aVginger
p5307
aVnutmeg
p5308
aVbaking soda
p5309
aVsalt
p5310
aVpumpkin puree
p5311
ag7
ag20
aVvanilla extract
p5312
aVpecan
p5313
ag164
atp5314
sV69405c
p5315
(VEaster Cookies "S'mores Cookies"
p5316
Vhttp://static.food2fork.com/IMG_6134180x180c28c.jpg
p5317
Vhttp://www.aspicyperspective.com/2013/03/easter-cookies-smores.html
p5318
(lp5319
g601
ag8
ag7
aVsalt
p5320
ag6
aVhoney
p5321
aVvanilla extract
p5322
aVbaking soda
p5323
ag164
aVmolasses
p5324
aVcinnamon
p5325
ag11
aVeaster sprinkle
p5326
aVlollipopsticks
p5327
atp5328
sV974b47
p5329
(VGingerbread Apple Crisp
p5330
Vhttp://static.food2fork.com/gingerbreadapplecrisprecipeglutenfreeDSC_46369cd5.jpg
p5331
Vhttp://www.elanaspantry.com/gingerbread-apple-crisp/
p5332
(lp5333
g238
ag8
aVbrown flaxmeal
p5334
aVceltic sea salt
p5335
aVcinnamon
p5336
aVginger
p5337
ag391
aVhoney
p5338
aVvanilla extract
p5339
aVpecan
p5340
atp5341
sVba2d90
p5342
(VFresh Cherry Cobbler
p5343
Vhttp://static.food2fork.com/cherrycobblerrecipes2ac3.jpg
p5344
Vhttp://www.mybakingaddiction.com/fresh-cherry-cobbler/
p5345
(lp5346
g6
ag8
ag7
aVbaking powder
p5347
aVcinnamon
p5348
aVpure vanilla extract
p5349
aValmond extract
p5350
ag164
aVsweet cherry
p5351
atp5352
sV22913
p5353
(VMini Cheesecakes I
p5354
Vhttp://static.food2fork.com/1734755ed6.jpg
p5355
Vhttp://allrecipes.com/Recipe/Mini-Cheesecakes-I/Detail.aspx
p5356
(lp5357
Vvanilla wafer
p5358
aVcream cheese
p5359
ag7
ag20
aVvanilla extract
p5360
aVcherry pie filling
p5361
atp5362
sV36245
p5363
(VDutch Baby
p5364
Vhttp://static.food2fork.com/dutchbabygermanpancakec300x200168cc1ba.jpg
p5365
Vhttp://www.simplyrecipes.com/recipes/dutch_baby/
p5366
(lp5367
g6
ag20
ag164
ag7
ag8
aVvanilla extract
p5368
aVcinnamon
p5369
aVkosher salt
p5370
atp5371
sV11f50d
p5372
(VCinnamon Bun Muffins
p5373
Vhttp://static.food2fork.com/cinnamonbunmuffinsDSC_31768218.jpg
p5374
Vhttp://www.elanaspantry.com/cinnamon-bun-muffins/
p5375
(lp5376
Vagave nectar
p5377
aVcinnamon
p5378
aVgrapeseed oil
p5379
ag8
aVbaking soda
p5380
aVceltic sea salt
p5381
ag20
aVvanilla extract
p5382
atp5383
sV47577
p5384
(VGrandma's chocolate pie
p5385
Vhttp://static.food2fork.com/chocolatepieDSC7409c329154f.jpg
p5386
Vhttp://homesicktexan.blogspot.com/2008/09/grandmas-chocolate-pie.html
p5387
(lp5388
NaVcocoa square baking chocolate
p5389
ag7
ag8
aVsalt
p5390
ag164
aVvanilla
p5391
ag20
ag6
atp5392
sV47272
p5393
(VGrandma Iny\u2019s Prune Cake
p5394
Vhttp://static.food2fork.com/inysprunecakea73a.jpg
p5395
Vhttp://thepioneerwoman.com/cooking/2008/12/make-this-cake-today-trust-me/
p5396
(lp5397
NaVprune
p5398
ag7
ag20
aVcanola oil
p5399
ag8
aVbaking soda
p5400
aVnutmeg
p5401
aVallspice
p5402
aVcinnamon
p5403
aVbuttermilk
p5404
aVvanilla extract
p5405
ag154
ag6
aVvanilla
p5406
atp5407
sV9767a0
p5408
(VBanana Cake with Chocolate Chip Hazelnut Streusel
p5409
Vhttp://static.food2fork.com/BananaHazelnutCakewithChocolateChipHazelnutStreusel187d1.jpg
p5410
Vhttp://www.twopeasandtheirpod.com/banana-cake-with-chocolate-chip-hazelnut-streusel/
p5411
(lp5412
Nag8
aVbaking soda
p5413
aVsalt
p5414
aVcinnamon
p5415
ag299
ag6
ag20
aVvanilla extract
p5416
ag7
aVnutella
p5417
aVhazelnut
p5418
ag11
atp5419
sV90e57c
p5420
(VAll Recipes
p5421
Vhttp://static.food2fork.com/healthyalmondchocolatechipgranolabars104f58.jpg
p5422
Vhttp://cookieandkate.com/2014/healthy-almond-chocolate-chip-granola-bars/
p5423
(lp5424
Vquick-cooking oat old-fashioned oat
p5425
aVsliced almond
p5426
ag11
aVcinnamon
p5427
aVsalt
p5428
ag6
aVhoney
p5429
aVvanilla extract
p5430
atp5431
sVdd1b63
p5432
(VEasy Pear Sauce
p5433
Vhttp://static.food2fork.com/PearSauce16cd4.jpg
p5434
Vhttp://www.twopeasandtheirpod.com/easy-pear-sauce/
p5435
(lp5436
g469
aNag31
aVcinnamon
p5437
aVginger
p5438
aVvanilla extract
p5439
atp5440
sVe19558
p5441
(Vjacked-up banana bread
p5442
Vhttp://static.food2fork.com/298979134_ffbfec631344ff.jpg
p5443
Vhttp://smittenkitchen.com/blog/2006/11/speckled-for-the-freckled/
p5444
(lp5445
g299
ag6
ag7
ag20
aVvanilla
p5446
ag2359
aVbaking soda
p5447
aVsalt
p5448
aVcinnamon
p5449
aVnutmeg
p5450
aNag8
atp5451
sV46857
p5452
(Vapple sharlotka
p5453
Vhttp://static.food2fork.com/6647447061_817983021c3e9a.jpg
p5454
Vhttp://smittenkitchen.com/blog/2012/01/apple-sharlotka/
p5455
(lp5456
g6
aNag20
ag7
aVvanilla extract
p5457
ag8
aVcinnamon
p5458
atp5459
sVf84a54
p5460
(VAll Recipes
p5461
Vhttp://static.food2fork.com/clementinesunshinesmoothierecipe1270x3722ea2.jpg
p5462
Vhttp://cookieandkate.com/2015/clementine-sunshine-smoothie/
p5463
(lp5464
Vclementine
p5465
ag171
ag359
aVtiny sea salt
p5466
ag299
aVturmeric exotic flavor more immunity-boosting property
p5467
aVdrizzle honey extra sweetness
p5468
aVone drop pure vanilla extract more dreamsicle flavor
p5469
atp5470
sV54463
p5471
(VPumpkin Chocolate Chip Bars
p5472
Vhttp://static.food2fork.com/pumpkinchocolatechipbarseac8.jpg
p5473
Vhttp://www.twopeasandtheirpod.com/pumpkin-chocolate-chip-bars/
p5474
(lp5475
g8
aVpumpkin-pie spice
p5476
aVbaking soda
p5477
aVsalt
p5478
ag6
ag7
ag20
aVvanilla extract
p5479
aVcanned pumpkin puree
p5480
ag11
atp5481
sV57793e
p5482
(Vzucchini bread pancakes
p5483
Vhttp://static.food2fork.com/7647731244_03b2d030723e28.jpg
p5484
Vhttp://smittenkitchen.com/blog/2012/07/zucchini-bread-pancakes/
p5485
(lp5486
g20
aVolive oil
p5487
aVlight brown
p5488
ag440
aVvanilla extract
p5489
aVzucchini from about
p5490
ag8
aVtable salt
p5491
aVbaking soda
p5492
aVcinnamon
p5493
aVnutmeg
p5494
ag6
atp5495
sV5d1499
p5496
(VHot Cocoa&nbsp;Popsicles - Home - Pastry Affair
p5497
Vhttp://static.food2fork.com/8462575841_c955cbefb4_b6af7.jpg
p5498
Vhttp://www.pastryaffair.com/blog/hot-cocoa-popsicles.html
p5499
(lp5500
g164
aVcocoa powder
p5501
ag7
aVsalt
p5502
aVvanilla extract
p5503
ag11
aVmini marshmallow
p5504
atp5505
sV5733
p5506
(VCandy Cane Fudge
p5507
Vhttp://static.food2fork.com/54065318e4.jpg
p5508
Vhttp://allrecipes.com/Recipe/Candy-Cane-Fudge/Detail.aspx
p5509
(lp5510
g11
ag164
aVpeppermint extract
p5511
ag660
aVred green food coloring
p5512
atp5513
sV27056
p5514
(VRobbi\u2019s M&M Cookies
p5515
Vhttp://static.food2fork.com/470667c00b.jpg
p5516
Vhttp://allrecipes.com/Recipe/Robbis-Mm-Cookies/Detail.aspx
p5517
(lp5518
g7
ag391
ag20
aVvanilla extract
p5519
ag8
aVbaking soda
p5520
aVsalt
p5521
ag164
atp5522
sVc0f26f
p5523
(VNutella Cupcakes
p5524
Vhttp://static.food2fork.com/NutellaCupcakes21of1db4f.jpg
p5525
Vhttp://www.mybakingaddiction.com/nutella-cupcakes/
p5526
(lp5527
g6
aV-ounce nutella
p5528
aVsea salt
p5529
aVclear vanilla extract
p5530
ag7
atp5531
sV10373
p5532
(VCreamy Hot Cocoa
p5533
Vhttp://static.food2fork.com/5094747e0f.jpg
p5534
Vhttp://allrecipes.com/Recipe/Creamy-Hot-Cocoa/Detail.aspx
p5535
(lp5536
Vunsweetened cocoa powder
p5537
ag7
aVsalt
p5538
aVboiling
p5539
ag164
aVvanilla extract
p5540
aVhalf-and-half cream
p5541
atp5542
sVb3e6c8
p5543
(VCoconut Macaroons
p5544
Vhttp://static.food2fork.com/coconut_macaroon6d55.jpg
p5545
Vhttp://www.elanaspantry.com/coconut-macaroons/
p5546
(lp5547
g20
aVceltic sea salt
p5548
aVagave nectar
p5549
aVvanilla extract
p5550
aVunsweetened coconut
p5551
atp5552
sV35826
p5553
(VBourbon Mashed Sweet Potatoes
p5554
Vhttp://static.food2fork.com/bourbonmashedsweetpotatoes300x200443b39ca.jpg
p5555
Vhttp://www.simplyrecipes.com/recipes/bourbon_mashed_sweet_potatoes/
p5556
(lp5557
g752
aVsalt
p5558
ag2359
ag6
ag7
aVvanilla extract
p5559
atp5560
sV8d4f02
p5561
(VHomemade Granola Bars
p5562
Vhttp://static.food2fork.com/GranolaBarsResize1of142ee.jpg
p5563
Vhttp://www.mybakingaddiction.com/homemade-granola-bars-recipe/
p5564
(lp5565
Vrolled oat
p5566
ag7
aVwheat germ
p5567
aVcinnamon
p5568
ag8
aVkosher salt
p5569
aVhoney
p5570
ag20
aVvegetable oil
p5571
aVvanilla extract
p5572
aVsour cherry
p5573
ag11
atp5574
sV5fc19e
p5575
(VSummer fruit drizzle cake
p5576
Vhttp://static.food2fork.com/1511720_MEDIUM0d04.jpg
p5577
Vhttp://www.bbcgoodfood.com/recipes/1511720/summer-fruit-drizzle-cake
p5578
(lp5579
g6
ag7
ag8
ag20
aVvanilla extract
p5580
ag1549
ag31
atp5581
sV3785
p5582
(VBeth's Spicy Oatmeal Raisin Cookies
p5583
Vhttp://static.food2fork.com/472586ba04.jpg
p5584
Vhttp://allrecipes.com/Recipe/Beths-Spicy-Oatmeal-Raisin-Cookies/Detail.aspx
p5585
(lp5586
g6
ag7
ag20
aVvanilla extract
p5587
ag8
aVbaking soda
p5588
aVcinnamon
p5589
aNaVsalt
p5590
aVrolled oat
p5591
aVraisin
p5592
atp5593
sV54460
p5594
(VPumpkin Gingersnap Cookies
p5595
Vhttp://static.food2fork.com/pumpkingingersnaps2601c.jpg
p5596
Vhttp://www.twopeasandtheirpod.com/pumpkin-gingersnap-cookies/
p5597
(lp5598
g6
ag7
aVpure pumpkin used libby canned pumpkin
p5599
aVmolasses
p5600
ag20
aVvanilla extract
p5601
ag8
aVbaking soda
p5602
aVcinnamon
p5603
aVginger
p5604
aNaVsalt
p5605
atp5606
sV9806
p5607
(VCracked Sugar Cookies I
p5608
Vhttp://static.food2fork.com/340355791.jpg
p5609
Vhttp://allrecipes.com/Recipe/Cracked-Sugar-Cookies-I/Detail.aspx
p5610
(lp5611
g7
ag6
ag20
aVvanilla extract
p5612
ag8
aVbaking soda
p5613
aVcream tartar
p5614
atp5615
sV2c392b
p5616
(VChocolate Chunk Cookies
p5617
Vhttp://static.food2fork.com/cookiesc5ef.jpg
p5618
Vhttp://thepioneerwoman.com/cooking/2014/09/chocolate-chunk-cookies/
p5619
(lp5620
g6
ag7
ag20
aVvanilla
p5621
ag8
ag982
aVbaking soda
p5622
aVsalt
p5623
aNaVfinely pecan
p5624
atp5625
sV92a9df
p5626
(VPumpkin Bundt Cake with Cream Cheese Frosting
p5627
Vhttp://static.food2fork.com/PumpkinBundtCake495da.jpg
p5628
Vhttp://www.twopeasandtheirpod.com/pumpkin-bundt-cake/
p5629
(lp5630
Nag8
aVbaking soda
p5631
aVpumpkin pie spice
p5632
aVsalt
p5633
ag7
aVvegetable canola oil
p5634
ag20
aVvanilla extract
p5635
aVpure pumpkin
p5636
aVcream cheese
p5637
ag164
ag496
atp5638
sV35760
p5639
(VBanana Bread
p5640
Vhttp://static.food2fork.com/banana_bread300x2000a14c8c5.jpeg
p5641
Vhttp://www.simplyrecipes.com/recipes/banana_bread/
p5642
(lp5643
g299
ag6
ag7
ag20
aVvanilla
p5644
aVbaking soda
p5645
aVsalt
p5646
ag8
atp5647
sV35762
p5648
(VBanana Nut Muffins
p5649
Vhttp://static.food2fork.com/banananutmuffins286x20090b5ba36.jpg
p5650
Vhttp://www.simplyrecipes.com/recipes/banana_nut_muffins/
p5651
(lp5652
g299
ag6
ag7
ag20
aVvanilla
p5653
ag982
aVbaking soda
p5654
aVsalt
p5655
ag8
aVwalnut
p5656
atp5657
sV0aa57c
p5658
(Vblondies, infinitely adaptable
p5659
Vhttp://static.food2fork.com/149257661_012d51d195a510.jpg
p5660
Vhttp://smittenkitchen.com/blog/2006/11/blondies-for-a-blondie/
p5661
(lp5662
Vstick
p5663
ag7
ag20
aVvanilla almond extract
p5664
aVsalt
p5665
ag8
atp5666
s.