(dp0
V
p1
(lp2
Vdrained chickpeas (from a -ounce can)
p3
asVsliced strawberry syrup
p4
(S'sorry no price'
p5
tp6
sVlot freshly chive
p7
(g5
tp8
sVfrac parsley
p9
(g5
tp10
sVpinch red pepper
p11
(g5
tp12
sVsweetened coconut
p13
(g5
tp14
sVchocolate-covered toffee bar
p15
(g5
tp16
sVthai serrano chile
p17
(g5
tp18
sVchunk root ginger
p19
(g5
tp20
sVkosher salt coarsely ground sea salt
p21
(g5
tp22
sVstick lemongrass
p23
(g5
tp24
sVpeeled deveined shrimp
p25
(g5
tp26
sVgood-quality gin
p27
(g5
tp28
sVground cardamom
p29
(g5
tp30
sVrosemary leaf
p31
(g5
tp32
sVlowfat buttermilk
p33
(g5
tp34
sVpinch baking soda
p35
(g5
tp36
sV-inch-thick pancetta
p37
(g5
tp38
sVjalapeos optional
p39
(g5
tp40
sVcanned chickpea
p41
(g5
tp42
sVpinch cayenne pepper
p43
(g5
tp44
sVtaco tex-mex seasoning
p45
(g5
tp46
sVjalapeno chile
p47
(g5
tp48
sVpineapple juice
p49
(g5
tp50
sV-inch tortilla
p51
(g5
tp52
sVpack shortbread biscuit
p53
(g5
tp54
sV-inch chunk ginger
p55
(g5
tp56
sVthinly sliced spinach leaf
p57
(g5
tp58
sVpackage strawberry jello
p59
(g5
tp60
sVfinely herb
p61
(g5
tp62
sVpancetta
p63
(g5
tp64
sVmozzarella parmesan cheese
p65
(g5
tp66
sVorganic stock
p67
(g5
tp68
sVunsweetened coconut
p69
(g5
tp70
sVthick asparagus spear
p71
(g5
tp72
sVupdated double
p73
(g5
tp74
sVpetits poi
p75
(g5
tp76
sVhalved brussels sprout
p77
(g5
tp78
sVbig big
p79
(g5
tp80
sVbalsamic glaze reduction
p81
(g5
tp82
sVhalibut fillet
p83
(g5
tp84
sVdelallo basil pesto
p85
(g5
tp86
sVbunch oregano
p87
(g5
tp88
sVtoasted slivered almond
p89
(g5
tp90
sVcoarsely cilantro parsley
p91
(g5
tp92
sVgremolata
p93
(g5
tp94
sVserrano pepper
p95
(g5
tp96
sVranch dressing
p97
(g5
tp98
sVjack
p99
(g5
tp100
sVdrop yellow food coloring
p101
(g5
tp102
sVpomegranate seed
p103
(g5
tp104
sVwhole whole wheat english muffin
p105
(g5
tp106
sVextra-firm tofu cut into thin -inch segment
p107
(g5
tp108
sVstrawberry jam
p109
(g5
tp110
sVfrac sea salt
p111
(g5
tp112
sVfrac garlic powder
p113
(g5
tp114
sVtub salsa
p115
(g5
tp116
sVolive oil melted coconut oil
p117
(g5
tp118
sVlarabar crunchy berry renola
p119
(g5
tp120
sVcheese monterey jack
p121
(g5
tp122
sVmadras curry powder
p123
(g5
tp124
sVblock halloumi cheese
p125
(g5
tp126
sVtri-color peppercorn
p127
(g5
tp128
sVtub cream cheese mascarpone
p129
(g5
tp130
sVtotally optional frac mix-ins like walnut pecan
p131
(g5
tp132
sVwell-stirred tahini paste
p133
(g5
tp134
sVcourgette
p135
(g5
tp136
sVwhole seedless watermelon
p137
(g5
tp138
sVpoppy
p139
(g5
tp140
sVolive oil plus more
p141
(g5
tp142
sVorzo
p143
(g5
tp144
sVchilli powder
p145
(g5
tp146
sVground all-spice
p147
(g5
tp148
sVmedium-grind cornmeal
p149
(g5
tp150
sVroughly pecan
p151
(g5
tp152
sVpenne pasta
p153
(g5
tp154
sVdark chocolate chunk
p155
(g5
tp156
sValmond
p157
(g5
tp158
sS'bacon'
p159
(S'$ 5.628 per lb. '
p160
tp161
sVfrac apricot
p162
(g5
tp163
sVextra parmesan cheese
p164
(g5
tp165
sVinstant espresso granule dissolved
p166
(g5
tp167
sVnatural cocoa powder non-dutched
p168
(g5
tp169
sVgood marinara sauce
p170
(g5
tp171
sVchickpea equivalent -ounce
p172
(g5
tp173
sVblanched slivered almond
p174
(g5
tp175
sVpack philadelphia cheese
p176
(g5
tp177
sVpomegranate molasses
p178
(g5
tp179
sVlow-moisture
p180
(g5
tp181
sVmascarpone
p182
(g5
tp183
sV-ounce pumpkin puree*
p184
(g5
tp185
sVcooking
p186
(g5
tp187
sVstemmed roughly fig
p188
(g5
tp189
sVwhole yellow bell pepper
p190
(g5
tp191
sVheaped dijon mustard
p192
(g5
tp193
sV-ounce bar cream cheese
p194
(g5
tp195
sVfrac walnut
p196
(g5
tp197
sVcandied pecan
p198
(g5
tp199
sVtart cherry
p200
(g5
tp201
sV-ounce package instant cheesecake pudding mix
p202
(g5
tp203
sVpinch ground black pepper
p204
(g5
tp205
sVpint bunch kale
p206
(g5
tp207
sVpackage whipped topping
p208
(g5
tp209
sVblack white sesame seed
p210
(g5
tp211
sVlacinato kale
p212
(g5
tp213
sVchili powder
p214
(g5
tp215
sVherb
p216
(g5
tp217
sVthinly sliced sweet coppa prosciutto
p218
(g5
tp219
sVorganic extra-firm tofu
p220
(g5
tp221
sVrogan josh curry paste
p222
(g5
tp223
sVfew extra-virgin olive oil
p224
(g5
tp225
sVparmesan cheese basil
p226
(g5
tp227
sVfrac maple syrup
p228
(g5
tp229
sVbig pinch sea salt
p230
(g5
tp231
sVmozzarella
p232
(g5
tp233
sVdry
p234
(g5
tp235
sVseasoned salt
p236
(g5
tp237
sVlitre pint vegetable stock
p238
(g5
tp239
sVfirm white fish
p240
(g5
tp241
sVamaretti cooky
p242
(g5
tp243
sVground cayenne pepper
p244
(g5
tp245
sVsesame paste
p246
(g5
tp247
sVstevia
p248
(g5
tp249
sVcracked pepper
p250
(g5
tp251
sVseveral thyme sprig
p252
(g5
tp253
sVghee extra-virgin olive oil
p254
(g5
tp255
sVwhole allspice berry
p256
(g5
tp257
sVwhole whole
p258
(g5
tp259
sVball store-bought whole-wheat pizza dough
p260
(g5
tp261
sS'pork sirloin roast'
p262
(S'$ 1.885 per pound/453.6 grams'
p263
S'this price may be outdated'
p264
tp265
sVcognac brandy
p266
(g5
tp267
sVshoyu soy sauce
p268
(g5
tp269
sVorganic edamame
p270
(g5
tp271
sVbunch washed rinsed arugula
p272
(g5
tp273
sVsea salt black pepper
p274
(g5
tp275
sVvegetable oil
p276
(g5
tp277
sVitalian salad dressing
p278
(g5
tp279
sVtahini sesame seed paste
p280
(g5
tp281
sVspinach packed
p282
(g5
tp283
sVcanola
p284
(g5
tp285
sVcaramel topping
p286
(g5
tp287
sVthumb-sized piece root ginger
p288
(g5
tp289
sVadd some crunch dill pickle
p290
(g5
tp291
sVguajillo pepper see note
p292
(g5
tp293
sVpackage prepared chocolate frosting
p294
(g5
tp295
sVjulia
p296
(g5
tp297
sVsachet fast-action easy-blend yeast
p298
(g5
tp299
sVplus coarse kosher salt
p300
(g5
tp301
sVfluid beer
p302
(g5
tp303
sVold fashioned oat gluten-free oat
p304
(g5
tp305
sVindian curry powder
p306
(g5
tp307
sVfrac whole mustard seed
p308
(g5
tp309
sVpumpkin-pie spice
p310
(g5
tp311
sVslim young leek
p312
(g5
tp313
sVindividually wrapped caramel
p314
(g5
tp315
sVmedium-sized rutabaga also called swede
p316
(g5
tp317
sVcole slaw mix
p318
(g5
tp319
sVspear asparagus
p320
(g5
tp321
sVbeet juice*
p322
(g5
tp323
sVolive oil gram
p324
(g5
tp325
sVphiladelphia cream cheese
p326
(g5
tp327
sVancho chile pepper
p328
(g5
tp329
sVjalapeno pepper diced
p330
(g5
tp331
sVjalapeo peppers*
p332
(g5
tp333
sVfrac pickled jalapeos
p334
(g5
tp335
sVpiece ginger root
p336
(g5
tp337
sVblueberry
p338
(g5
tp339
sVinch piece ginger
p340
(g5
tp341
sVgarlic scape
p342
(g5
tp343
sVlasagne noodle
p344
(g5
tp345
sVpackage philadelphia cream cheese
p346
(g5
tp347
sVfreshly tarragon
p348
(g5
tp349
sV-pound butternut squash
p350
(g5
tp351
sVchilli
p352
(g5
tp353
sVporter stout beer
p354
(g5
tp355
sVwhite turnip
p356
(g5
tp357
sVherb any combination basil
p358
(g5
tp359
sVvanilla
p360
(g5
tp361
sVmore olive oil drizzle
p362
(g5
tp363
sVflaked almond
p364
(g5
tp365
sVpecan
p366
(g5
tp367
sVcoarsely peeled daikon
p368
(g5
tp369
sVwhite sesame seed
p370
(g5
tp371
sVfrac unsweetened coconut flakes*
p372
(g5
tp373
sVgreat-tasting broth
p374
(g5
tp375
sVsweet pointed pepper
p376
(g5
tp377
sVtopping mini
p378
(g5
tp379
sVyellow squash
p380
(g5
tp381
sVabout rolos
p382
(g5
tp383
sVwhite fish such tilapia
p384
(g5
tp385
sVparing knife
p386
(g5
tp387
sVfennel salt*
p388
(g5
tp389
sVbunch lacinato kale
p390
(g5
tp391
sVwhole cilantro
p392
(g5
tp393
sVfrac kale
p394
(g5
tp395
sVserve toasted pita
p396
(g5
tp397
sVbottle root beer
p398
(g5
tp399
sVroasted tahini
p400
(g5
tp401
sVfinely jalapeno pepper
p402
(g5
tp403
sS'crackers'
p404
(S'$ 0.832 per lb. '
p405
g264
tp406
sVplus unsweetened cocoa
p407
(g5
tp408
sV-ounce tilapia fillet
p409
(g5
tp410
sVentirely optional parmesan cheese
p411
(g5
tp412
sS'vodka'
p413
(S'$ 8.369 per 1 liter '
p414
g264
tp415
sVgruyere swiss cheese
p416
(g5
tp417
sVextra-firm tofu
p418
(g5
tp419
sVscotch bonnet pepper
p420
(g5
tp421
sVtbps olive oil
p422
(g5
tp423
sVfour -ounce bottle cream soda
p424
(g5
tp425
sVfreshly ground white pepper
p426
(g5
tp427
sVcrme frache sour cream
p428
(g5
tp429
sVclam mussel
p430
(g5
tp431
sVhoney
p432
(g5
tp433
sVvegetable oil*
p434
(g5
tp435
sVcotija
p436
(g5
tp437
sVcabot pepper jack light
p438
(g5
tp439
sVbarilla no-boil lasagne noodle
p440
(g5
tp441
sVfrac sliced shelled pecan
p442
(g5
tp443
sVbig coconut flake
p444
(g5
tp445
sVfluid jigger triple sec liqueur
p446
(g5
tp447
sVpickle juice
p448
(g5
tp449
sVblackberry puree
p450
(g5
tp451
sVmedium-hot red pepper
p452
(g5
tp453
sVblue cheese dressing
p454
(g5
tp455
sVplus pinch fine salt
p456
(g5
tp457
sVbox box vanilla pudding
p458
(g5
tp459
sVpacket yeast
p460
(g5
tp461
sVgoat cheese cheese
p462
(g5
tp463
sVwhole mustard seed
p464
(g5
tp465
sVmore
p466
(g5
tp467
sVfudge
p468
(g5
tp469
sVwhole cardamom pod
p470
(g5
tp471
sVarla dofino dill havarti
p472
(g5
tp473
sVwashed spinach leaf
p474
(g5
tp475
sVdelallo sweet tangy sun-dried pepper
p476
(g5
tp477
sVplus gram
p478
(g5
tp479
sVground flaxseed flaxseed meal
p480
(g5
tp481
sVmaple extract
p482
(g5
tp483
sV-inch-by- -feet sheet heavy-duty aluminum foil
p484
(g5
tp485
sVbatch buttercream frosting
p486
(g5
tp487
sVred sprinkle
p488
(g5
tp489
sVbatch cilantro lime crema see below
p490
(g5
tp491
sVwhole turnip
p492
(g5
tp493
sVsalsa
p494
(g5
tp495
sVsquare semi-sweet chocolate
p496
(g5
tp497
sVdark chocolate
p498
(g5
tp499
sVsalad green
p500
(g5
tp501
sVgood-quality olive oil
p502
(g5
tp503
sVskin-on salmon filet
p504
(g5
tp505
sVchilled
p506
(g5
tp507
sVwhole eggplant
p508
(g5
tp509
sValmond extract
p510
(g5
tp511
sVjalapeno bird eye chilies
p512
(g5
tp513
sVancho chilli see tip
p514
(g5
tp515
sVreduced fat sour cream
p516
(g5
tp517
sV-ounce bottle white beer
p518
(g5
tp519
sVarrowroot powder
p520
(g5
tp521
sVblack olive
p522
(g5
tp523
sVgreen
p524
(g5
tp525
sVbottle mccormick red food color
p526
(g5
tp527
sVhazelnut chard ravioli salad
p528
(g5
tp529
sVbaking chocolate cacao
p530
(g5
tp531
sVcaper brine
p532
(g5
tp533
sVrum extract
p534
(g5
tp535
sVfrac packed cilantro leaf cilantro hater
p536
(g5
tp537
sVfrac flat-leaf parsley
p538
(g5
tp539
sS'wine'
p540
(S'$ 14.301 per 1 liter '
p541
tp542
sVspanish extra virgin olive oil
p543
(g5
tp544
sVsliced red bell pepper
p545
(g5
tp546
sVtwo mild green enchilada sauce
p547
(g5
tp548
sVbit flaky sea salt
p549
(g5
tp550
sVmarcona almond toasted almond
p551
(g5
tp552
sVmuffin
p553
(g5
tp554
sVfeta cheese about
p555
(g5
tp556
sVliter good-tasting vegetable broth
p557
(g5
tp558
sVfettuccine linguine
p559
(g5
tp560
sVseveral worcestershire sauce
p561
(g5
tp562
sVbunch kale
p563
(g5
tp564
sVcatfish fillet
p565
(g5
tp566
sVagave honey
p567
(g5
tp568
sVquantity white sauce
p569
(g5
tp570
sVflat leaf parsley
p571
(g5
tp572
sVwhole sweet spicy pickle
p573
(g5
tp574
sVchipotle chili pepper adobo
p575
(g5
tp576
sVblanched hazelnut
p577
(g5
tp578
sVfew thin ginger
p579
(g5
tp580
sVfine-ground white pepper
p581
(g5
tp582
sVaged red vine vinegar
p583
(g5
tp584
sVdozen garlic
p585
(g5
tp586
sV-ounce whole berry cranberry sauce
p587
(g5
tp588
sVraspberry jam
p589
(g5
tp590
sVavocado
p591
(g5
tp592
sVbiscoff cooky
p593
(g5
tp594
sVwhole tortilla
p595
(g5
tp596
sVfig
p597
(g5
tp598
sVpre-made coconut pudding
p599
(g5
tp600
sVpoblano chile
p601
(g5
tp602
sVthin mint girl scout cooky
p603
(g5
tp604
sVcayenne tabasco
p605
(g5
tp606
sVspicy mustard
p607
(g5
tp608
sVfrac vanilla extract
p609
(g5
tp610
sS'coffee'
p611
(S'$ 4.221 per lb. '
p612
tp613
sVred food coloring
p614
(g5
tp615
sVadobo sauce
p616
(g5
tp617
sVinstructionsin high powdered blender combine basil
p618
(g5
tp619
sVcoconut oil olive oil
p620
(g5
tp621
sVfinely italian parsley leaf
p622
(g5
tp623
sVfennel bulb
p624
(g5
tp625
sVcool whip
p626
(g5
tp627
sVbulb fennel
p628
(g5
tp629
sVwhite whine
p630
(g5
tp631
sVfinely cheese
p632
(g5
tp633
sS'bread'
p634
(S'$ 1.461 per lb. '
p635
tp636
sVgenoa salami
p637
(g5
tp638
sVmichter
p639
(g5
tp640
sVricotta cheese whole low-fat fine
p641
(g5
tp642
sVthyme
p643
(g5
tp644
sS'potatoes'
p645
(S'$ 0.58 per lb. '
p646
tp647
sVjarred red salsa
p648
(g5
tp649
sVsupermarket pack bunch basil
p650
(g5
tp651
sVscant fine grained sea salt
p652
(g5
tp653
sV-ounce marshmallow creme
p654
(g5
tp655
sVstout porter beer
p656
(g5
tp657
sVapricot jam
p658
(g5
tp659
sVfilling
p660
(g5
tp661
sV-ounce skinless
p662
(g5
tp663
sVjalapeno chilies
p664
(g5
tp665
sVrosemary
p666
(g5
tp667
sVavocado chunk
p668
(g5
tp669
sVpack biscotti
p670
(g5
tp671
sVfrac honey
p672
(g5
tp673
sVground mexican chocolate
p674
(g5
tp675
sVallspice
p676
(g5
tp677
sVfew bay leaf
p678
(g5
tp679
sVheaped smoked paprika
p680
(g5
tp681
sVquick cooking oat
p682
(g5
tp683
sV-ounce yellow curry paste
p684
(g5
tp685
sVpacked basil leaf leaf
p686
(g5
tp687
sVwhole anchovy filet
p688
(g5
tp689
sVprawn
p690
(g5
tp691
sVcooking spray
p692
(g5
tp693
sVunbaked pie crust
p694
(g5
tp695
sVmixed herb
p696
(g5
tp697
sVchipotle chile
p698
(g5
tp699
sVinstructionsusing measure
p700
(g5
tp701
sVtwo pinch salt
p702
(g5
tp703
sVcrisp
p704
(g5
tp705
sVjalapeo chili
p706
(g5
tp707
sVcouple pinch fine-grain sea salt
p708
(g5
tp709
sVkorma paste
p710
(g5
tp711
sVfrac fennel bulb
p712
(g5
tp713
sVbottle passata
p714
(g5
tp715
sVoatmeal stout guinness stout
p716
(g5
tp717
sVgaram masala
p718
(g5
tp719
sVzest lime
p720
(g5
tp721
sVpint sour cream
p722
(g5
tp723
sVswiss cheese
p724
(g5
tp725
sV-ounce pumpkin pure
p726
(g5
tp727
sVfrac liquid smoke any flavor
p728
(g5
tp729
sVstick rosemary
p730
(g5
tp731
sVfew pata negra
p732
(g5
tp733
sVpiece chunk ginger
p734
(g5
tp735
sVsnipped chive
p736
(g5
tp737
sVchocolate sandwich cooky with creme filling
p738
(g5
tp739
sVundyed smoked haddock
p740
(g5
tp741
sValmond with skin
p742
(g5
tp743
sVscant extra virgin olive oil
p744
(g5
tp745
sVpacket active dry yeast
p746
(g5
tp747
sVcaramelized fennel olive made slicing fennel thinly
p748
(g5
tp749
sS'grapes'
p750
(S'$ 3.481 per lb. '
p751
tp752
sVplenty toast
p753
(g5
tp754
sVpeeled finely ginger from about -inch piece
p755
(g5
tp756
sVquartered kalamata olive
p757
(g5
tp758
sVdry yeast
p759
(g5
tp760
sVprepared ranch dressing
p761
(g5
tp762
sVtabasco
p763
(g5
tp764
sVbig cauliflower stem
p765
(g5
tp766
sVthin mint cooky
p767
(g5
tp768
sVherb equal part thyme
p769
(g5
tp770
sVpumpkin pie filling
p771
(g5
tp772
sVstore-bought flatbread
p773
(g5
tp774
sVfritter
p775
(g5
tp776
sVraisin
p777
(g5
tp778
sVpassata
p779
(g5
tp780
sVcube cream cheese
p781
(g5
tp782
sVmild olive oil spray
p783
(g5
tp784
sVtwo thumb-size piece root ginger
p785
(g5
tp786
sVheaped turmeric
p787
(g5
tp788
sVlongish red bell pepper
p789
(g5
tp790
sVseashell pasta
p791
(g5
tp792
sV-ounce green chili
p793
(g5
tp794
sVfrac dijon mustard
p795
(g5
tp796
sVskinless salmon
p797
(g5
tp798
sVplain popcorn use air-popped popcorn
p799
(g5
tp800
sVfreshly basil
p801
(g5
tp802
sVasparagus cut into piece
p803
(g5
tp804
sVherb such mint
p805
(g5
tp806
sVdear heidi
p807
(g5
tp808
sVmiso paste
p809
(g5
tp810
sVchile-garlic paste
p811
(g5
tp812
sVpimento
p813
(g5
tp814
sVwhole boneless
p815
(g5
tp816
sVtasty pretty
p817
(g5
tp818
sVbig marshmallow
p819
(g5
tp820
sS'lettuce'
p821
(S'$ 1.805 per lb. '
p822
tp823
sVtzatziki
p824
(g5
tp825
sVcrme frache clotted cream
p826
(g5
tp827
sVfinely ground black pepper
p828
(g5
tp829
sVflaked coarse sea salt
p830
(g5
tp831
sVpod cardamom
p832
(g5
tp833
sVpeeled finely ginger from -inch piece
p834
(g5
tp835
sVsemi-pearled farro
p836
(g5
tp837
sVmarjoram oregano
p838
(g5
tp839
sVglobe eggplant
p840
(g5
tp841
sVabout whole cashew
p842
(g5
tp843
sVcranberry juice
p844
(g5
tp845
sVsweetened whipped cream
p846
(g5
tp847
sVspinach
p848
(g5
tp849
sVguinness
p850
(g5
tp851
sVbarbeque sauce
p852
(g5
tp853
sV-ounce package puff pastry
p854
(g5
tp855
sVargan oil
p856
(g5
tp857
sVcajun seasoning
p858
(g5
tp859
sVapproximately
p860
(g5
tp861
sVmint extract
p862
(g5
tp863
sV-ounce box spinach
p864
(g5
tp865
sVspice mixture*
p866
(g5
tp867
sVcreme cacao liqueur
p868
(g5
tp869
sVcoarsely cilantro
p870
(g5
tp871
sVmuenster cheese
p872
(g5
tp873
sVcubed feta
p874
(g5
tp875
sVplus heavy cream
p876
(g5
tp877
sVbrown green lentil
p878
(g5
tp879
sVtrinket charm
p880
(g5
tp881
sVcornflour
p882
(g5
tp883
sVhoney agave nectar maple syrup
p884
(g5
tp885
sVkalamata olive
p886
(g5
tp887
sVsmoked hungarian sweet paprika
p888
(g5
tp889
sVroasted winter squash*
p890
(g5
tp891
sVhazelnut
p892
(g5
tp893
sVbittersweet semisweet chocolate
p894
(g5
tp895
sVcrumbled cheese
p896
(g5
tp897
sVcrumbled cotija cheese
p898
(g5
tp899
sVceltic coarse sea salt
p900
(g5
tp901
sVpluots
p902
(g5
tp903
sVfirm-ripe avocado
p904
(g5
tp905
sVmarinara pizza sauce
p906
(g5
tp907
sVsamoa cooky
p908
(g5
tp909
sVlot black pepper lot
p910
(g5
tp911
sVlong bun
p912
(g5
tp913
sVfrac roughly
p914
(g5
tp915
sVfrac unsweetened cocoa powder
p916
(g5
tp917
sVred curry paste
p918
(g5
tp919
sVgochujang
p920
(g5
tp921
sVcanned pumpkin
p922
(g5
tp923
sVwhole taco shell
p924
(g5
tp925
sVbaking sheet
p926
(g5
tp927
sVwhole pumpkin
p928
(g5
tp929
sVjarred marinara sauce
p930
(g5
tp931
sVcayenne pepper more
p932
(g5
tp933
sVmaggi soy sauce
p934
(g5
tp935
sVskinless
p936
(g5
tp937
sVmalibu
p938
(g5
tp939
sVginger
p940
(g5
tp941
sVnub ginger
p942
(g5
tp943
sVflaked coconut
p944
(g5
tp945
sVplain yoghurt
p946
(g5
tp947
sVmedium-sized turnip
p948
(g5
tp949
sV-ounce marinated artichoke heart
p950
(g5
tp951
sVpasta used delallo organic whole wheat farfalle
p952
(g5
tp953
sVmint
p954
(g5
tp955
sVgood mozzarella
p956
(g5
tp957
sVtube refrigerated pizza dough
p958
(g5
tp959
sVblue cheese salad dressing
p960
(g5
tp961
sVsized garlic
p962
(g5
tp963
sVgrapeseed
p964
(g5
tp965
sVcheese your choice
p966
(g5
tp967
sVjalapeno*
p968
(g5
tp969
sVturn freshly ground black pepper
p970
(g5
tp971
sVitalian herb seasoning
p972
(g5
tp973
sVfluid limeade concentrate
p974
(g5
tp975
sVspreadable jam
p976
(g5
tp977
sVcoarsely salted pretzel
p978
(g5
tp979
sVpretzel stick
p980
(g5
tp981
sVpinch celtic sea salt
p982
(g5
tp983
sVraisin cranberry
p984
(g5
tp985
sVscant table salt
p986
(g5
tp987
sVfrac honey maple syrup
p988
(g5
tp989
sVchipotle mayo
p990
(g5
tp991
sVgravy
p992
(g5
tp993
sVdrained pimento
p994
(g5
tp995
sVfrac coriander
p996
(g5
tp997
sVmild red chilli
p998
(g5
tp999
sVsalt more
p1000
(g5
tp1001
sVactive dry
p1002
(g5
tp1003
sVwhole red bell pepper
p1004
(g5
tp1005
sVmashed
p1006
(g5
tp1007
sVnatural unsweetened cocoa powder into measure
p1008
(g5
tp1009
sVwhole wheat pita
p1010
(g5
tp1011
sVswiss
p1012
(g5
tp1013
sVjam preserve
p1014
(g5
tp1015
sVseveral parsley sprig
p1016
(g5
tp1017
sVpeppercorn
p1018
(g5
tp1019
sVfrac nutmeg
p1020
(g5
tp1021
sVcoarse breadcrumb
p1022
(g5
tp1023
sVquart low sodium vegetable broth
p1024
(g5
tp1025
sVpinch cumin powder
p1026
(g5
tp1027
sVgreen curry paste
p1028
(g5
tp1029
sVtub philadelphia cheese
p1030
(g5
tp1031
sVunbleached high-gluten
p1032
(g5
tp1033
sVfrac spiced rum
p1034
(g5
tp1035
sVherb such parsley basil
p1036
(g5
tp1037
sVpizza flat baking sheet
p1038
(g5
tp1039
sVextract flavoring choice
p1040
(g5
tp1041
sVinto -inch
p1042
(g5
tp1043
sVmetal
p1044
(g5
tp1045
sVbottle vin santo
p1046
(g5
tp1047
sVheavy whipping cream
p1048
(g5
tp1049
sVbunch tuscan kale about total
p1050
(g5
tp1051
sVsunflower oil untoasted sesame oil
p1052
(g5
tp1053
sVpineapple
p1054
(g5
tp1055
sV-pound slab
p1056
(g5
tp1057
sVpacked spinach arugula
p1058
(g5
tp1059
sVjumbo pasta shell
p1060
(g5
tp1061
sVground ginger
p1062
(g5
tp1063
sVparmesan pecorino cheese
p1064
(g5
tp1065
sVone butternut squash
p1066
(g5
tp1067
sVunsweetened chocolate coarsely
p1068
(g5
tp1069
sVgolden beet
p1070
(g5
tp1071
sVmonterey jack cheese
p1072
(g5
tp1073
sVtequila
p1074
(g5
tp1075
sVoptional garnish freshly parmesan cheese
p1076
(g5
tp1077
sVbunch dino kale lacinato kale
p1078
(g5
tp1079
sVmozzarella provolone cheese
p1080
(g5
tp1081
sVfennel
p1082
(g5
tp1083
sVtamarind concentrate
p1084
(g5
tp1085
sVturnip swede
p1086
(g5
tp1087
sVpack feta cheese
p1088
(g5
tp1089
sVglass with tight fitting lid
p1090
(g5
tp1091
sVsunflower seed kernel
p1092
(g5
tp1093
sVfilling option
p1094
(g5
tp1095
sVoptional thinly sliced vegetable
p1096
(g5
tp1097
sVleaf lacinato kale
p1098
(g5
tp1099
sVoptional add-in garlic
p1100
(g5
tp1101
sVmore drop tabasco sauce
p1102
(g5
tp1103
sVcaper
p1104
(g5
tp1105
sVpinch pepper flake
p1106
(g5
tp1107
sVfrac lightly packed cilantro leaf
p1108
(g5
tp1109
sVpumpkin pure*
p1110
(g5
tp1111
sVchive marjoram
p1112
(g5
tp1113
sVfrac pint raspberry
p1114
(g5
tp1115
sS'sugar'
p1116
(S'$ 0.7 per lb. '
p1117
tp1118
sS'celery'
p1119
(S'$ 0.576 per lb. '
p1120
g264
tp1121
sVvegetable stock low-sodium vegetable broth
p1122
(g5
tp1123
sV-ounce diced green anaheim chile
p1124
(g5
tp1125
sVfish finger
p1126
(g5
tp1127
sVbatch easy whole wheat pizza dough
p1128
(g5
tp1129
sVchipotle
p1130
(g5
tp1131
sVsesame seed sea salt sprinkle
p1132
(g5
tp1133
sVpetal from dozen rose
p1134
(g5
tp1135
sVshelled pistachio
p1136
(g5
tp1137
sVfrac vanilla
p1138
(g5
tp1139
sVzested ginger
p1140
(g5
tp1141
sVfinely pineapple
p1142
(g5
tp1143
sVbunch mint leaf
p1144
(g5
tp1145
sVbottled balsamic vinaigrette
p1146
(g5
tp1147
sVfew sprig rosemary
p1148
(g5
tp1149
sVbunch green chard
p1150
(g5
tp1151
sVfluid
p1152
(g5
tp1153
sVpepitas
p1154
(g5
tp1155
sVchocolate syrup
p1156
(g5
tp1157
sS'apple sauce'
p1158
(S'$ 0.8 per lb. '
p1159
g264
tp1160
sVtightly packed basil leaf
p1161
(g5
tp1162
sVtoasted flaked almond
p1163
(g5
tp1164
sVmaple syrup honey
p1165
(g5
tp1166
sVflat-leaf parsley dill garnish
p1167
(g5
tp1168
sVpint lime sorbet
p1169
(g5
tp1170
sVgrilled pineapple
p1171
(g5
tp1172
sVinch cinnamon stick
p1173
(g5
tp1174
sVfrac ground cardamom
p1175
(g5
tp1176
sVchunky salsa
p1177
(g5
tp1178
sVpumpkin puree
p1179
(g5
tp1180
sV-ounce kosher salt black pepper
p1181
(g5
tp1182
sVroasted
p1183
(g5
tp1184
sVlollipop stick
p1185
(g5
tp1186
sVpunnet cherry
p1187
(g5
tp1188
sVpretzel
p1189
(g5
tp1190
sVmixed berry
p1191
(g5
tp1192
sVmixed salad green
p1193
(g5
tp1194
sVbox after eight
p1195
(g5
tp1196
sVreduced sodium vegetable stock
p1197
(g5
tp1198
sVfinely zest juice lime
p1199
(g5
tp1200
sVseasoned salt such lawry
p1201
(g5
tp1202
sVpinch ground cumin
p1203
(g5
tp1204
sVdiced shallot
p1205
(g5
tp1206
sVlitre spiced pickling vinegar
p1207
(g5
tp1208
sS'steak'
p1209
(S'$ 5.856 per lb. '
p1210
tp1211
sV-inch
p1212
(g5
tp1213
sVjumbo shrimp
p1214
(g5
tp1215
sVheaping cajun seasoning
p1216
(g5
tp1217
sVpackage lasagna noodle
p1218
(g5
tp1219
sVgood-quality extra-virgin olive
p1220
(g5
tp1221
sVpackage driscoll raspberry
p1222
(g5
tp1223
sVfreshly ground black pepper plus more
p1224
(g5
tp1225
sVlemonade
p1226
(g5
tp1227
sVcoffee-flavored liqueur
p1228
(g5
tp1229
sVplus beer
p1230
(g5
tp1231
sVfrac boneless
p1232
(g5
tp1233
sVbottle french dressing
p1234
(g5
tp1235
sVinstructionsin saucepan
p1236
(g5
tp1237
sVpico gallo
p1238
(g5
tp1239
sVbakding powder
p1240
(g5
tp1241
sVfine grain sea salt freshly ground pepper
p1242
(g5
tp1243
sVsmall-to-medium bundle
p1244
(g5
tp1245
sVminute tapioca
p1246
(g5
tp1247
sVhalloween-colored chocolate sandwich cooky
p1248
(g5
tp1249
sVnestle lechera
p1250
(g5
tp1251
sVslotted
p1252
(g5
tp1253
sVjumbo black olive
p1254
(g5
tp1255
sVfrac agave nectar more
p1256
(g5
tp1257
sVherbes provence
p1258
(g5
tp1259
sVblue diamond wasabi soy sauce almond
p1260
(g5
tp1261
sVpacked stemmed coarsely kale chard leaf
p1262
(g5
tp1263
sVprune
p1264
(g5
tp1265
sS'yogurt'
p1266
(S'$ 0.601 per 8 oz. '
p1267
g264
tp1268
sVgolden maple syrup
p1269
(g5
tp1270
sVgood-quality dark chocolate
p1271
(g5
tp1272
sVlight agave nectar
p1273
(g5
tp1274
sVanchovy paste
p1275
(g5
tp1276
sVdouble pie crust
p1277
(g5
tp1278
sVfrac barbecue sauce
p1279
(g5
tp1280
sVfew splash extra virgin olive oil
p1281
(g5
tp1282
sVavocado from mexico
p1283
(g5
tp1284
sVlime simple syrup
p1285
(g5
tp1286
sVcherry pepper
p1287
(g5
tp1288
sVteasopon salt
p1289
(g5
tp1290
sVdry vermouth
p1291
(g5
tp1292
sVbox high-fiber elbow shaped pasta
p1293
(g5
tp1294
sVcocoa square baking chocolate
p1295
(g5
tp1296
sVponzu soy sauce
p1297
(g5
tp1298
sVfeta cheese
p1299
(g5
tp1300
sV-ounce guinness draught
p1301
(g5
tp1302
sVmahimahi
p1303
(g5
tp1304
sVdry sherry vermouth
p1305
(g5
tp1306
sVbarbecue sauce
p1307
(g5
tp1308
sVtabasco sauce
p1309
(g5
tp1310
sVjalape ntilde
p1311
(g5
tp1312
sVlevel sweet paprika
p1313
(g5
tp1314
sValmond pecan
p1315
(g5
tp1316
sVdill weed
p1317
(g5
tp1318
sVeggnog
p1319
(g5
tp1320
sVlow-salt vegetable stock such kallo low-salt vegetable stock cube
p1321
(g5
tp1322
sVcouple arugula
p1323
(g5
tp1324
sV-ounce package cream cheese
p1325
(g5
tp1326
sVchilled goat cheese about goat cheese crumbles
p1327
(g5
tp1328
sVfinely mint
p1329
(g5
tp1330
sVhummus
p1331
(g5
tp1332
sVcoarsely cilantro leaf
p1333
(g5
tp1334
sVserve lot lime juice
p1335
(g5
tp1336
sVsnipped parsley
p1337
(g5
tp1338
sVlevel ground ginger
p1339
(g5
tp1340
sVpita
p1341
(g5
tp1342
sVold-fashioned rolled oat not quick-cooking
p1343
(g5
tp1344
sVcoarse salt
p1345
(g5
tp1346
sVskinless white fish fillet
p1347
(g5
tp1348
sVvirgin coconut oil
p1349
(g5
tp1350
sVlily bud
p1351
(g5
tp1352
sV-ounce good quality marinated artichoke heart
p1353
(g5
tp1354
sVolive oil
p1355
(g5
tp1356
sVmezzaluna
p1357
(g5
tp1358
sVspecial equipment food processor check amazon.com sale cuisinart food processor
p1359
(g5
tp1360
sVkahlua peppermint mocha liqueur see step
p1361
(g5
tp1362
sVvermouth
p1363
(g5
tp1364
sVtamari soy sauce
p1365
(g5
tp1366
sVmustard seed
p1367
(g5
tp1368
sVmixed tender herb such cilantro
p1369
(g5
tp1370
sVinch thick filet mignon
p1371
(g5
tp1372
sVparsley flake
p1373
(g5
tp1374
sVdiced -inch butternut squash
p1375
(g5
tp1376
sVprepared pesto
p1377
(g5
tp1378
sVground paprika
p1379
(g5
tp1380
sVarla dofino fontina cheese
p1381
(g5
tp1382
sVbrined caper
p1383
(g5
tp1384
sVcaraway seed
p1385
(g5
tp1386
sVtable salt more
p1387
(g5
tp1388
sVshiitake
p1389
(g5
tp1390
sVparsley
p1391
(g5
tp1392
sVlightly packed mint leaf
p1393
(g5
tp1394
sVbeer
p1395
(g5
tp1396
sV-ounce envelope unflavored gelatin
p1397
(g5
tp1398
sVbeet
p1399
(g5
tp1400
sVlightly packed arugula
p1401
(g5
tp1402
sVroughly zucchini summer squash zucchini squash
p1403
(g5
tp1404
sVbasil
p1405
(g5
tp1406
sVpinch salt black pepper
p1407
(g5
tp1408
sVmild chilli powder
p1409
(g5
tp1410
sVbrewed espresso
p1411
(g5
tp1412
sVreal pumpkin pure
p1413
(g5
tp1414
sVaged balsamic vinegar
p1415
(g5
tp1416
sVtamari sauce
p1417
(g5
tp1418
sVpackage puff pastry sheet
p1419
(g5
tp1420
sVsprite
p1421
(g5
tp1422
sVlow-salt soy sauce
p1423
(g5
tp1424
sVbone-in
p1425
(g5
tp1426
sVoregano optional
p1427
(g5
tp1428
sVtoasted coconut
p1429
(g5
tp1430
sVroughly blue diamond oven roasted sea salt almond
p1431
(g5
tp1432
sVchile arbol
p1433
(g5
tp1434
sVseasoning blend
p1435
(g5
tp1436
sVmarinated roasted red pepper
p1437
(g5
tp1438
sVmyzithra cheese
p1439
(g5
tp1440
sV-ounce bundle chard about leaf
p1441
(g5
tp1442
sVwhite-wine vinegar
p1443
(g5
tp1444
sVfinely dill
p1445
(g5
tp1446
sVrose petal
p1447
(g5
tp1448
sVsliced almond
p1449
(g5
tp1450
sVenglish muffin
p1451
(g5
tp1452
sVolive oil vegetable oil
p1453
(g5
tp1454
sV-inch piece unpeeled ginger
p1455
(g5
tp1456
sVwhole green bell pepper
p1457
(g5
tp1458
sVfrac lime
p1459
(g5
tp1460
sVmelted
p1461
(g5
tp1462
sVbunch spinach leaf
p1463
(g5
tp1464
sVanchos
p1465
(g5
tp1466
sVold fashioned rolled oat
p1467
(g5
tp1468
sVtorn basil
p1469
(g5
tp1470
sVbasil you have
p1471
(g5
tp1472
sVplus kosher salt
p1473
(g5
tp1474
sVsilver tequila
p1475
(g5
tp1476
sVfirmly packed flat-leaf parsley
p1477
(g5
tp1478
sVbroth
p1479
(g5
tp1480
sVground sumac*
p1481
(g5
tp1482
sVone cilantro
p1483
(g5
tp1484
sVfrac cilantro*
p1485
(g5
tp1486
sVwhole-grain mustard
p1487
(g5
tp1488
sVscant kosher salt
p1489
(g5
tp1490
sVposole hominy
p1491
(g5
tp1492
sVkosher salt freshly ground pepper
p1493
(g5
tp1494
sVquaker old fashioned oat
p1495
(g5
tp1496
sVpack gnocchi
p1497
(g5
tp1498
sVfrac marzetti light caesar vinaigrette
p1499
(g5
tp1500
sVmarjoram leaf
p1501
(g5
tp1502
sVcherry syrup drained
p1503
(g5
tp1504
sVfrac kosher salt
p1505
(g5
tp1506
sVserrano chile
p1507
(g5
tp1508
sVsummer squash zucchini yellow squash about
p1509
(g5
tp1510
sV-inch-cubed yellow red seedless watermelon flesh
p1511
(g5
tp1512
sVserrano chili
p1513
(g5
tp1514
sVrigatoni
p1515
(g5
tp1516
sV-inch long piece horseradish root
p1517
(g5
tp1518
sVzucchini from about whole
p1519
(g5
tp1520
sVherb combination mint
p1521
(g5
tp1522
sVbaking powder
p1523
(g5
tp1524
sVsour cream plain
p1525
(g5
tp1526
sVsliced jalapeno
p1527
(g5
tp1528
sVfrac packed
p1529
(g5
tp1530
sVpack coriander
p1531
(g5
tp1532
sVbig drizzle good extra-virgin olive oil
p1533
(g5
tp1534
sVfiltered
p1535
(g5
tp1536
sVground freshly nutmeg
p1537
(g5
tp1538
sVpacket mccormick gluten free taco seasoning
p1539
(g5
tp1540
sVtoasted
p1541
(g5
tp1542
sVspice spice combination your choice chipotle powder
p1543
(g5
tp1544
sVpapaya
p1545
(g5
tp1546
sVpiece ginger
p1547
(g5
tp1548
sVground black pepper
p1549
(g5
tp1550
sVtahitian vanilla extract
p1551
(g5
tp1552
sVfew basil leaf
p1553
(g5
tp1554
sVtops
p1555
(lp1556
Vbottoms of a bunch of celery
p1557
asVsalsa ranchera your favourite salsa
p1558
(g5
tp1559
sVespresso powder
p1560
(g5
tp1561
sVbundle leaf are very wide
p1562
(g5
tp1563
sVgarlic
p1564
(g5
tp1565
sVherb bouquet*
p1566
(g5
tp1567
sS'tuna'
p1568
(S'$ 2.043 per lb. '
p1569
g264
tp1570
sVwhole unbaked pie crust use sylvia perfect pie crust recipe
p1571
(g5
tp1572
sVculinary lavender
p1573
(g5
tp1574
sS'butter'
p1575
(S'$ 2.108 per lb. '
p1576
g264
tp1577
sVcurrant raisin
p1578
(g5
tp1579
sVextra gingersnap
p1580
(g5
tp1581
sVtahini roasted
p1582
(g5
tp1583
sVred chile
p1584
(g5
tp1585
sVextra-firm nigari tofu
p1586
(g5
tp1587
sVpinch two nutmeg
p1588
(g5
tp1589
sVmaraschino liqueur
p1590
(g5
tp1591
sVfrac marzetti asian sesame salad accent
p1592
(g5
tp1593
sVdiced pineapple
p1594
(g5
tp1595
sVleaf basil
p1596
(g5
tp1597
sVfine salt
p1598
(g5
tp1599
sVgarnish cilantro red pepper flake
p1600
(g5
tp1601
sVextra-virgin olive oil olive oil
p1602
(g5
tp1603
sVpicante sauce
p1604
(g5
tp1605
sVunsweetened dutch-process cocoa powder
p1606
(g5
tp1607
sVkale
p1608
(g5
tp1609
sVwhole rib-eye
p1610
(g5
tp1611
sVsemi chocolate
p1612
(g5
tp1613
sVvanilla buttercream
p1614
(g5
tp1615
sVfrac chia seed
p1616
(g5
tp1617
sVfrac cayenne pepper
p1618
(g5
tp1619
sVwriting icing
p1620
(g5
tp1621
sVcheese swiss
p1622
(g5
tp1623
sVfinger length piece root ginger
p1624
(g5
tp1625
sVgood-quality dry sherry
p1626
(g5
tp1627
sVturbinado sugar-for sprinkling muffin top
p1628
(g5
tp1629
sS'ham'
p1630
(S'$ 4.259 per lb. '
p1631
tp1632
sVbunch flat-leaf spinach
p1633
(g5
tp1634
sVloosely dill
p1635
(g5
tp1636
sVcherry
p1637
(g5
tp1638
sVfood squash
p1639
(g5
tp1640
sVfrac captain morgan original spiced rum
p1641
(g5
tp1642
sVwhole andes mint
p1643
(g5
tp1644
sVpecorino cheese
p1645
(g5
tp1646
sVbasil leaf more
p1647
(g5
tp1648
sVdark semi-sweet chocolate
p1649
(g5
tp1650
sVcognac
p1651
(g5
tp1652
sVbanger
p1653
(g5
tp1654
sVabout raspberry jam
p1655
(g5
tp1656
sVbottle barbeque sauce
p1657
(g5
tp1658
sVmayonnaise salad dressing
p1659
(g5
tp1660
sVfood coloring
p1661
(g5
tp1662
sVfettuccine noodle
p1663
(g5
tp1664
sVacorn squash
p1665
(g5
tp1666
sVaubergine
p1667
(g5
tp1668
sVsoba noodle
p1669
(g5
tp1670
sVgood-quality dark chocolate cocoa solid
p1671
(g5
tp1672
sVmayo
p1673
(g5
tp1674
sVcoconut oil quality vegetable oil
p1675
(g5
tp1676
sVtoasted hazelnut
p1677
(g5
tp1678
sVbailey
p1679
(g5
tp1680
sVfrac tahini
p1681
(g5
tp1682
sV-ounce block cream cheese
p1683
(g5
tp1684
sVcanola olive oil
p1685
(g5
tp1686
sVpackage storebought pie crust
p1687
(g5
tp1688
sV-ml bottle chilled brut champagne
p1689
(g5
tp1690
sVsea salt freshly ground pepper
p1691
(g5
tp1692
sVrefrigerated sauerkraut
p1693
(g5
tp1694
sVone sized pumpkin
p1695
(g5
tp1696
sVbuckwheat soba japanese-style noodle vermicelli noodle
p1697
(g5
tp1698
sVfrac coconut
p1699
(g5
tp1700
sVroughly almond
p1701
(g5
tp1702
sVmirin
p1703
(g5
tp1704
sVroasted red pepper from
p1705
(g5
tp1706
sVspiral-shaped pasta
p1707
(g5
tp1708
sVherb such rosemary
p1709
(g5
tp1710
sVcuring salt
p1711
(g5
tp1712
sVwhole black peppercorn
p1713
(g5
tp1714
sVwhole bay leaf
p1715
(g5
tp1716
sVfluid tequila
p1717
(g5
tp1718
sVcrisco
p1719
(g5
tp1720
sVfinely cilantro
p1721
(g5
tp1722
sVfinely serrano
p1723
(g5
tp1724
sVunsmoked boneless gammon joint
p1725
(g5
tp1726
sVwhole wheat breadcrumb
p1727
(g5
tp1728
sVpinch freshly nutmeg
p1729
(g5
tp1730
sVground oregano
p1731
(g5
tp1732
sVwhole leek
p1733
(g5
tp1734
sVextra parsley
p1735
(g5
tp1736
sVpack crumbly goat cheese
p1737
(g5
tp1738
sVmixed berry used blackberry
p1739
(g5
tp1740
sVmariquita blog
p1741
(g5
tp1742
sVfrac mozzarella cheese
p1743
(g5
tp1744
sVsoftened cream cheese
p1745
(g5
tp1746
sVlumpia wrapper
p1747
(g5
tp1748
sVtaco sauce
p1749
(g5
tp1750
sV-inch diameter
p1751
(g5
tp1752
sValmond extract did n't add this
p1753
(g5
tp1754
sVmexican chocolate tablet
p1755
(g5
tp1756
sVwhole recipe pizza crust
p1757
(g5
tp1758
sVcaramel icing
p1759
(g5
tp1760
sVokra
p1761
(g5
tp1762
sVlite soy sauce tamari sauce
p1763
(g5
tp1764
sVpeeled ginger from about -ounce piece
p1765
(g5
tp1766
sVpackage strawberry flavored gelatin
p1767
(g5
tp1768
sVlightly packed cilantro leaf stem
p1769
(g5
tp1770
sVchia seed
p1771
(g5
tp1772
sVwhole chocolate sandwich cooky
p1773
(g5
tp1774
sVbroken pretzel stick
p1775
(g5
tp1776
sVpackage linguine noodle
p1777
(g5
tp1778
sVcaper with bit juice
p1779
(g5
tp1780
sVhigh quality parmesan cheese
p1781
(g5
tp1782
sVpacked spinach
p1783
(g5
tp1784
sVwhole green red bell pepper
p1785
(g5
tp1786
sS'corn'
p1787
(S'$ 0.713 per lb. '
p1788
g264
tp1789
sVpint heavy cream
p1790
(g5
tp1791
sVmango chutney
p1792
(g5
tp1793
sVflat-leaf kale
p1794
(g5
tp1795
sVsprig italian parsley
p1796
(g5
tp1797
sVfew pinch smoked paprika
p1798
(g5
tp1799
sS'american processed cheese'
p1800
(S'$ 5.566 per lb. '
p1801
tp1802
sV-or- -ounce container ricotta cheese
p1803
(g5
tp1804
sVwhole butternut squash
p1805
(g5
tp1806
sVground pepper
p1807
(g5
tp1808
sVfluid pineapple juice
p1809
(g5
tp1810
sVwheat germ
p1811
(g5
tp1812
sVquart low-sodium vegetable broth
p1813
(g5
tp1814
sVscoop plain vanilla protein powder
p1815
(g5
tp1816
sVoreo
p1817
(g5
tp1818
sVdill optional
p1819
(g5
tp1820
sVlingonberry
p1821
(g5
tp1822
sVfinely lime
p1823
(g5
tp1824
sVjalapeo pepper
p1825
(g5
tp1826
sVcanola oil
p1827
(g5
tp1828
sVspice-kissed pumpkin pie
p1829
(g5
tp1830
sVsansho pepper
p1831
(g5
tp1832
sVchilli sauce
p1833
(g5
tp1834
sVpinch sea salt
p1835
(g5
tp1836
sVparmigiano-reggiano
p1837
(g5
tp1838
sVplus
p1839
(g5
tp1840
sVclementine
p1841
(g5
tp1842
sVkale chard
p1843
(g5
tp1844
sVpomegranate aril
p1845
(g5
tp1846
sVrussian dressing thousand island dressing
p1847
(g5
tp1848
sVbread-and-butter pickle
p1849
(g5
tp1850
sVflatbread
p1851
(g5
tp1852
sVregular garlic
p1853
(g5
tp1854
sVred beet
p1855
(g5
tp1856
sVunsalted
p1857
(g5
tp1858
sVwhole-grain breadcrumb
p1859
(g5
tp1860
sVinch ginger
p1861
(g5
tp1862
sVlong skewer
p1863
(g5
tp1864
sVkosher salt ground pepper
p1865
(g5
tp1866
sVfrac baking soda
p1867
(g5
tp1868
sVburger bun
p1869
(g5
tp1870
sVfinely
p1871
(g5
tp1872
sVglass chardonnay
p1873
(g5
tp1874
sVwrap
p1875
(g5
tp1876
sVwhole sweet gerkins
p1877
(g5
tp1878
sVhalf-and-half
p1879
(g5
tp1880
sVdutch-processed cocoa powder
p1881
(g5
tp1882
sVwhole lime juice
p1883
(g5
tp1884
sVbig cilantro leaf
p1885
(g5
tp1886
sVbunch thin asparagus spear
p1887
(g5
tp1888
sVedible flowers*
p1889
(g5
tp1890
sVolive vegetable oil
p1891
(g5
tp1892
sVfrac bunch crinkly purple kale green kale
p1893
(g5
tp1894
sVorganic boneless
p1895
(g5
tp1896
sVblue cheese
p1897
(g5
tp1898
sVmexican-style cheese blend
p1899
(g5
tp1900
sVextra zest
p1901
(g5
tp1902
sVcalifornia avocado
p1903
(g5
tp1904
sVregular quick oat
p1905
(g5
tp1906
sVsalted caramel chocolate
p1907
(g5
tp1908
sVred miso white miso
p1909
(g5
tp1910
sVcoarsely apricot kernel
p1911
(g5
tp1912
sVgin
p1913
(g5
tp1914
sVdiamond crystal kosher salt
p1915
(g5
tp1916
sVsprig rosemary
p1917
(g5
tp1918
sVdry mustard
p1919
(g5
tp1920
sVfinely scallion
p1921
(g5
tp1922
sVoaty biscuit
p1923
(g5
tp1924
sVquart vegetable oil
p1925
(g5
tp1926
sVaged rum
p1927
(g5
tp1928
sVpussers rum
p1929
(g5
tp1930
sVquart plain air popped popcorn
p1931
(g5
tp1932
sVtabasco garlic pepper sauce
p1933
(g5
tp1934
sVcoriander parsley flatbread
p1935
(g5
tp1936
sVfrac smoked paprika
p1937
(g5
tp1938
sVenvelope fleischmann rapidrise yeast
p1939
(g5
tp1940
sVtuscan kale regular curly kale
p1941
(g5
tp1942
sVbunch rosemary
p1943
(g5
tp1944
sVwhole-milk mozzarella cheese
p1945
(g5
tp1946
sVoreo cooky
p1947
(g5
tp1948
sVflash-pasteurized pomegranate juice
p1949
(g5
tp1950
sVsprinkling toasted sunflower seed
p1951
(g5
tp1952
sVtarragon leaf
p1953
(g5
tp1954
sVsheet phyllo dough
p1955
(g5
tp1956
sVshelled hazelnut
p1957
(g5
tp1958
sVtempeh
p1959
(g5
tp1960
sVpackage ounch instant vanilla pudding mix
p1961
(g5
tp1962
sVoptional whole pomegranate seed rose petal
p1963
(g5
tp1964
sVpaprika
p1965
(g5
tp1966
sVpackage ladyfinger cooky
p1967
(g5
tp1968
sVsour cherry
p1969
(g5
tp1970
sVfish sauce such nam pla nuoc nam optional
p1971
(g5
tp1972
sVswig rum
p1973
(g5
tp1974
sVcornmeal crunch
p1975
(g5
tp1976
sVscant rosewater
p1977
(g5
tp1978
sVcreme fraiche
p1979
(g5
tp1980
sVinstructionsin bowl
p1981
(g5
tp1982
sVflat-leaf parsley leaf
p1983
(g5
tp1984
sVchestnut
p1985
(g5
tp1986
sV-ounce chocolate bar such hershey
p1987
(g5
tp1988
sVfat cream cheese
p1989
(g5
tp1990
sVfrac jalapeo
p1991
(g5
tp1992
sVhigh-quality balsamic vinegar
p1993
(g5
tp1994
sVdijon-style mustard
p1995
(g5
tp1996
sVsheet puff pastry
p1997
(g5
tp1998
sVpacket dry fajita seasoning
p1999
(g5
tp2000
sVfrac old-fashioned rolled oat
p2001
(g5
tp2002
sVthyme thyme flower
p2003
(g5
tp2004
sVmiso
p2005
(g5
tp2006
sVbaguette
p2007
(g5
tp2008
sVcanned jarred dulce leche preferably nestl
p2009
(g5
tp2010
sVcoarse cornmeal
p2011
(g5
tp2012
sVpepperjack cheese
p2013
(g5
tp2014
sVsweet red bell pepper seeded
p2015
(g5
tp2016
sVprepared mustard
p2017
(g5
tp2018
sVpre-made
p2019
(g5
tp2020
sVoptional additional garnish cilantro red pepper flake
p2021
(g5
tp2022
sVtinned chickpea
p2023
(g5
tp2024
sVcream coconut
p2025
(g5
tp2026
sVwebsite
p2027
(g5
tp2028
sVwhole chilies any variety
p2029
(g5
tp2030
sVpackage puff pastry*
p2031
(g5
tp2032
sVwhole jalapeno
p2033
(g5
tp2034
sVmore salt pepper
p2035
(g5
tp2036
sVleek
p2037
(g5
tp2038
sVwhipped cream
p2039
(g5
tp2040
sVserrano pepper diced
p2041
(g5
tp2042
sVlow fat cottage cheese
p2043
(g5
tp2044
sVactive dry instant yeast
p2045
(g5
tp2046
sVmixed summer berry
p2047
(g5
tp2048
sVtable salt
p2049
(g5
tp2050
sVpinch freshly ground white pepper
p2051
(g5
tp2052
sVunsweetened cocoa use natural unsweetened cocoa
p2053
(g5
tp2054
sVspin wonderful
p2055
(g5
tp2056
sVyour favorite pizza dough-we used this
p2057
(g5
tp2058
sVone buttermilk
p2059
(g5
tp2060
sVdark chocolate truffle
p2061
(g5
tp2062
sVcooking chorizo
p2063
(g5
tp2064
sVjarred vac-packed chesntnuts
p2065
(g5
tp2066
sVceltic sea salt
p2067
(g5
tp2068
sVfew big cubed tofu
p2069
(g5
tp2070
sVcotija queso fresco cheese
p2071
(g5
tp2072
sVdark soy sauce
p2073
(g5
tp2074
sVpurple beet
p2075
(g5
tp2076
sVreese piece
p2077
(g5
tp2078
sV-optional add-in
p2079
(g5
tp2080
sVequipment -inch baking pan
p2081
(g5
tp2082
sVcaraway
p2083
(g5
tp2084
sVheaped black mustard seed
p2085
(g5
tp2086
sVoven-proof saut pan cast iron pan
p2087
(g5
tp2088
sVpeppadew pepper
p2089
(g5
tp2090
sVpan brownie
p2091
(g5
tp2092
sVleek white pale-green part only
p2093
(g5
tp2094
sVfinely cilantro leaf stem
p2095
(g5
tp2096
sVground unsalted cashew
p2097
(g5
tp2098
sVseveral grind black pepper
p2099
(g5
tp2100
sVtap salt
p2101
(g5
tp2102
sVcoarsely crumbled feta cheese
p2103
(g5
tp2104
sVsachet easy-blend yeast
p2105
(g5
tp2106
sVoregano drizzle
p2107
(g5
tp2108
sS'chicken breast'
p2109
(S'$ 3.243 per lb. '
p2110
tp2111
sVoptional ingredient cheese
p2112
(g5
tp2113
sVpackage whole wheat penne
p2114
(g5
tp2115
sVkorean salted shrimp
p2116
(g5
tp2117
sVfrac whole wheat fettuccine
p2118
(g5
tp2119
sVfine-grain sea salt freshly ground black pepper
p2120
(g5
tp2121
sVwhole canned artichoke heart
p2122
(g5
tp2123
sVtable salt freshly ground black pepper
p2124
(g5
tp2125
sVadditional cheese
p2126
(g5
tp2127
sVred split lentil
p2128
(g5
tp2129
sVmahi mahi fillet
p2130
(g5
tp2131
sVmexican oregano
p2132
(g5
tp2133
sVchipotle salsa
p2134
(g5
tp2135
sValuminum free baking powder
p2136
(g5
tp2137
sVsriracha sauce
p2138
(g5
tp2139
sS'milk'
p2140
(S'$ 3.0 per gal. '
p2141
tp2142
sVfrac sake
p2143
(g5
tp2144
sVwhole garlic
p2145
(g5
tp2146
sVhershey special dark cocoa
p2147
(g5
tp2148
sVcollard green kale
p2149
(g5
tp2150
sVfrac coconut butter*
p2151
(g5
tp2152
sVpackage unflavored gelatin
p2153
(g5
tp2154
sVroasted pumpkin
p2155
(g5
tp2156
sVoregano pesto
p2157
(g5
tp2158
sVground cardamon
p2159
(g5
tp2160
sVfrac old-fashioned oat
p2161
(g5
tp2162
sVlawry seasoned salt
p2163
(g5
tp2164
sVvegetable broth
p2165
(g5
tp2166
sV-inch piece ginger
p2167
(g5
tp2168
sVcouscous
p2169
(g5
tp2170
sVfrac arrowroot starch
p2171
(g5
tp2172
sVheap parmesan
p2173
(g5
tp2174
sVhigh quality extra virgin olive oil
p2175
(g5
tp2176
sVfinely walnut
p2177
(g5
tp2178
sVfrac brown lentil
p2179
(g5
tp2180
sVicing
p2181
(g5
tp2182
sVpinch red pepper flake
p2183
(g5
tp2184
sVyeast
p2185
(g5
tp2186
sVrecipe
p2187
(g5
tp2188
sVarla dofino gouda cheese
p2189
(g5
tp2190
sVfreshly shaved parmesan
p2191
(g5
tp2192
sVbrownie
p2193
(g5
tp2194
sVbig cilantro coriander
p2195
(g5
tp2196
sVgarlic salt
p2197
(g5
tp2198
sVtube red decorating gel
p2199
(g5
tp2200
sVgruyre cheese
p2201
(g5
tp2202
sVfrac shaved parmesan
p2203
(g5
tp2204
sVwhite miso
p2205
(g5
tp2206
sVgaram masala*
p2207
(g5
tp2208
sVmargarita
p2209
(g5
tp2210
sS'peaches'
p2211
(S'$ 1.704 per lb. '
p2212
tp2213
sVlow-sodium vegetable stock
p2214
(g5
tp2215
sVdiced zucchini
p2216
(g5
tp2217
sVsweet honey mustard
p2218
(g5
tp2219
sVfrac freshly parmesan cheese
p2220
(g5
tp2221
sVpackage walker vanilla shortbread cooky from package
p2222
(g5
tp2223
sVred chili powder
p2224
(g5
tp2225
sVapproximately reserved chickpea cooking
p2226
(g5
tp2227
sVolive oil cooking spray
p2228
(g5
tp2229
sVfrac finely diced red bell pepper
p2230
(g5
tp2231
sVbuttermilk ranch dressing
p2232
(g5
tp2233
sVchocolate drop
p2234
(g5
tp2235
sVwhole hamburger bun
p2236
(g5
tp2237
sVskewer
p2238
(g5
tp2239
sVextra pecan
p2240
(g5
tp2241
sVflavoring such jam
p2242
(g5
tp2243
sVfudge sauce
p2244
(g5
tp2245
sVmore vegetable broth*
p2246
(g5
tp2247
sVmeat mixture
p2248
(g5
tp2249
sVshrimp shelled deviened
p2250
(g5
tp2251
sVhavarti cheese
p2252
(g5
tp2253
sVkosher sald
p2254
(g5
tp2255
sVloris salt caramel syrup
p2256
(g5
tp2257
sVall purpose flour*
p2258
(g5
tp2259
sVjuice from cherry
p2260
(g5
tp2261
sVcurrant
p2262
(g5
tp2263
sVbamboo shoot
p2264
(g5
tp2265
sVsliced pimentoes
p2266
(g5
tp2267
sS'other pork '
p2268
(S'$ 2.989 per lb. '
p2269
tp2270
sVextra basil leaf
p2271
(g5
tp2272
sVthinly sliced garlic
p2273
(g5
tp2274
sVseasoned panko breadcrumb
p2275
(g5
tp2276
sVport
p2277
(g5
tp2278
sVwhole cinnamon stick
p2279
(g5
tp2280
sVcoconut flake
p2281
(g5
tp2282
sVsalmon filet
p2283
(g5
tp2284
sVjuice lime
p2285
(g5
tp2286
sVwhole peppercorn
p2287
(g5
tp2288
sS'radishes '
p2289
(S'$ 1.005 per pound/453.6 grams'
p2290
g264
tp2291
sVcalamari
p2292
(g5
tp2293
sVgenerous pinch sea salt
p2294
(g5
tp2295
sVpie dough scrap from cutting -inch pie
p2296
(g5
tp2297
sVgarlic chile sauce
p2298
(g5
tp2299
sVsplash kirsch
p2300
(g5
tp2301
sVbalsamic vinaigrette
p2302
(g5
tp2303
sVdrop stevia
p2304
(g5
tp2305
sVcranberry cranberry
p2306
(g5
tp2307
sVful flax seed
p2308
(g5
tp2309
sVfrac freshly ground black pepper
p2310
(g5
tp2311
sVreserved pasta
p2312
(g5
tp2313
sVpackage size dry ranch dressing mix
p2314
(g5
tp2315
sVshaoxing dry sherry
p2316
(g5
tp2317
sVtoasted sesame seed mixed with cashew
p2318
(g5
tp2319
sVserve mint
p2320
(g5
tp2321
sVwhole kalamata olive
p2322
(g5
tp2323
sVchipotle chile powder
p2324
(g5
tp2325
sVspicy brown mustard
p2326
(g5
tp2327
sVserve torn basil
p2328
(g5
tp2329
sV-cheese italian blend
p2330
(g5
tp2331
sVmayo mixed with pesto
p2332
(g5
tp2333
sVbottle irish stout beer e.g guinness
p2334
(g5
tp2335
sVpeeled
p2336
(g5
tp2337
sVgreen chile pepper
p2338
(g5
tp2339
sVbasil pesto
p2340
(g5
tp2341
sVvanilla wafer cooky
p2342
(g5
tp2343
sVtequila mexican beer
p2344
(g5
tp2345
sVcreamy salad dressing such miracle whip
p2346
(g5
tp2347
sVwhole croissant
p2348
(g5
tp2349
sVyellow marzipan
p2350
(g5
tp2351
sVsliced diced bell pepper
p2352
(g5
tp2353
sVgreen bell pepper
p2354
(g5
tp2355
sVfrosting
p2356
(g5
tp2357
sVmountain dew soda
p2358
(g5
tp2359
sVstore-bought salsa
p2360
(g5
tp2361
sVfrac pepitas pecan
p2362
(g5
tp2363
sVpacket old paso fajita seasoning
p2364
(g5
tp2365
sVjarred salsa spicy best
p2366
(g5
tp2367
sVasparagus tip
p2368
(g5
tp2369
sVpowdered sugar-for serving
p2370
(g5
tp2371
sVbittersweet
p2372
(g5
tp2373
sVfrench toast
p2374
(g5
tp2375
sVfreshly ground cumin
p2376
(g5
tp2377
sVking prawn
p2378
(g5
tp2379
sVtaco seasoning store bought packet
p2380
(g5
tp2381
sVcinnamon
p2382
(g5
tp2383
sVdark green nori
p2384
(g5
tp2385
sVgood pinch chilli powder
p2386
(g5
tp2387
sVsea salt
p2388
(g5
tp2389
sVfreshly ground black pepper pinch red pepper flake
p2390
(g5
tp2391
sVfrac flaxseed oil extra-virgin olive oil
p2392
(g5
tp2393
sVwhole low-fat buttermilk
p2394
(g5
tp2395
sS'beef for stew'
p2396
(S'$ 4.699 per lb. '
p2397
tp2398
sVpimento cheese spread
p2399
(g5
tp2400
sVhigh-quality olive oil
p2401
(g5
tp2402
sVflaked unsweetened coconut
p2403
(g5
tp2404
sVpackage bow tie pasta
p2405
(g5
tp2406
sVmexican cheese
p2407
(g5
tp2408
sVfrac lukewarm
p2409
(g5
tp2410
sVplain vanilla
p2411
(g5
tp2412
sVthis dressing
p2413
(g5
tp2414
sVpink food colouring
p2415
(g5
tp2416
sVbox vegetale broth
p2417
(g5
tp2418
sVwholegrain mustard
p2419
(g5
tp2420
sVdark cocoa almond
p2421
(g5
tp2422
sVallspice berry
p2423
(g5
tp2424
sVsake
p2425
(g5
tp2426
sVchipotle paste
p2427
(g5
tp2428
sVcheese provolone
p2429
(g5
tp2430
sVpackage oreo chocolate sandwich cooky
p2431
(g5
tp2432
sVpita wedge
p2433
(g5
tp2434
sVlawry seasoning salt
p2435
(g5
tp2436
sVcascadian farm raspberry jam
p2437
(g5
tp2438
sVjam
p2439
(lp2440
Vclotted cream
p2441
asVdijon mustard your choice
p2442
(g5
tp2443
sVtorn mixed leafy green
p2444
(g5
tp2445
sVherring fillet
p2446
(g5
tp2447
sVmixed-colour pepper
p2448
(g5
tp2449
sVbutternut squash
p2450
(g5
tp2451
sVhoumous
p2452
(g5
tp2453
sVcornmeal masa
p2454
(g5
tp2455
sVpinch ground
p2456
(g5
tp2457
sVgarnish idea tiny feta cube
p2458
(g5
tp2459
sVenvelope
p2460
(g5
tp2461
sVroasted almond
p2462
(g5
tp2463
sVchocolate
p2464
(g5
tp2465
sVromano cheese
p2466
(g5
tp2467
sVpackage tortilla
p2468
(g5
tp2469
sVlevel fine sea salt
p2470
(g5
tp2471
sVpackage box vanilla instant pudding mix
p2472
(g5
tp2473
sVolive
p2474
(g5
tp2475
sVassorted cheese
p2476
(g5
tp2477
sVloosely packed cilantro
p2478
(g5
tp2479
sVfrac quartered artichoke heart
p2480
(g5
tp2481
sVunsweetened coconut flake
p2482
(g5
tp2483
sV-ounce canning
p2484
(g5
tp2485
sVchocolate sauce
p2486
(g5
tp2487
sVyellow grit
p2488
(g5
tp2489
sVpasta fettuccine
p2490
(g5
tp2491
sVdark beer
p2492
(g5
tp2493
sVpackage strawberry flavored jell-o
p2494
(g5
tp2495
sValmond breeze almondmilk coconutmilk original unsweetened
p2496
(g5
tp2497
sVgood storebought marinara sauce
p2498
(g5
tp2499
sVsoup
p2500
(g5
tp2501
sVdelallo organic whole wheat farfalle pasta
p2502
(g5
tp2503
sVliquid smoke flavoring
p2504
(g5
tp2505
sVquick rolled oat gluten-free
p2506
(g5
tp2507
sVbottle malty brown ale
p2508
(g5
tp2509
sVfreshly ground black pepper red pepper flake
p2510
(g5
tp2511
sVpickle
p2512
(g5
tp2513
sVsea salt flake
p2514
(g5
tp2515
sV-inch piece peeled ginger
p2516
(g5
tp2517
sVheaping finely rosemary
p2518
(g5
tp2519
sVwhole basil leaf
p2520
(g5
tp2521
sVfrac cashew
p2522
(g5
tp2523
sVmayonaise
p2524
(g5
tp2525
sVsheet nori
p2526
(g5
tp2527
sVganache
p2528
(g5
tp2529
sVred jalapeos fresno holland chile
p2530
(g5
tp2531
sVdry sherry
p2532
(g5
tp2533
sVbottle beer
p2534
(g5
tp2535
sVfat-free natural yoghurt
p2536
(g5
tp2537
sVpinch ground cinnamon
p2538
(g5
tp2539
sVgenerous parmesan cheese
p2540
(g5
tp2541
sVpie shell
p2542
(g5
tp2543
sVpinch fine salt
p2544
(g5
tp2545
sVcreamy bacon-cheese grit
p2546
(g5
tp2547
sVfrac ground cumin
p2548
(g5
tp2549
sVharissa
p2550
(g5
tp2551
sVcreole seasoning
p2552
(g5
tp2553
sVplus room-temperature
p2554
(g5
tp2555
sVfirm goat cheese
p2556
(g5
tp2557
sVpernod pastis
p2558
(g5
tp2559
sVsplash soda
p2560
(g5
tp2561
sVgood crust
p2562
(g5
tp2563
sVfrench baguette
p2564
(g5
tp2565
sVbittersweet chocolate
p2566
(g5
tp2567
sVloosely packed spinach
p2568
(g5
tp2569
sVflank
p2570
(g5
tp2571
sVpackage instant butterscotch pudding mix
p2572
(g5
tp2573
sVpackage mori-nu firm organic tofu
p2574
(g5
tp2575
sVwhole summer squash
p2576
(g5
tp2577
sVfinely semisweet bittersweet chocolate
p2578
(g5
tp2579
sVsmooth dijon mustard
p2580
(g5
tp2581
sVcornflakes cereal
p2582
(g5
tp2583
sVpint
p2584
(g5
tp2585
sVdulce leche caramel toffee
p2586
(g5
tp2587
sVfreshly parmesan
p2588
(g5
tp2589
sVfrac cumin
p2590
(g5
tp2591
sVapplesauce used chunky musselman\u2019s applesauce
p2592
(g5
tp2593
sVchili pepper flake
p2594
(g5
tp2595
sVdozen mint leaf
p2596
(g5
tp2597
sVone pineapple
p2598
(g5
tp2599
sVyeast sachet
p2600
(g5
tp2601
sVtwo pinch sea salt
p2602
(g5
tp2603
sVsunflower vegetable oil
p2604
(g5
tp2605
sVfavourite seasonal vegetable
p2606
(g5
tp2607
sVstinging nettles*
p2608
(g5
tp2609
sVfrac cinnamon
p2610
(g5
tp2611
sVyellow mustard
p2612
(g5
tp2613
sVcouple pinch sea salt
p2614
(g5
tp2615
sVdate
p2616
(g5
tp2617
sVfrac pumpkin puree
p2618
(g5
tp2619
sVstalk lemongrass
p2620
(g5
tp2621
sVblanched asparagus
p2622
(g5
tp2623
sVsmallish yellow squash
p2624
(g5
tp2625
sVnutella chocolate-hazelnut spread
p2626
(g5
tp2627
sVcanned artichoke heart
p2628
(g5
tp2629
sVflaked sweetened coconut
p2630
(g5
tp2631
sVpizza sauce
p2632
(g5
tp2633
sVsalt**
p2634
(g5
tp2635
sVextra-virgin olive
p2636
(g5
tp2637
sVgo-to
p2638
(g5
tp2639
sVshoyu sauce
p2640
(g5
tp2641
sVreal california sour cream creme fraiche
p2642
(g5
tp2643
sVmango
p2644
(g5
tp2645
sVsliced pepperoni
p2646
(g5
tp2647
sVgood coriander
p2648
(g5
tp2649
sVcayenne powder
p2650
(g5
tp2651
sVtahini
p2652
(g5
tp2653
sVmasa harina
p2654
(g5
tp2655
sVinstructionsplace everything into juicer juice
p2656
(g5
tp2657
sVfreshly ground allspice
p2658
(g5
tp2659
sVoat bran
p2660
(g5
tp2661
sVjr. mint
p2662
(g5
tp2663
sVpopcorn kernel
p2664
(g5
tp2665
sVpint blueberry
p2666
(g5
tp2667
sVcitrus zest
p2668
(g5
tp2669
sVarugula about
p2670
(g5
tp2671
sVfrac baking powder
p2672
(g5
tp2673
sVchickpea
p2674
(g5
tp2675
sVbasil mint cilantro sprig
p2676
(g5
tp2677
sVnbsp
p2678
(g5
tp2679
sVsorrel spinach lime juice
p2680
(g5
tp2681
sVdiced pepperoni
p2682
(g5
tp2683
sVspinach rinsed
p2684
(g5
tp2685
sVball mozzarella
p2686
(g5
tp2687
sVspring mix
p2688
(g5
tp2689
sS'cola'
p2690
(S'$ 1.384 per 2 liters '
p2691
g264
tp2692
sVfrac ginger frac powdered ginger
p2693
(g5
tp2694
sVyou 're ready switch bit
p2695
(g5
tp2696
sVavocado peeled
p2697
(g5
tp2698
sVpizza dough recipe
p2699
(g5
tp2700
sVgreen courgette
p2701
(g5
tp2702
sVpatty pan squash
p2703
(g5
tp2704
sV-inch knob ginger
p2705
(g5
tp2706
sVheaping ricotta cheese
p2707
(g5
tp2708
sVone bunch cilantro
p2709
(g5
tp2710
sVtahini use tahini made with toasted sesame seed
p2711
(g5
tp2712
sVcoriander seed blossom
p2713
(g5
tp2714
sVbell pepper various color
p2715
(g5
tp2716
sVred chile pepper flake
p2717
(g5
tp2718
sVserve micro green herb
p2719
(g5
tp2720
sVtonic
p2721
(g5
tp2722
sVred bell pepper
p2723
(g5
tp2724
sVbottled clam juice
p2725
(g5
tp2726
sVsweetened
p2727
(g5
tp2728
sVsemi- bittersweet chocolate
p2729
(g5
tp2730
sVitalian spice
p2731
(g5
tp2732
sVjuice from lime
p2733
(g5
tp2734
sVjarred marinara sauce pizza sauce
p2735
(g5
tp2736
sVfrac ground cinnamon
p2737
(g5
tp2738
sVdelallo organic orzo
p2739
(g5
tp2740
sVketchup
p2741
(g5
tp2742
sVwhole wheat pasta
p2743
(g5
tp2744
sVcaramel-pecan sauce
p2745
(g5
tp2746
sVanaheim green chile chile
p2747
(g5
tp2748
sVcider vinegar
p2749
(g5
tp2750
sVsemi-sweet bittersweet chocolate high quality
p2751
(g5
tp2752
sVwhole jalapeos
p2753
(g5
tp2754
sVfrac quinoa
p2755
(g5
tp2756
sVroughly mint leaf
p2757
(g5
tp2758
sVpineapple stick
p2759
(g5
tp2760
sVdrop red food coloring
p2761
(g5
tp2762
sVfirm mango
p2763
(g5
tp2764
sVhibiscus flower
p2765
(g5
tp2766
sVfew drop vanilla extract
p2767
(g5
tp2768
sValfalfa sprout
p2769
(g5
tp2770
sVhazelnut extract
p2771
(g5
tp2772
sVsweet pickle juice
p2773
(g5
tp2774
sVpinch nutmeg
p2775
(g5
tp2776
sVoptional mix-ins flax seed
p2777
(g5
tp2778
sVcracked black pepper
p2779
(g5
tp2780
sVcontainer vegetable broth
p2781
(g5
tp2782
sVdutched cocoa powder
p2783
(g5
tp2784
sVparmesan cheese
p2785
(g5
tp2786
sVarla dofino gouda
p2787
(g5
tp2788
sVpure pumpkin puree
p2789
(g5
tp2790
sVshaved coconut
p2791
(g5
tp2792
sVfewdrops iced
p2793
(g5
tp2794
sVfrac avocado
p2795
(g5
tp2796
sVfinely rosemary
p2797
(g5
tp2798
sVpinch freshly ground black pepper
p2799
(g5
tp2800
sVfish shellfish stock
p2801
(g5
tp2802
sVunsweetened flaked coconut
p2803
(g5
tp2804
sVsalt plenty black pepper
p2805
(g5
tp2806
sVgoose
p2807
(g5
tp2808
sVbunch thyme sprig
p2809
(g5
tp2810
sVpackage sliced strawberry
p2811
(g5
tp2812
sVprepared basil pesto
p2813
(g5
tp2814
sVcanola oil grapeseed oil
p2815
(g5
tp2816
sVnutritional yeast vegan parmesan
p2817
(g5
tp2818
sVpackage mini candy-coated chocolate
p2819
(g5
tp2820
sVkosher salt substitute regular table salt use
p2821
(g5
tp2822
sVamaretto
p2823
(g5
tp2824
sVbalsamic glaze
p2825
(g5
tp2826
sVsmallish zucchini
p2827
(g5
tp2828
sVroughly cilantro
p2829
(g5
tp2830
sVpackage nestle toll house semi-sweet chocolate morsel
p2831
(g5
tp2832
sVseaoned salt
p2833
(g5
tp2834
sVopened
p2835
(g5
tp2836
sVhigh quality rapeseed oil light sesame oil
p2837
(g5
tp2838
sVgarnish torn cilantro leaf red pepper flake
p2839
(g5
tp2840
sVancho chile relish
p2841
(g5
tp2842
sVmarcona almond regular almond
p2843
(g5
tp2844
sVtriple sec cointreau
p2845
(g5
tp2846
sVpeter caramel
p2847
(g5
tp2848
sS'rolls'
p2849
(S'$ 0.728 per pound/453.6 grams'
p2850
g264
tp2851
sVspring thyme
p2852
(g5
tp2853
sVold-fashioned rolled oat
p2854
(g5
tp2855
sVpackage dry taco seasoning mix
p2856
(g5
tp2857
sVwhole pie pumpkin
p2858
(g5
tp2859
sVsmall-dice spanish chorizo
p2860
(g5
tp2861
sVcheese curd
p2862
(g5
tp2863
sVlinguine
p2864
(g5
tp2865
sVsalt gram
p2866
(g5
tp2867
sVjumbo colossal shrimp
p2868
(g5
tp2869
sVsampling seasonal vegetable
p2870
(g5
tp2871
sVblue diamond toasted coconut almond
p2872
(g5
tp2873
sVeggs*
p2874
(g5
tp2875
sVcoconut oil
p2876
(g5
tp2877
sVlimeade concentrate
p2878
(g5
tp2879
sVdry ziti pasta
p2880
(g5
tp2881
sVbunch cilantro
p2882
(g5
tp2883
sVquark
p2884
(g5
tp2885
sVquart
p2886
(g5
tp2887
sVchilled heavy cream
p2888
(g5
tp2889
sVheaped cumin seed
p2890
(g5
tp2891
sVextra-firm tofu cut into tiny-inch cube
p2892
(g5
tp2893
sVpiece root ginger
p2894
(g5
tp2895
sVdark unsweetened cocoa powder
p2896
(g5
tp2897
sVsoft goat cheese
p2898
(g5
tp2899
sVextra sea salt
p2900
(g5
tp2901
sVpancake
p2902
(g5
tp2903
sVwhole nutmeg
p2904
(g5
tp2905
sVextra cheese basil
p2906
(g5
tp2907
sVpico gallo salsa
p2908
(g5
tp2909
sVsmoked paprika
p2910
(g5
tp2911
sVwheat bran
p2912
(g5
tp2913
sVfrac flat-leaf parsley leaf
p2914
(g5
tp2915
sVvegetable stock
p2916
(g5
tp2917
sVpepperoni
p2918
(g5
tp2919
sVinstant dashi granule
p2920
(g5
tp2921
sVcalifornia cheese
p2922
(g5
tp2923
sVsoft cheese
p2924
(g5
tp2925
sVbasil leave
p2926
(g5
tp2927
sVbrown lentil
p2928
(g5
tp2929
sVcherry cranberry
p2930
(g5
tp2931
sVsilver
p2932
(g5
tp2933
sVglove garlic
p2934
(g5
tp2935
sVcheese
p2936
(g5
tp2937
sVdiced pimento
p2938
(g5
tp2939
sVland lake
p2940
(g5
tp2941
sVfrac cilantro
p2942
(g5
tp2943
sVthick teriyaki sauce
p2944
(g5
tp2945
sVmayonnaise not use reduced-fat fat-free
p2946
(g5
tp2947
sVoptional oregano cumin
p2948
(g5
tp2949
sVdry chow mein noodle
p2950
(g5
tp2951
sVlightly sweetened whipped cream
p2952
(g5
tp2953
sVseafood mix
p2954
(g5
tp2955
sVcurry powder*
p2956
(g5
tp2957
sVtamari
p2958
(g5
tp2959
sVfinely dill weed
p2960
(g5
tp2961
sVfrac steel cut oat
p2962
(g5
tp2963
sVone package instant chocolate pudding
p2964
(g5
tp2965
sVsweetened sour cherry
p2966
(g5
tp2967
sVground chili powder
p2968
(g5
tp2969
sVhoney maple syrup
p2970
(g5
tp2971
sVold bay seasoning
p2972
(g5
tp2973
sVtiny drop pure vanilla extract
p2974
(g5
tp2975
sVplus buttermilk
p2976
(g5
tp2977
sVbit crumbled feta
p2978
(g5
tp2979
sVcoriander leaf
p2980
(g5
tp2981
sVnatural unsweetened cocoa powder
p2982
(g5
tp2983
sVswedish rye cooky
p2984
(g5
tp2985
sVextra salt pepper
p2986
(g5
tp2987
sVfinely ground espresso
p2988
(g5
tp2989
sVfreshly parmesan-reggiano cheese
p2990
(g5
tp2991
sVjarred jalapeno
p2992
(g5
tp2993
sVfrac green bell pepper
p2994
(g5
tp2995
sVloaf jalapeno cornbread
p2996
(g5
tp2997
sVmore scallion
p2998
(g5
tp2999
sVthinly sliced stemmed tuscan kale leaf
p3000
(g5
tp3001
sVblanched almond
p3002
(g5
tp3003
sVboulange
p3004
(g5
tp3005
sVfig apricot jam
p3006
(g5
tp3007
sVimitation crab
p3008
(g5
tp3009
sVfrac natural unsweetened cocoa powder
p3010
(g5
tp3011
sVgood quality dark chocolate
p3012
(g5
tp3013
sVthinly sliced mozarella cheese
p3014
(g5
tp3015
sVfrac oat flour*
p3016
(g5
tp3017
sVseason with salt
p3018
(g5
tp3019
sVblack sesame seed
p3020
(g5
tp3021
sVfrac cracked black pepper
p3022
(g5
tp3023
sVpackage ladyfinger
p3024
(g5
tp3025
sVskinless salmon fillet
p3026
(g5
tp3027
sVblack peppercorn
p3028
(g5
tp3029
sVsolid pack pumpkin
p3030
(g5
tp3031
sVground sea salt
p3032
(g5
tp3033
sViceberg
p3034
(g5
tp3035
sVvanilla extract**
p3036
(g5
tp3037
sVpinch paprika
p3038
(g5
tp3039
sVanother splash two good olive oil citrus dressing
p3040
(g5
tp3041
sVcarton single cream
p3042
(g5
tp3043
sVplus basil leaf
p3044
(g5
tp3045
sVkale leaf
p3046
(g5
tp3047
sVactive dry yeast from -ounce gram envelope yeast
p3048
(g5
tp3049
sVoat flour*
p3050
(g5
tp3051
sVcroissant
p3052
(g5
tp3053
sVnutritional yeast
p3054
(g5
tp3055
sVfinely candied ginger
p3056
(g5
tp3057
sVchinkiang balsamic vinegar
p3058
(g5
tp3059
sVfinely parmesan
p3060
(g5
tp3061
sVgreen lentil
p3062
(g5
tp3063
sVjust-ripe mango
p3064
(g5
tp3065
sVcoconut
p3066
(g5
tp3067
sVtoasted sunflower seeds*
p3068
(g5
tp3069
sVrapeseed oil
p3070
(g5
tp3071
sVplus agave nectar honey
p3072
(g5
tp3073
sVflavorful
p3074
(g5
tp3075
sVdry cider
p3076
(g5
tp3077
sVlasagna noodle
p3078
(g5
tp3079
sVpure virgin coconut oil
p3080
(g5
tp3081
sVminiature pretzel
p3082
(g5
tp3083
sVextra pepper jack
p3084
(g5
tp3085
sVfinely-chopped flat-leaf parsley
p3086
(g5
tp3087
sVgolden raisin optional
p3088
(g5
tp3089
sVcoarse kosher salt
p3090
(g5
tp3091
sV-ounce tube prepared polenta
p3092
(g5
tp3093
sVpillsbury crescent recipe creation refrigerated seamless dough sheet
p3094
(g5
tp3095
sVpint kumquat
p3096
(g5
tp3097
sVlevel organic vegetable stock powder
p3098
(g5
tp3099
sVsprig thyme leaf
p3100
(g5
tp3101
sVfrac butternut squash
p3102
(g5
tp3103
sS'chicken legs'
p3104
(S'$ 1.497 per lb. '
p3105
tp3106
sVred pepper
p3107
(g5
tp3108
sVswiss chard pesto
p3109
(g5
tp3110
sVlight mayonaise
p3111
(g5
tp3112
sVkroger lite soy sauce tamari sauce
p3113
(g5
tp3114
sVcoconut cream
p3115
(g5
tp3116
sVsteel-cut oat
p3117
(g5
tp3118
sVroasted poblano pepper
p3119
(g5
tp3120
sVbox -ounces vanilla wafer
p3121
(g5
tp3122
sVwell-washed thinly sliced leek
p3123
(g5
tp3124
sVpineapple with juice
p3125
(g5
tp3126
sVheaped whole-grain dijon
p3127
(g5
tp3128
sVmelted coconut oil extra-virgin olive oil
p3129
(g5
tp3130
sVtopping
p3131
(g5
tp3132
sVold paso bold nacho cheese stand stuff taco shell
p3133
(g5
tp3134
sVbok choy
p3135
(g5
tp3136
sVplus unsweetened cocoa powder
p3137
(g5
tp3138
sVtoasted coconut flake
p3139
(g5
tp3140
sVchocolate bar
p3141
(g5
tp3142
sVmixed herb such basil
p3143
(g5
tp3144
sVcheese ravioli
p3145
(g5
tp3146
sVold fashioned oat use certified gluten-free oat you are avoiding gluten
p3147
(g5
tp3148
sVboiling
p3149
(g5
tp3150
sVvery thin prosciutto
p3151
(g5
tp3152
sVpackage spring mix salad mix
p3153
(g5
tp3154
sVprepared whole wheat pie crust
p3155
(g5
tp3156
sVcoarse salt freshly ground black pepper
p3157
(g5
tp3158
sVpinch saffron
p3159
(g5
tp3160
sVhoneydew melon
p3161
(g5
tp3162
sVpepper jack cheese
p3163
(g5
tp3164
sVorganic vegetable stock
p3165
(g5
tp3166
sVfinely bittersweet chocolate
p3167
(g5
tp3168
sVwhite balsamic vinegar
p3169
(g5
tp3170
sVstrawberry avocado salsa
p3171
(g5
tp3172
sVangostura bitter
p3173
(g5
tp3174
sVgoat cheese cream cheese
p3175
(g5
tp3176
sVdutch-process cocoa powder
p3177
(g5
tp3178
sVcocoa nib
p3179
(g5
tp3180
sVpepper sauce e.g tabasco
p3181
(g5
tp3182
sVspecial equipment two loaf pan
p3183
(g5
tp3184
sVold paso fajita dinner kit
p3185
(g5
tp3186
sVtart cherry cranberry
p3187
(g5
tp3188
sVasiago cheese
p3189
(g5
tp3190
sVplus olive oil
p3191
(g5
tp3192
sVradicchio
p3193
(g5
tp3194
sVpack trimmed leek
p3195
(g5
tp3196
sVsalt
p3197
(g5
tp3198
sVpackaged gnocchi
p3199
(g5
tp3200
sVroughly parmesan
p3201
(g5
tp3202
sVseeded soft tortilla
p3203
(g5
tp3204
sVmelted butterolive oil
p3205
(g5
tp3206
sVextra thyme
p3207
(g5
tp3208
sVextra firm tofu
p3209
(g5
tp3210
sVspecial equipment casserole pan
p3211
(g5
tp3212
sVcoarse sea salt
p3213
(g5
tp3214
sVplus panko
p3215
(g5
tp3216
sVunsweetened cocoa powder preferably dutch-process
p3217
(g5
tp3218
sVsesame oil
p3219
(g5
tp3220
sVfine-grain sea salt
p3221
(g5
tp3222
sVgreen chili powder
p3223
(g5
tp3224
sVfinely shallot
p3225
(g5
tp3226
sVstick land lake
p3227
(g5
tp3228
sVqueso fresco
p3229
(g5
tp3230
sVdark chocolate cocoa
p3231
(g5
tp3232
sVcrumbled queso fresco
p3233
(g5
tp3234
sVground
p3235
(g5
tp3236
sVfrac about frac lime lime juice
p3237
(g5
tp3238
sVcornflake crumb
p3239
(g5
tp3240
sVassorted veggie cauliflower
p3241
(g5
tp3242
sVfavorite
p3243
(g5
tp3244
sVnectarine
p3245
(g5
tp3246
sVchinese black vinegar
p3247
(g5
tp3248
sVdry rosemary
p3249
(g5
tp3250
sVhash brown
p3251
(g5
tp3252
sVserving suggestion avocado
p3253
(g5
tp3254
sVpinch ground nutmeg
p3255
(g5
tp3256
sVblack
p3257
(g5
tp3258
sVsalted caramel sauce
p3259
(g5
tp3260
sVfrac molasses
p3261
(g5
tp3262
sVsprout
p3263
(g5
tp3264
sVdry ranch dressing seasoning packet
p3265
(g5
tp3266
sVwhole -ounce square semi-sweet chocolate
p3267
(g5
tp3268
sVpumpkin
p3269
(g5
tp3270
sVcannelloni tube
p3271
(g5
tp3272
sVpeeled ginger
p3273
(g5
tp3274
sVpack blueberry
p3275
(g5
tp3276
sValmond sliver
p3277
(g5
tp3278
sVfavorite five minute
p3279
(g5
tp3280
sVhorseradish mayo straight prepared horseradish
p3281
(g5
tp3282
sVfinely peeled ginger
p3283
(g5
tp3284
sVcontainer marshmallow creme
p3285
(g5
tp3286
sVpacked arugula basil
p3287
(g5
tp3288
sVgoat cheese
p3289
(g5
tp3290
sVbutternut kabocha squash
p3291
(g5
tp3292
sVlight golden aleale
p3293
(g5
tp3294
sVpanettone
p3295
(g5
tp3296
sVheaping white yellow miso
p3297
(g5
tp3298
sVroasted red pepper hummus
p3299
(g5
tp3300
sVmelted coconut oil extra-virgin olive oil high quality vegetable oil*
p3301
(g5
tp3302
sV-inch-long individual baguette four -inch-long piece french-bread baguette
p3303
(g5
tp3304
sVblackberry raspberry liqueur
p3305
(g5
tp3306
sVblack mustard seed
p3307
(g5
tp3308
sVquart strawberry
p3309
(g5
tp3310
sVfreshly ground pepper
p3311
(g5
tp3312
sVdeli-sliced tamed jalapeno pepper
p3313
(g5
tp3314
sVcumin
p3315
(g5
tp3316
sVoregano italian seasoning blend
p3317
(g5
tp3318
sVpackage mild taco seasoning mix
p3319
(g5
tp3320
sV-milliliter bottle framboise lambic
p3321
(g5
tp3322
sVbottle champagne
p3323
(g5
tp3324
sVlevel ground
p3325
(g5
tp3326
sVagave nectar
p3327
(g5
tp3328
sV-count package refrigerated biscuit
p3329
(g5
tp3330
sVcanned pumpkin puree
p3331
(g5
tp3332
sVtortilla
p3333
(g5
tp3334
sVadditional raspberry
p3335
(g5
tp3336
sVloose masala chai tied cheesecloth
p3337
(g5
tp3338
sVplus finely parmesan cheese
p3339
(g5
tp3340
sVwhole caramel
p3341
(g5
tp3342
sVwatercress spinach
p3343
(g5
tp3344
sVbittersweet chocolate not exceed cacao
p3345
(g5
tp3346
sVpack cranberry
p3347
(g5
tp3348
sVcoarsely crumbled feta
p3349
(g5
tp3350
sVgarnish side basil cilantro
p3351
(g5
tp3352
sVreduced-sodium tamari* soy sauce
p3353
(g5
tp3354
sVpint-sized canning
p3355
(g5
tp3356
sValmond paste
p3357
(g5
tp3358
sVsliced strawberry
p3359
(g5
tp3360
sVplum preserve
p3361
(g5
tp3362
sVquick oat
p3363
(g5
tp3364
sVpepper jack
p3365
(g5
tp3366
sVitalian seasoning more
p3367
(g5
tp3368
sVgruy cheese thinly sliced
p3369
(g5
tp3370
sVworcestershire sauce
p3371
(g5
tp3372
sVplus mayonnaise
p3373
(g5
tp3374
sVsaffron thread thread
p3375
(g5
tp3376
sVswiss chard stem
p3377
(g5
tp3378
sVsqueeze lime juice
p3379
(g5
tp3380
sVwhole coriander seed
p3381
(g5
tp3382
sVyellow green bell pepper
p3383
(g5
tp3384
sVpure maple syrup
p3385
(g5
tp3386
sVfrac balsamic vinegar
p3387
(g5
tp3388
sVbunch tarragon
p3389
(g5
tp3390
sVchipotle chilies adobo sauce
p3391
(g5
tp3392
sVanchovy paste canned anchovy
p3393
(g5
tp3394
sVwhole cauliflower
p3395
(g5
tp3396
sVcultured buttermilk
p3397
(g5
tp3398
sVarugula leaf
p3399
(g5
tp3400
sVlime wedge
p3401
(g5
tp3402
sVwell-strained
p3403
(g5
tp3404
sVpizza dough
p3405
(g5
tp3406
sVheaped sweet smoked paprika
p3407
(g5
tp3408
sVclo
p3409
(g5
tp3410
sVtoasted sunflower seed
p3411
(g5
tp3412
sVpackage package cream cheese
p3413
(g5
tp3414
sVchipotle lime mayo
p3415
(g5
tp3416
sVeasy marinara sauce
p3417
(g5
tp3418
sVpackage refrigerated biscuit dough
p3419
(g5
tp3420
sVyellow red bell pepper
p3421
(g5
tp3422
sVpackage active dry yeast
p3423
(g5
tp3424
sVroasted delicata squash salad
p3425
(g5
tp3426
sVherb provence
p3427
(g5
tp3428
sVextra virgin olive oil
p3429
(g5
tp3430
sVyellow pepper
p3431
(g5
tp3432
sVextra-virgin olive oil
p3433
(g5
tp3434
sVberry
p3435
(g5
tp3436
sVfinely basil leaf
p3437
(g5
tp3438
sVchorizo
p3439
(g5
tp3440
sVextra granola cluster
p3441
(g5
tp3442
sVpackage pho spice cinnamon stick
p3443
(g5
tp3444
sVground almond
p3445
(g5
tp3446
sVsliced mint leaf
p3447
(g5
tp3448
sVyellow chartreuse
p3449
(g5
tp3450
sV-inch-diameter springform pan
p3451
(g5
tp3452
sVpack shortcrust pastry
p3453
(g5
tp3454
sVsalt-packed caper
p3455
(g5
tp3456
sVmustard powder
p3457
(g5
tp3458
sVcanned plain pumpkin
p3459
(g5
tp3460
sVclementine juice
p3461
(g5
tp3462
sVflat-leaf parsley
p3463
(g5
tp3464
sVextra pickle juice
p3465
(g5
tp3466
sVyour favorite bbq sauce
p3467
(g5
tp3468
sVred quinoa
p3469
(g5
tp3470
sVemmentaler cheese
p3471
(g5
tp3472
sS'turkey'
p3473
(S'$ 1.063 per lb. '
p3474
g264
tp3475
sVblue diamond honey roasted cinnamon almond
p3476
(g5
tp3477
sVpint double cream
p3478
(g5
tp3479
sVsherry vinegar
p3480
(g5
tp3481
sVdill caper sauce see below
p3482
(g5
tp3483
sVpackage instant vanilla pudding mix
p3484
(g5
tp3485
sVextra cilantro
p3486
(g5
tp3487
sVsquash blossom
p3488
(g5
tp3489
sS'shortening'
p3490
(S'$ 0.866 per lb. '
p3491
g264
tp3492
sVangel hair pasta
p3493
(g5
tp3494
sVziti pasta
p3495
(g5
tp3496
sVdouble cream
p3497
(g5
tp3498
sVsnickerdoodle cooky
p3499
(g5
tp3500
sVfrac cocoa powder
p3501
(g5
tp3502
sVworcestershire
p3503
(g5
tp3504
sVchive flower chive
p3505
(g5
tp3506
sVhoisin sauce
p3507
(g5
tp3508
sVvery fish fillet
p3509
(g5
tp3510
sVsolid-pack pumpkin
p3511
(g5
tp3512
sVwhole pineapple
p3513
(g5
tp3514
sVfamily pack mixed pepper
p3515
(g5
tp3516
sVfrac cranberry
p3517
(g5
tp3518
sVheaped ginger
p3519
(g5
tp3520
sVirish cream liqueur
p3521
(g5
tp3522
sVfrac melted coconut oil olive oil
p3523
(g5
tp3524
sVheaping caper
p3525
(g5
tp3526
sVpowder-kissed pretty
p3527
(g5
tp3528
sVcilantro sprig
p3529
(g5
tp3530
sVbun choice english muffin
p3531
(g5
tp3532
sVnigella seed
p3533
(g5
tp3534
sVoptional parsley
p3535
(g5
tp3536
sVfrac loosely packed basil
p3537
(g5
tp3538
sVwhole oreo chocolate sandwich cooky
p3539
(g5
tp3540
sVporridge oat
p3541
(g5
tp3542
sVlow-fat crme frache
p3543
(g5
tp3544
sVcarton double cream
p3545
(g5
tp3546
sVslivered almond pepitas
p3547
(g5
tp3548
sVwhole grain pasta
p3549
(g5
tp3550
sVclam shell
p3551
(g5
tp3552
sVfrac reduced-sodium tamari soy sauce
p3553
(g5
tp3554
sV-ounce container ricotta cheese
p3555
(g5
tp3556
sVharvarti cheese
p3557
(g5
tp3558
sVzucchini noodle grilled shrimp shrimp count
p3559
(g5
tp3560
sVdutch-process cocoa
p3561
(g5
tp3562
sVwhite whole wheat pizza dough
p3563
(g5
tp3564
sVvarious topping toasted sesame seed
p3565
(g5
tp3566
sVpinch ground mace nutmeg
p3567
(g5
tp3568
sVfreshly nutmeg
p3569
(g5
tp3570
sV-ounce salmon fillet
p3571
(g5
tp3572
sVgluten-free tamari
p3573
(g5
tp3574
sVguinness smooth dark ale
p3575
(g5
tp3576
sVjarred refrigerated pesto
p3577
(g5
tp3578
sVcooking sherry
p3579
(g5
tp3580
sVsqueezed lime juice
p3581
(g5
tp3582
sVpineapple ring syrup
p3583
(g5
tp3584
sVupdated gram applesauce
p3585
(g5
tp3586
sVsummer squash zucchini
p3587
(g5
tp3588
sVsemi chocolate bittersweet chocolate
p3589
(g5
tp3590
sVchopstick
p3591
(g5
tp3592
sV-inch you have cast-iron frying pan
p3593
(g5
tp3594
sVglaze
p3595
(g5
tp3596
sVsalt heaping flaky salt
p3597
(g5
tp3598
sVcanola oil vegetable oil
p3599
(g5
tp3600
sVtoasted pepitas used
p3601
(g5
tp3602
sVroasted pistachio
p3603
(g5
tp3604
sVoyster sauce
p3605
(g5
tp3606
sVbunch summer savory
p3607
(g5
tp3608
sVchipotle adobo
p3609
(g5
tp3610
sVpresident brie cheese
p3611
(g5
tp3612
sVtoasted sesame seeds*
p3613
(g5
tp3614
sVtbsps oregano leaf
p3615
(g5
tp3616
sVscant organic cornstarch
p3617
(g5
tp3618
sVmasa regular cornmeal
p3619
(g5
tp3620
sVroasted bell pepper
p3621
(g5
tp3622
sVvery heavy cream
p3623
(g5
tp3624
sVbowl
p3625
(g5
tp3626
sVcoarsely
p3627
(g5
tp3628
sVfrac crumbled feta cheese
p3629
(g5
tp3630
sVwhole squash
p3631
(g5
tp3632
sVground cinnamon
p3633
(g5
tp3634
sVfrac frac salt
p3635
(g5
tp3636
sVolive oil canola oil
p3637
(g5
tp3638
sVwhite crabmeat
p3639
(g5
tp3640
sVall-purpose four
p3641
(g5
tp3642
sVsprinkle chili powder
p3643
(g5
tp3644
sV-ounce hominy
p3645
(g5
tp3646
sVprepared salsa
p3647
(g5
tp3648
sVoil
p3649
(g5
tp3650
sVgenerous olive oil
p3651
(g5
tp3652
sVricotta cheese
p3653
(g5
tp3654
sVfreshly black pepper
p3655
(g5
tp3656
sVfinger-sized piece root ginger
p3657
(g5
tp3658
sVregular size hershey chocolate bar
p3659
(g5
tp3660
sV-ounce
p3661
(g5
tp3662
sVfrac terragon
p3663
(g5
tp3664
sVfrac pineapple
p3665
(g5
tp3666
sVsachet yeast
p3667
(g5
tp3668
sVlot freshly ground black pepper
p3669
(g5
tp3670
sVcilantro coriander
p3671
(g5
tp3672
sVfreshly ground black saltpepper
p3673
(g5
tp3674
sVblack sweet cherry
p3675
(g5
tp3676
sVegg*
p3677
(g5
tp3678
sVadobo
p3679
(g5
tp3680
sVsprig parsley
p3681
(g5
tp3682
sVunsalted pecan
p3683
(g5
tp3684
sVwhole hatch
p3685
(g5
tp3686
sVsmoked mozzarella
p3687
(g5
tp3688
sV-up
p3689
(g5
tp3690
sVlow-fat cottage cheese
p3691
(g5
tp3692
sVpumpkin squash
p3693
(g5
tp3694
sVabout heaping kosher salt
p3695
(g5
tp3696
sVmixed olive
p3697
(g5
tp3698
sVfrac shrimp
p3699
(g5
tp3700
sVpumpkin squash flesh
p3701
(g5
tp3702
sVbunch mint
p3703
(g5
tp3704
sVpinch ground white pepper
p3705
(g5
tp3706
sVflaky sea salt table salt
p3707
(g5
tp3708
sVdrizzle olive oil
p3709
(g5
tp3710
sVcool mint oreo cooky
p3711
(g5
tp3712
sVdr. pepper
p3713
(g5
tp3714
sVoil-packed anchovy
p3715
(g5
tp3716
sVbatch roasted red pepper toasted walnut pesto see below
p3717
(g5
tp3718
sVapricot preserve
p3719
(g5
tp3720
sVbunch curly green kale
p3721
(g5
tp3722
sVbaking soda*
p3723
(g5
tp3724
sVpumpkin puree not pumpkin pie filling
p3725
(g5
tp3726
sVpecorino romano cheese finish
p3727
(g5
tp3728
sV-ounce package mixed vegetable
p3729
(g5
tp3730
sVlimes-for juicing over salad
p3731
(g5
tp3732
sVcubed cantaloupe
p3733
(g5
tp3734
sVcalifornia cream cheese
p3735
(g5
tp3736
sVgood quality miso
p3737
(g5
tp3738
sVnewman own lite balsamic dressing
p3739
(g5
tp3740
sVmarjoram
p3741
(g5
tp3742
sVsalsa naranja sweet chili sauce
p3743
(g5
tp3744
sVfrac cayenne pepper start with
p3745
(g5
tp3746
sVfinely parmesan cheese
p3747
(g5
tp3748
sVbig toasted cashew
p3749
(g5
tp3750
sVgood grind nutmeg
p3751
(g5
tp3752
sVunflavored gelatin
p3753
(g5
tp3754
sVpure vanilla
p3755
(g5
tp3756
sVherbed goat cheese
p3757
(g5
tp3758
sVcumin seed
p3759
(g5
tp3760
sVextra mayonnaise dijon
p3761
(g5
tp3762
sVvarious tube gel icing
p3763
(g5
tp3764
sVrose
p3765
(g5
tp3766
sVpackage mccormick gluten-free chili seasoning mix
p3767
(g5
tp3768
sVcayenne
p3769
(g5
tp3770
sVvietnamese caramel salmon
p3771
(g5
tp3772
sVmixed green
p3773
(g5
tp3774
sVblog
p3775
(g5
tp3776
sVfrac maple syrup honey
p3777
(g5
tp3778
sVcouple big pinch fine-grain sea salt
p3779
(g5
tp3780
sVdelallo marinara pasta sauce
p3781
(g5
tp3782
sVteasoon coconut extract
p3783
(g5
tp3784
sVdiced mango
p3785
(g5
tp3786
sVpaprika sweet
p3787
(g5
tp3788
sVlevel cayenne pepper
p3789
(g5
tp3790
sVspice cardamom
p3791
(g5
tp3792
sVpacked cilantro
p3793
(g5
tp3794
sVcampfire marshmallow giant roaster
p3795
(g5
tp3796
sVyour favorite sauce
p3797
(g5
tp3798
sVcottage cheese
p3799
(g5
tp3800
sVsemisweet bittersweet chocolate not exceed cacao
p3801
(g5
tp3802
sVanchovy
p3803
(g5
tp3804
sVdistilled vinegar
p3805
(g5
tp3806
sVchipotle chili adobo
p3807
(g5
tp3808
sVfreshly cracked black pepper
p3809
(g5
tp3810
sVsplash extra-virgin olive oil
p3811
(g5
tp3812
sVheavy cream half-and-half
p3813
(g5
tp3814
sVabout caramel topping
p3815
(g5
tp3816
sVbottle pinot noir
p3817
(g5
tp3818
sVlime juice about lime
p3819
(g5
tp3820
sVchile flake
p3821
(g5
tp3822
sVbird eye chilies
p3823
(g5
tp3824
sVyou use store bought
p3825
(g5
tp3826
sVred chili pepper flake
p3827
(g5
tp3828
sVpackage baker semi-sweet baking chocolate
p3829
(g5
tp3830
sVpacked ginger root
p3831
(g5
tp3832
sVquart quart
p3833
(g5
tp3834
sVspread your choice mayo
p3835
(g5
tp3836
sVbasil leaf
p3837
(g5
tp3838
sVhomemade red sauce
p3839
(g5
tp3840
sVbit tarragon
p3841
(g5
tp3842
sVgreen chilies
p3843
(g5
tp3844
sVtoasted sliced almond
p3845
(g5
tp3846
sVwell-shaken buttermilk
p3847
(g5
tp3848
sVtube almond paste
p3849
(g5
tp3850
sVitalian flat-leaf parsley
p3851
(g5
tp3852
sVgranola cereal
p3853
(g5
tp3854
sVcooking oil canola
p3855
(g5
tp3856
sV-inch cube peeled ginger
p3857
(g5
tp3858
sVtopping ingredient
p3859
(g5
tp3860
sVfrac ground chili powder
p3861
(g5
tp3862
sVbunch cilantro leaf
p3863
(g5
tp3864
sVblackberry
p3865
(g5
tp3866
sVquick-cooking oat
p3867
(g5
tp3868
sVpumpkin pie spice
p3869
(g5
tp3870
sVpackage mixed salad green
p3871
(g5
tp3872
sVsprig cilantro
p3873
(g5
tp3874
sVwhole whole green chilies
p3875
(g5
tp3876
sVliter+
p3877
(g5
tp3878
sVfig spread jam
p3879
(g5
tp3880
sVlittleneck clam
p3881
(g5
tp3882
sVbaked pumpkin
p3883
(g5
tp3884
sVoregano
p3885
(g5
tp3886
sVcacao powder
p3887
(g5
tp3888
sVanise seed
p3889
(g5
tp3890
sVbowtie pasta
p3891
(g5
tp3892
sVgolden raisin
p3893
(g5
tp3894
sVcube cube
p3895
(g5
tp3896
sVpasta shell
p3897
(g5
tp3898
sVmexican chorizo
p3899
(g5
tp3900
sVramen noodle
p3901
(g5
tp3902
sVred lentil
p3903
(g5
tp3904
sVflaky white fish
p3905
(g5
tp3906
sVbrussels sprout
p3907
(g5
tp3908
sVcoarsely zucchini
p3909
(g5
tp3910
sVvanilla pudding
p3911
(g5
tp3912
sVbunch curly kale
p3913
(g5
tp3914
sVpancake syrup
p3915
(g5
tp3916
sVitalian cheese blend
p3917
(g5
tp3918
sVneutral vegetable oil
p3919
(g5
tp3920
sVpack soft cheese
p3921
(g5
tp3922
sVlight brown
p3923
(g5
tp3924
sVpack spinach
p3925
(g5
tp3926
sVfrac seeded finely jalapeo
p3927
(g5
tp3928
sVyour favorite barbecue sauce
p3929
(g5
tp3930
sVvery strawberry
p3931
(g5
tp3932
sVfreshly squeezed lime juice
p3933
(g5
tp3934
sV-ounce pineapple tidbit pineapple
p3935
(g5
tp3936
sVreduced-fat sour cream
p3937
(g5
tp3938
sVsoft hamburger bun
p3939
(g5
tp3940
sVcotija cheese queso fresco
p3941
(g5
tp3942
sVgreen chicory
p3943
(g5
tp3944
sVblack tapioca pearl
p3945
(g5
tp3946
sVpackage instant yeast
p3947
(g5
tp3948
sVsweet pickle relish
p3949
(g5
tp3950
sVred chili flake
p3951
(g5
tp3952
sVquart heavy cream
p3953
(g5
tp3954
sVcrouton
p3955
(g5
tp3956
sVzest
p3957
(lp3958
Vjuice from lemon
p3959
asVitalian seasoning
p3960
(g5
tp3961
sVsliced pickle
p3962
(g5
tp3963
sVsuper echinacea extract
p3964
(g5
tp3965
sVmozzarella monterey jack cheese
p3966
(g5
tp3967
sVdry rub
p3968
(g5
tp3969
sVtub whipped topping
p3970
(g5
tp3971
sVbalsamic vinegar
p3972
(g5
tp3973
sVheaped oregano
p3974
(g5
tp3975
sVfrac extra-virgin olive oil
p3976
(g5
tp3977
sVserve shallot olive oil drizzle
p3978
(g5
tp3979
sVsheet toasted seaweed
p3980
(g5
tp3981
sVclam juice water*
p3982
(g5
tp3983
sValmond breeze almondmilk coconutmilk original
p3984
(g5
tp3985
sVfluid bottle buffalo wing sauce
p3986
(g5
tp3987
sVlow-sodium soy sauce
p3988
(g5
tp3989
sVshaved parmesan
p3990
(g5
tp3991
sVshrimp
p3992
(g5
tp3993
sVdark rum
p3994
(g5
tp3995
sVpistachio
p3996
(g5
tp3997
sVpackage vanilla wafer
p3998
(g5
tp3999
sVpackage spinach leaf
p4000
(g5
tp4001
sVsliced yellow squash
p4002
(g5
tp4003
sVpetit basque monterey
p4004
(g5
tp4005
sVchive
p4006
(g5
tp4007
sVprovolone mozzarella cheese
p4008
(g5
tp4009
sVgolden flaxmeal
p4010
(g5
tp4011
sVfew sprig mint
p4012
(g5
tp4013
sVlevel ground cumin
p4014
(g5
tp4015
sVvery bunch kale
p4016
(g5
tp4017
sVbay scallop
p4018
(g5
tp4019
sVpackage couscous used world market tri-color couscous
p4020
(g5
tp4021
sVmarshmallow
p4022
(g5
tp4023
sVthinly sliced red bell pepper
p4024
(g5
tp4025
sVfrench green lentil
p4026
(g5
tp4027
sVunsweetened cocoa
p4028
(g5
tp4029
sVwholemeal burger bun
p4030
(g5
tp4031
sVfew grind black pepper
p4032
(g5
tp4033
sVceleriac
p4034
(g5
tp4035
sVpack puff pastry
p4036
(g5
tp4037
sVmccormick pure vanilla extract
p4038
(g5
tp4039
sVpinch marjoram
p4040
(g5
tp4041
sVpacked basil
p4042
(g5
tp4043
sVyellow mustard seed
p4044
(g5
tp4045
sVpuffed quinoa crisp
p4046
(g5
tp4047
sVcurry paste powder
p4048
(g5
tp4049
sVdutch-processed cocoa
p4050
(g5
tp4051
sVgood-quality cider
p4052
(g5
tp4053
sVtahini paste
p4054
(g5
tp4055
sVpkg cream cheese
p4056
(g5
tp4057
sVfreshly-grated parmesan cheese
p4058
(g5
tp4059
sVthin skinless fish fillet
p4060
(g5
tp4061
sVthis thai-spiced pumpkin soup could n't easier make roasted winter squash
p4062
(g5
tp4063
sVwhole bunch cilantro
p4064
(g5
tp4065
sVpoultry seasoning
p4066
(g5
tp4067
sVblock organic extra-firm tofu
p4068
(g5
tp4069
sVpack smoked salmon
p4070
(g5
tp4071
sVbaking powder make sure your baking powder
p4072
(g5
tp4073
sVcrumbled feta
p4074
(g5
tp4075
sVsichuan peppercorn
p4076
(g5
tp4077
sVlot
p4078
(g5
tp4079
sVsliced artichoke heart from
p4080
(g5
tp4081
sVpeppermint oil
p4082
(g5
tp4083
sVinstructionspreheat your oven degree
p4084
(g5
tp4085
sVwonton wrapper
p4086
(g5
tp4087
sVnote-you make these gluten-free using gluten-free oat pretzel
p4088
(g5
tp4089
sVfine-grain sea salt you 're using standard table salt
p4090
(g5
tp4091
sVpanko breadcrumb
p4092
(g5
tp4093
sVcod fillet
p4094
(g5
tp4095
sVfrying pan least diameter bottom
p4096
(g5
tp4097
sVpint olive oil
p4098
(g5
tp4099
sVfrac mixed berry
p4100
(g5
tp4101
sVoregano optional use whatever herb you like
p4102
(g5
tp4103
sVroasted red pepper strip
p4104
(g5
tp4105
sVgrapeseed vegetable oil
p4106
(g5
tp4107
sV-ounce green chilies
p4108
(g5
tp4109
sV-ounce bottle clam juice
p4110
(g5
tp4111
sVpizza stone
p4112
(g5
tp4113
sVmini pre-baked tart pie shell
p4114
(g5
tp4115
sVcanned solid-pack pumpkin
p4116
(g5
tp4117
sVdiced green chilies
p4118
(g5
tp4119
sVcornmeal
p4120
(g5
tp4121
sVkosher salt black pepper
p4122
(g5
tp4123
sVtart cherry juice
p4124
(g5
tp4125
sVmashed avocado
p4126
(g5
tp4127
sVfreshly parmesan cheese
p4128
(g5
tp4129
sVtoasted pepitas
p4130
(g5
tp4131
sVgrapeseed oil
p4132
(g5
tp4133
sVrecipe basil vinaigrette
p4134
(g5
tp4135
sVcilantro more
p4136
(g5
tp4137
sVguajillo new mexico chile
p4138
(g5
tp4139
sVdeep
p4140
(g5
tp4141
sVchipotle pepper
p4142
(g5
tp4143
sV-ounce condensed cream-of-mushroom soup
p4144
(g5
tp4145
sS'bourbon whiskey'
p4146
(S'$ 6.717 per 25.4 ounces/750 ml'
p4147
g264
tp4148
sVhomemade enchilada sauce
p4149
(g5
tp4150
sVpacket fajita seasoning
p4151
(g5
tp4152
sVdrop pepper sauce such tabasco
p4153
(g5
tp4154
sVcoarsely roasted
p4155
(g5
tp4156
sVclub soda
p4157
(g5
tp4158
sVcream
p4159
(g5
tp4160
sVbar chocolate flavored confectioner coating
p4161
(g5
tp4162
sVtoasted squash seed
p4163
(g5
tp4164
sVsquashed garlic
p4165
(g5
tp4166
sVleaf sprig thyme
p4167
(g5
tp4168
sVmaldon another flaky sea salt
p4169
(g5
tp4170
sVraisin per challah
p4171
(g5
tp4172
sVtoasted pepitas almond
p4173
(g5
tp4174
sVfour boneless
p4175
(g5
tp4176
sVchinese five-spice powder
p4177
(g5
tp4178
sVscant green lentil puy casteluccio
p4179
(g5
tp4180
sVcurry powder
p4181
(g5
tp4182
sVedible flower
p4183
(g5
tp4184
sVgrainy dijon mustard
p4185
(g5
tp4186
sVfinely red bell pepper
p4187
(g5
tp4188
sVspecial equipment flat metal skewer
p4189
(g5
tp4190
sVfinely zest clementine
p4191
(g5
tp4192
sVstrawberry preserve jam
p4193
(g5
tp4194
sVfew sprig oregano marjoram
p4195
(g5
tp4196
sVdry tarragon tarragon
p4197
(g5
tp4198
sVbunch regular kale
p4199
(g5
tp4200
sVreduced-sodium tamari soy sauce
p4201
(g5
tp4202
sVcubed butternut squash -inch piece
p4203
(g5
tp4204
sVpinch ground cayenne pepper
p4205
(g5
tp4206
sVfinely ground almond flour*
p4207
(g5
tp4208
sVsquash
p4209
(g5
tp4210
sVpiece makisu
p4211
(g5
tp4212
sV-oz pkg cream cheese
p4213
(g5
tp4214
sVbrandy
p4215
(g5
tp4216
sVcrumbly ricotta cheese
p4217
(g5
tp4218
sVwatermelon cube
p4219
(g5
tp4220
sVbrown flaxmeal
p4221
(g5
tp4222
sVginger root
p4223
(g5
tp4224
sVkosher salt freshly ground black pepper
p4225
(g5
tp4226
sVponzu sauce
p4227
(g5
tp4228
sVheaped ground coriander
p4229
(g5
tp4230
sVpure ginger juice
p4231
(g5
tp4232
sVlong red chile
p4233
(g5
tp4234
sVpackage taco seasoning mix
p4235
(g5
tp4236
sVmarsala kahla
p4237
(g5
tp4238
sVarrowroot
p4239
(g5
tp4240
sVsalmon about
p4241
(g5
tp4242
sVfine dry breadcrumb
p4243
(g5
tp4244
sVold paso taco seasoning
p4245
(g5
tp4246
sVthin french baguette
p4247
(g5
tp4248
sVcampfire mini fruit-flavored marshmallow
p4249
(g5
tp4250
sVfrac grind cornmeal
p4251
(g5
tp4252
sVsalted sardine
p4253
(g5
tp4254
sVmoneteray jack cheese
p4255
(g5
tp4256
sVrecipe red pepper sauce
p4257
(g5
tp4258
sVdijon mustard
p4259
(g5
tp4260
sVone -ounce cauliflower
p4261
(g5
tp4262
sVfinely kale
p4263
(g5
tp4264
sVgarnish sour cream
p4265
(g5
tp4266
sVvery soft
p4267
(g5
tp4268
sVfreshly cracked pepper
p4269
(g5
tp4270
sVsalmon fillet
p4271
(g5
tp4272
sVcouple pinch fine grain sea salt
p4273
(g5
tp4274
sVitalian flat leaf parsley
p4275
(g5
tp4276
sV-ounce bottle guinness stout
p4277
(g5
tp4278
sVserve cilantro
p4279
(g5
tp4280
sVpeeled ginger about -inch piece
p4281
(g5
tp4282
sVwhole ravioli
p4283
(g5
tp4284
sVunpopped popcorn kernel
p4285
(g5
tp4286
sVparmesan
p4287
(g5
tp4288
sVyellow stone ground cornmeal
p4289
(g5
tp4290
sVmilky way bunny
p4291
(g5
tp4292
sVtopping mint
p4293
(g5
tp4294
sVfine breadcrumb
p4295
(g5
tp4296
sVlight mayonnaise
p4297
(g5
tp4298
sVraisin sultana
p4299
(g5
tp4300
sVscharffen berger natural unsweetened cocoa powder
p4301
(g5
tp4302
sVsparkling
p4303
(g5
tp4304
sVcayenne pepper
p4305
(g5
tp4306
sVtiny salt
p4307
(g5
tp4308
sVheavily peated scotch whisky
p4309
(g5
tp4310
sVsoy sauce more
p4311
(g5
tp4312
sVplenty ground black pepper
p4313
(g5
tp4314
sVdressing
p4315
(g5
tp4316
sVheavy-duty
p4317
(g5
tp4318
sVoil melted coconut oil
p4319
(g5
tp4320
sVbell pepper another color
p4321
(g5
tp4322
sVsalted popcorn
p4323
(g5
tp4324
sVserrano chile pepper
p4325
(g5
tp4326
sVshallow saucepan with cover
p4327
(g5
tp4328
sVdelallo jarred roasted red pepper
p4329
(g5
tp4330
sVsmoked chipotle chilli
p4331
(g5
tp4332
sVliter
p4333
(g5
tp4334
sVvanilla extract
p4335
(g5
tp4336
sVamchoor powder
p4337
(g5
tp4338
sVpackage refrigerated cheese tortellini
p4339
(g5
tp4340
sVliter ginger ale soda
p4341
(g5
tp4342
sVstrawberry glaze
p4343
(g5
tp4344
sVjalape
p4345
(g5
tp4346
sVheath toffee bit
p4347
(g5
tp4348
sVrosemary sprig
p4349
(g5
tp4350
sVpackage gummy worm
p4351
(g5
tp4352
sVtruvia baking blend
p4353
(g5
tp4354
sVfull fat sour cream
p4355
(g5
tp4356
sVvegetable oil spray
p4357
(g5
tp4358
sVridged pasta
p4359
(g5
tp4360
sVmedium-large zucchini
p4361
(g5
tp4362
sVworth buttercream frosting
p4363
(g5
tp4364
sVgluten-free oat
p4365
(g5
tp4366
sVfrac olive oil
p4367
(g5
tp4368
sVpinch black pepper
p4369
(g5
tp4370
sVwhole -ounce square unsweetened chocolate
p4371
(g5
tp4372
sVchilled coconut oil
p4373
(g5
tp4374
sVkraft caramel bit
p4375
(g5
tp4376
sVone -ounce container ready-made frosting
p4377
(g5
tp4378
sVprosciutto
p4379
(g5
tp4380
sVfinely black olive
p4381
(g5
tp4382
sVtricolor quinoa
p4383
(g5
tp4384
sVtriple ginger cooky
p4385
(g5
tp4386
sVvanilla extract essence
p4387
(g5
tp4388
sVplenty black pepper
p4389
(g5
tp4390
sVcoarse salt freshly ground pepper
p4391
(g5
tp4392
sS'cookies'
p4393
(S'$ 3.147 per lb. '
p4394
tp4395
sVsliced pancetta
p4396
(g5
tp4397
sVpacket instant ramen
p4398
(g5
tp4399
sVpackage ranch dressing seasoning mix
p4400
(g5
tp4401
sVstalk green garlic
p4402
(g5
tp4403
sVbox athens mini fillo shell
p4404
(g5
tp4405
sVabout snipped chive sliced scallion
p4406
(g5
tp4407
sVbaking mix
p4408
(g5
tp4409
sVheaped mascarpone cheese crme frache
p4410
(g5
tp4411
sVscant salt
p4412
(g5
tp4413
sVgreen yellow courgette
p4414
(g5
tp4415
sVknob pure butterghee
p4416
(g5
tp4417
sVgolden-crusted brussels sprout
p4418
(g5
tp4419
sVpack lasagne sheet
p4420
(g5
tp4421
sVextra-virgin coconut oil
p4422
(g5
tp4423
sVgingersnap cooky
p4424
(g5
tp4425
sVfreshly cilantro
p4426
(g5
tp4427
sVcilantro oregano
p4428
(g5
tp4429
sVtoothpick
p4430
(g5
tp4431
sVcrust
p4432
(g5
tp4433
sVbutton white chocolate
p4434
(g5
tp4435
sVseveral twist freshly ground black pepper
p4436
(g5
tp4437
sVyellow cornmeal
p4438
(g5
tp4439
sVpinch cayenne
p4440
(g5
tp4441
sVfew drop yellow food colouring
p4442
(g5
tp4443
sVdiced tomatoes*
p4444
(g5
tp4445
sVblack teabags
p4446
(g5
tp4447
sVpacked mint leaf
p4448
(g5
tp4449
sVone -ounce dr. pepper
p4450
(g5
tp4451
sVflat tonic
p4452
(g5
tp4453
sVfinely italian parsley
p4454
(g5
tp4455
sVsoft tofu
p4456
(g5
tp4457
sVfrac cilantro leaf
p4458
(g5
tp4459
sVasparagus stalk
p4460
(g5
tp4461
sVroasted garlic
p4462
(g5
tp4463
sVbrie cheese
p4464
(g5
tp4465
sVvery scant lime juice juicy lime
p4466
(g5
tp4467
sVfluid white rum
p4468
(g5
tp4469
sVadobo sauce from canned chipotle
p4470
(g5
tp4471
sVcreamed feta paste
p4472
(g5
tp4473
sVloosly packed cilantro
p4474
(g5
tp4475
sVoptional ingredient goat cheese
p4476
(g5
tp4477
sVwhole wonton wrapper
p4478
(g5
tp4479
sVworcestershire sauce soy sauce
p4480
(g5
tp4481
sVpackage instant chocolate pudding mix
p4482
(g5
tp4483
sVblock cream cheese
p4484
(g5
tp4485
sVwax paper
p4486
(g5
tp4487
sVfrac coconut extract
p4488
(g5
tp4489
sVrinsed salt-packed caper
p4490
(g5
tp4491
sVfrac lavender
p4492
(g5
tp4493
sS'cucumbers'
p4494
(S'$ 0.758 per lb. '
p4495
g264
tp4496
sVbittersweet chocolate ndash cacao
p4497
(g5
tp4498
sVmayonnnaise
p4499
(g5
tp4500
sVgood feta
p4501
(g5
tp4502
sVmaraschino cherry
p4503
(g5
tp4504
sVfinely sliced shiso leaf
p4505
(g5
tp4506
sVbox peppermint crunch junior mint
p4507
(g5
tp4508
sVorecchiette
p4509
(g5
tp4510
sVfluid boiling
p4511
(g5
tp4512
sVgreen black olive
p4513
(g5
tp4514
sVguacamole
p4515
(g5
tp4516
sVdutch cocoa powder
p4517
(g5
tp4518
sVheaped ground cumin
p4519
(g5
tp4520
sVpiece piece
p4521
(g5
tp4522
sVdistilled white vinegar
p4523
(g5
tp4524
sVfrac pepitas sunflower seed
p4525
(g5
tp4526
sVbaking powder make sure your baking powder more than month old you may not get good rise
p4527
(g5
tp4528
sVpackage taco seasoning
p4529
(g5
tp4530
sVlot basil
p4531
(g5
tp4532
sVwhole wheat panko breadcrumb
p4533
(g5
tp4534
sVfrangelico another hazelnut liqueur vanilla extract**
p4535
(g5
tp4536
sVfrac arrowroot starch cornstarch optional
p4537
(g5
tp4538
sVstore-bought easy drop biscuit see recipe
p4539
(g5
tp4540
sVchipotle chile adobo
p4541
(g5
tp4542
sVpackage individually wrapped caramel
p4543
(g5
tp4544
sVguinness draught
p4545
(g5
tp4546
sVfrac finely cauliflower
p4547
(g5
tp4548
sVtoasted pecan
p4549
(g5
tp4550
sVquart strawberry cleaned
p4551
(g5
tp4552
sVwhole jalapeo
p4553
(g5
tp4554
sVred thai curry paste
p4555
(g5
tp4556
sS'pears'
p4557
(S'$ 0.576 per lb. '
p4558
g264
tp4559
sVbunch tuscan kale
p4560
(g5
tp4561
sVtequila blanco
p4562
(g5
tp4563
sVpinch fine grain sea salt
p4564
(g5
tp4565
sVblue diamond dark chocolate almond
p4566
(g5
tp4567
sVranch dressing mix
p4568
(g5
tp4569
sVoptional topping salsa
p4570
(g5
tp4571
sVred chile sauce salsa verde*
p4572
(g5
tp4573
sVblackening spice
p4574
(g5
tp4575
sVgreen serrano pepper
p4576
(g5
tp4577
sVadobo sauce from chipotle pepper
p4578
(g5
tp4579
sVcheese spinach tortellini
p4580
(g5
tp4581
sVground flax seed
p4582
(g5
tp4583
sVfrac plain
p4584
(g5
tp4585
sVstick part-skim mozzarella string cheese
p4586
(g5
tp4587
sVpackage mixed green
p4588
(g5
tp4589
sV-ounces spinach
p4590
(g5
tp4591
sVfew snipped chive
p4592
(g5
tp4593
sVstick
p4594
(g5
tp4595
sS'lemons'
p4596
(S'$ 1.836 per lb. '
p4597
tp4598
sVparmesan shaving
p4599
(g5
tp4600
sVmild green chile
p4601
(g5
tp4602
sVthai chili sauce sauce
p4603
(g5
tp4604
sVrich ale guinness
p4605
(g5
tp4606
sVburrata cheese
p4607
(g5
tp4608
sVtaco seasoning mix
p4609
(g5
tp4610
sVthai green curry paste*
p4611
(g5
tp4612
sVpasta orecchiette
p4613
(g5
tp4614
sVoregano leaf
p4615
(g5
tp4616
sVcouple drop red food coloring
p4617
(g5
tp4618
sVgreen chilli
p4619
(g5
tp4620
sVhabanero scotch bonnet pepper
p4621
(g5
tp4622
sVxylitol
p4623
(g5
tp4624
sVfluid triple sec
p4625
(g5
tp4626
sVsoft shell steamer clam
p4627
(g5
tp4628
sVquart popped popcorn
p4629
(g5
tp4630
sV-pound package delallo whole wheat pasta
p4631
(g5
tp4632
sVpasta sauce
p4633
(g5
tp4634
sVkosher salt
p4635
(g5
tp4636
sVmonterey jack
p4637
(g5
tp4638
sVground nutmeg
p4639
(g5
tp4640
sVground mustard
p4641
(g5
tp4642
sVslightly heaping frac salt
p4643
(g5
tp4644
sVlow-sodium broth
p4645
(g5
tp4646
sVwhite breadcrumb
p4647
(g5
tp4648
sVsprig mint
p4649
(g5
tp4650
sVlow sodium soy sauce
p4651
(g5
tp4652
sVfreshly parmesan cheese* about frac
p4653
(g5
tp4654
sVhabanero chile
p4655
(g5
tp4656
sVfleur sel maldon sea salt flake
p4657
(g5
tp4658
sVinch-long piece ginger
p4659
(g5
tp4660
sVgallon
p4661
(g5
tp4662
sValeppo pepper flake using regular red pepper flake
p4663
(g5
tp4664
sVpinch pinch
p4665
(g5
tp4666
sVcoconut extract
p4667
(g5
tp4668
sVcoarse flaky sea salt
p4669
(g5
tp4670
sVbunch italian flat leaf parsley
p4671
(g5
tp4672
sVpint blackberry
p4673
(g5
tp4674
sVwhole pecan
p4675
(g5
tp4676
sVground black white pepper
p4677
(g5
tp4678
sVserano chili pepper stem
p4679
(g5
tp4680
sVdrained
p4681
(g5
tp4682
sVjalapeo chili pepper stem
p4683
(g5
tp4684
sVcurrant fig
p4685
(g5
tp4686
sVrye
p4687
(g5
tp4688
sVpaprika optional
p4689
(g5
tp4690
sVpack poached salmon fillet
p4691
(g5
tp4692
sVplus tequila
p4693
(g5
tp4694
sVfine grain sea salt
p4695
(g5
tp4696
sVwhite chocolate peppermint
p4697
(g5
tp4698
sVpacket dry active yeast
p4699
(g5
tp4700
sVwhole grain tortilla
p4701
(g5
tp4702
sVcoarsely pecan
p4703
(g5
tp4704
sVsweet basil leaf
p4705
(g5
tp4706
sVuse roasted pepper
p4707
(g5
tp4708
sVcenter cut salmon fillet
p4709
(g5
tp4710
sV-ounce coconut milk*
p4711
(g5
tp4712
sVsprinkle
p4713
(g5
tp4714
sVstore-bought gnocchi
p4715
(g5
tp4716
sVdill havarti cheese
p4717
(g5
tp4718
sVvery zucchini
p4719
(g5
tp4720
sVminiature shell shaped pasta
p4721
(g5
tp4722
sVrinsed quinoa
p4723
(g5
tp4724
sV-inch cubed butternut squash
p4725
(g5
tp4726
sVsoda
p4727
(g5
tp4728
sVmore oil grease your pan skillet
p4729
(g5
tp4730
sVlong
p4731
(g5
tp4732
sVvanilla pod
p4733
(g5
tp4734
sVwhole scallion
p4735
(g5
tp4736
sVwhole wheat sourdough english muffin
p4737
(g5
tp4738
sVflaky sea salt
p4739
(g5
tp4740
sVartificial pink food colouring
p4741
(g5
tp4742
sVpiece pancetta
p4743
(g5
tp4744
sVdrop two green food coloring
p4745
(g5
tp4746
sVjarred defrosted artichoke
p4747
(g5
tp4748
sVdrizzle honey
p4749
(g5
tp4750
sVpackage dry penne pasta
p4751
(g5
tp4752
sVoptional garnish pickled jalapeos
p4753
(g5
tp4754
sVscant olive oil
p4755
(g5
tp4756
sVbunch flat-leaf kale
p4757
(g5
tp4758
sVbell pepper green
p4759
(g5
tp4760
sVwhole cumin seed
p4761
(g5
tp4762
sVscant flat-leaf parsley
p4763
(g5
tp4764
sVquinoa all red mix red
p4765
(g5
tp4766
sV-count tube refrigerated biscuit
p4767
(g5
tp4768
sVprepared yellow mustard
p4769
(g5
tp4770
sVscant maple syrup
p4771
(g5
tp4772
sVpure almond extract
p4773
(g5
tp4774
sVparsley leaf
p4775
(g5
tp4776
sVsliced avocado
p4777
(g5
tp4778
sVrounded nutella own-brand chocolate hazelnut spread
p4779
(g5
tp4780
sVbunch swiss chard
p4781
(g5
tp4782
sVjalapeo
p4783
(g5
tp4784
sVegg
p4785
(lp4786
Vmilk
p4787
asVturmeric
p4788
(g5
tp4789
sVbig pinch salt
p4790
(g5
tp4791
sVguajillos
p4792
(g5
tp4793
sVthin linguine
p4794
(g5
tp4795
sVred pepper flake
p4796
(g5
tp4797
sVold-fashioned oat
p4798
(g5
tp4799
sVdiced jalapeno
p4800
(g5
tp4801
sVlimoncello
p4802
(g5
tp4803
sVplus honey
p4804
(g5
tp4805
sVplump date
p4806
(g5
tp4807
sVpecorino parmesan cheese
p4808
(g5
tp4809
sVdough
p4810
(g5
tp4811
sVmed garlic
p4812
(g5
tp4813
sVfrac chili garlic sauce
p4814
(g5
tp4815
sVpack pizza base mix
p4816
(g5
tp4817
sVhigh quality vegetable oil extra-virgin olive oil
p4818
(g5
tp4819
sVlasagne sheet
p4820
(g5
tp4821
sVbrie
p4822
(g5
tp4823
sVfinely seeded jalapeo pepper
p4824
(g5
tp4825
sVgenerous pinch rosemary
p4826
(g5
tp4827
sVcaramel square
p4828
(g5
tp4829
sVsweetened flaked coconut
p4830
(g5
tp4831
sVoptional salad green balsamic vinaigrette
p4832
(g5
tp4833
sVfrac hemp seed toasted walnut
p4834
(g5
tp4835
sVlarge-flake coconut
p4836
(g5
tp4837
sVcontainer part-skim ricotta cheese
p4838
(g5
tp4839
sVcoldegg
p4840
(g5
tp4841
sVolive another oil your choice
p4842
(g5
tp4843
sVlime juice zest
p4844
(g5
tp4845
sVsunflower oil vegetable
p4846
(g5
tp4847
sVnapoletana pizza dough recipe
p4848
(g5
tp4849
sVboneless
p4850
(g5
tp4851
sVpinch ground oregano
p4852
(g5
tp4853
sVpesto
p4854
(g5
tp4855
sVcool
p4856
(g5
tp4857
sVsauce
p4858
(g5
tp4859
sVharissa paste
p4860
(g5
tp4861
sVasparagus cooking
p4862
(g5
tp4863
sVjarred artichoke heart
p4864
(g5
tp4865
sVgood
p4866
(g5
tp4867
sVmustard mayo
p4868
(g5
tp4869
sVmug couscous
p4870
(g5
tp4871
sVtrimmed rhubarb
p4872
(g5
tp4873
sVsmall-medium delicata squash
p4874
(g5
tp4875
sVsterilized quart canning
p4876
(g5
tp4877
sVanaheim chile jalapeos
p4878
(g5
tp4879
sVfew generous grind black pepper
p4880
(g5
tp4881
sVjet-puffed vanilla mallow bit
p4882
(g5
tp4883
sVtoasted shelled pumpkin seed optional
p4884
(g5
tp4885
sVoptional ingredient nutmeg
p4886
(g5
tp4887
sVrapid rise yeast
p4888
(g5
tp4889
sVcream tartar
p4890
(g5
tp4891
sVfinely diced green pepper
p4892
(g5
tp4893
sVbig garlic
p4894
(g5
tp4895
sVabout one vegetable broth
p4896
(g5
tp4897
sV-ounce boneless
p4898
(g5
tp4899
sVcointreau
p4900
(g5
tp4901
sVquality extra-virgin olive oil
p4902
(g5
tp4903
sVbunch collard green
p4904
(g5
tp4905
sVcotija queso seco cheese
p4906
(g5
tp4907
sVrolled oat
p4908
(g5
tp4909
sVall ground allspice
p4910
(g5
tp4911
sVwhole pie crust
p4912
(g5
tp4913
sVpinch salt
p4914
(g5
tp4915
sVrosemary rosemary
p4916
(g5
tp4917
sVplain chocolate solid
p4918
(g5
tp4919
sVblanco tequila
p4920
(g5
tp4921
sVfluid rum
p4922
(g5
tp4923
sVcoarse sea salt freshly ground black pepper
p4924
(g5
tp4925
sVground thyme
p4926
(g5
tp4927
sVfrac bunch asparagus
p4928
(g5
tp4929
sVsweet paprika
p4930
(g5
tp4931
sVyeast-raised cornbread
p4932
(g5
tp4933
sVfennel seed
p4934
(g5
tp4935
sVsheet gelatine
p4936
(g5
tp4937
sVcanned pie filling your choice
p4938
(g5
tp4939
sVfinely roasted red pepper
p4940
(g5
tp4941
sVwhole whole wheat tortilla
p4942
(g5
tp4943
sVscant quinoa
p4944
(g5
tp4945
sVeaster pretzel
p4946
(g5
tp4947
sVbottled sauce your choice bbq
p4948
(g5
tp4949
sVmexican style cheese blend
p4950
(g5
tp4951
sVlemongrass
p4952
(g5
tp4953
sVpickled ginger
p4954
(g5
tp4955
sVpureed strawberry berry
p4956
(g5
tp4957
sVfenugreek leaf
p4958
(g5
tp4959
sVwhole caraway seed
p4960
(g5
tp4961
sVfrac creamy
p4962
(g5
tp4963
sVinstant espresso powder
p4964
(g5
tp4965
sVtop with fried caper
p4966
(g5
tp4967
sVoption marinade sauce
p4968
(g5
tp4969
sVlot cilantro
p4970
(g5
tp4971
sVgranola
p4972
(g5
tp4973
sVcrumbled goat cheese
p4974
(g5
tp4975
sVtub garlic cream cheese
p4976
(g5
tp4977
sVground mace nutmeg
p4978
(g5
tp4979
sVcranberry sauce
p4980
(g5
tp4981
sVcilantro parsley leaf
p4982
(g5
tp4983
sVcanola grapeseed oil
p4984
(g5
tp4985
sVblack beluga lentil french green lentil
p4986
(g5
tp4987
sVbunch asparagus
p4988
(g5
tp4989
sVtoffee-and-chocolate baking piece
p4990
(g5
tp4991
sV-inch-thick
p4992
(g5
tp4993
sVoptional garnish cinnamon stick star anise
p4994
(g5
tp4995
sVsunflower seed
p4996
(g5
tp4997
sVthumb-sized piece ginger
p4998
(g5
tp4999
sVzest lime juice
p5000
(g5
tp5001
sVheaped light
p5002
(g5
tp5003
sVoptional thinly sliced jalapeno
p5004
(g5
tp5005
sVcornstarch
p5006
(g5
tp5007
sVbun
p5008
(g5
tp5009
sVpoppy seed
p5010
(g5
tp5011
sVflat-leaf parsley curly parsley
p5012
(g5
tp5013
sVbox vanilla wafer
p5014
(g5
tp5015
sVscotch bonnet chilli
p5016
(g5
tp5017
sVhalf-pint
p5018
(g5
tp5019
sVwhole mini-pretzel twist
p5020
(g5
tp5021
sVpaneer cheese
p5022
(g5
tp5023
sVitalian parsley
p5024
(g5
tp5025
sVcut flower
p5026
(g5
tp5027
sS'round roast'
p5028
(S'$ 5.247 per lb. '
p5029
tp5030
sVmelted chocolate
p5031
(g5
tp5032
sS'lamb and mutton'
p5033
(S'$ 3.305 per lb. '
p5034
g264
tp5035
sVwhole hershey kiss
p5036
(g5
tp5037
sVlump crabmeat
p5038
(g5
tp5039
sVartificial sweetener
p5040
(g5
tp5041
sVgood quality marinara sauce
p5042
(g5
tp5043
sVcellophane noodle
p5044
(g5
tp5045
sVbow tie noodle
p5046
(g5
tp5047
sVcayenne pepper optional
p5048
(g5
tp5049
sVfrac slivered almond
p5050
(g5
tp5051
sVkasseri mozzarella
p5052
(g5
tp5053
sVchili oil
p5054
(g5
tp5055
sVcrispy gingersnap cooky
p5056
(g5
tp5057
sVchampagne vinegar
p5058
(g5
tp5059
sVjalapeo chile
p5060
(g5
tp5061
sVtoasted sesame oil
p5062
(g5
tp5063
sVwhite peppercorn
p5064
(g5
tp5065
sVheaped thick-cut marmalade
p5066
(g5
tp5067
sVbottle ale
p5068
(g5
tp5069
sVchipotle pepper adobo sauce
p5070
(g5
tp5071
sV-ounce packet active dry yeast
p5072
(g5
tp5073
sVbulb garlic
p5074
(g5
tp5075
sVcanned diced jalapeno pepper
p5076
(g5
tp5077
sVdiced pancetta
p5078
(g5
tp5079
sVfluid jigger rum
p5080
(g5
tp5081
sV-pound boneless
p5082
(g5
tp5083
sVfew pinch sea salt
p5084
(g5
tp5085
sVextra cream
p5086
(g5
tp5087
sVsour cream chive parsley
p5088
(g5
tp5089
sVfrac apricot liqueur
p5090
(g5
tp5091
sVbunch -ounce marinara sauce
p5092
(g5
tp5093
sValmond breeze almondmilk hint honey
p5094
(g5
tp5095
sVgumbo file powder
p5096
(g5
tp5097
sVliquid heavy cream
p5098
(g5
tp5099
sVgood-quality burger bun
p5100
(g5
tp5101
sVscallion
p5102
(g5
tp5103
sVpacket dry jus mix
p5104
(g5
tp5105
sVolive grapeseed oil
p5106
(g5
tp5107
sVfettuccini pasta
p5108
(g5
tp5109
sVroot ginger
p5110
(g5
tp5111
sVsyrup
p5112
(g5
tp5113
sVgreat quality extra-virgin olive oil
p5114
(g5
tp5115
sVhalloumi cheese
p5116
(g5
tp5117
sVpeacans
p5118
(g5
tp5119
sVbuttermilk natural yoghurt
p5120
(g5
tp5121
sVfrac thyme
p5122
(g5
tp5123
sVwhole vanilla wafer
p5124
(g5
tp5125
sVmedium-sized zucchini
p5126
(g5
tp5127
sVbasil flake
p5128
(g5
tp5129
sVwide -quart pan
p5130
(g5
tp5131
sVwhole wheat hamburger bun
p5132
(g5
tp5133
sVgolden white balsamic vinegar
p5134
(g5
tp5135
sVgood thumb-size piece root ginger
p5136
(g5
tp5137
sVbasil thai basil leaf
p5138
(g5
tp5139
sVadditional almond sea salt
p5140
(g5
tp5141
sS'spaghetti and macaroni'
p5142
(S'$ 1.259 per lb. '
p5143
tp5144
sVbeer ale
p5145
(g5
tp5146
sV-inch-diced pancetta
p5147
(g5
tp5148
sVthumb-size piece root ginger
p5149
(g5
tp5150
sVbunch flat-leaf parsley
p5151
(g5
tp5152
sVvegan cream cheese substitute such tofutti
p5153
(g5
tp5154
sVbar dark chocolate
p5155
(g5
tp5156
sVancho new mexican chili powder
p5157
(g5
tp5158
sVfinely lime zest
p5159
(g5
tp5160
sVwhole green peppercorn
p5161
(g5
tp5162
sVmint cilantro
p5163
(g5
tp5164
sVplus runny honey
p5165
(g5
tp5166
sVbucatini long pasta
p5167
(g5
tp5168
sVfrac soy sauce** used reduced-sodium tamari
p5169
(g5
tp5170
sVyellow bell pepper
p5171
(g5
tp5172
sVcrumbled cotija cheese feta
p5173
(g5
tp5174
sVolive oil spray
p5175
(g5
tp5176
sVcoleslaw
p5177
(g5
tp5178
sV-ounce nutella
p5179
(g5
tp5180
sVpackage phyllo dough
p5181
(g5
tp5182
sVpinch cinnamon
p5183
(g5
tp5184
sVpepperoncini pepper
p5185
(g5
tp5186
sVfine grain salt
p5187
(g5
tp5188
sVground chipotle pepper
p5189
(g5
tp5190
sVfew sprig thyme
p5191
(g5
tp5192
sVsquare bittersweet chocolate
p5193
(g5
tp5194
sVsmoked chili pepper poblano pepper
p5195
(g5
tp5196
sVbrussels sprout about big worth
p5197
(g5
tp5198
sVfillet salmon
p5199
(g5
tp5200
sVsoy sauce shoyu
p5201
(g5
tp5202
sVhigh-quality white chocolate
p5203
(g5
tp5204
sVheaped pearl barley
p5205
(g5
tp5206
sVfile powder
p5207
(g5
tp5208
sVbig leafy green chard
p5209
(g5
tp5210
sVkroger vegetable broth
p5211
(g5
tp5212
sVstore bought pizza crust refrigerated crust
p5213
(g5
tp5214
sVminiature marshmallow
p5215
(g5
tp5216
sVred chilies
p5217
(g5
tp5218
sVsweet pickle
p5219
(g5
tp5220
sS'pork chops'
p5221
(S'$ 3.874 per lb. '
p5222
tp5223
sS'jelly '
p5224
(S'$ 0.943 per pound/453.6 grams'
p5225
g264
tp5226
sVwhite cider vinegar
p5227
(g5
tp5228
sVsherry
p5229
(g5
tp5230
sVpinch coarse salt
p5231
(g5
tp5232
sVzucchini
p5233
(g5
tp5234
sVsalsa spicy you like
p5235
(g5
tp5236
sVpink curing salt*
p5237
(g5
tp5238
sVcoconut granola
p5239
(g5
tp5240
sVunsweetened chocolate
p5241
(g5
tp5242
sVequipment bamboo basket steamer
p5243
(g5
tp5244
sVwhite vinegar optional
p5245
(g5
tp5246
sS'eggs'
p5247
(S'$ 2.365 per doz.'
p5248
tp5249
sVfrac lightly packed cilantro
p5250
(g5
tp5251
sVsalmon
p5252
(g5
tp5253
sVfish stock
p5254
(g5
tp5255
sVpinch fennel seed
p5256
(g5
tp5257
sVenvelope unflavored gelatin
p5258
(g5
tp5259
sVscrubbed littleneck clam
p5260
(g5
tp5261
sVfinely almond
p5262
(g5
tp5263
sVkitchen bouquet
p5264
(g5
tp5265
sVswiss mixture swiss parmesan cheese
p5266
(g5
tp5267
sVmini rolos
p5268
(g5
tp5269
sVchard
p5270
(g5
tp5271
sVsauerkraut
p5272
(g5
tp5273
sVpepper sauce such tabasco
p5274
(g5
tp5275
sVfinely crystallized ginger
p5276
(g5
tp5277
sVagave syrup
p5278
(g5
tp5279
sVdiced jalapeno pepper
p5280
(g5
tp5281
sVwhole lasagna noodle
p5282
(g5
tp5283
sVfinely chive
p5284
(g5
tp5285
sVbbq sauce
p5286
(g5
tp5287
sVsmoked salmon gravadlax
p5288
(g5
tp5289
sVspinach leaf
p5290
(g5
tp5291
sVfreshly ground nutmeg
p5292
(g5
tp5293
sVfinely basil
p5294
(g5
tp5295
sVcardamom pod
p5296
(g5
tp5297
sVclean
p5298
(g5
tp5299
sVcrme frache
p5300
(g5
tp5301
sVcanned cherry
p5302
(g5
tp5303
sVdry tortellini
p5304
(g5
tp5305
sVroasted ground cumin
p5306
(g5
tp5307
sVscant fine grain sea salt
p5308
(g5
tp5309
sVroasted red pepper
p5310
(g5
tp5311
sVbell pepper
p5312
(g5
tp5313
sVserve olive
p5314
(g5
tp5315
sVpeppermint extract
p5316
(g5
tp5317
sVfrac cumin seed scale back little you 're not crazy about cumin
p5318
(g5
tp5319
sVhalf-fat soured cream
p5320
(g5
tp5321
sVfinely dill pickle
p5322
(g5
tp5323
sVvanilla extract optional
p5324
(g5
tp5325
sVfrac curry powder choice
p5326
(g5
tp5327
sVsaffron thread
p5328
(g5
tp5329
sVcount shrimp
p5330
(g5
tp5331
sVspanish green olive
p5332
(g5
tp5333
sVchipotle chile adobo sauce
p5334
(g5
tp5335
sVgood-quality fusilli penne
p5336
(g5
tp5337
sVsplash heavy cream
p5338
(g5
tp5339
sVoptional pico gallo
p5340
(g5
tp5341
sVleftover cranberry sauce
p5342
(g5
tp5343
sVpackage dry ranch-style dressing mix
p5344
(g5
tp5345
sVfrac chipotle pepper adobo* start with frac add more
p5346
(g5
tp5347
sVgarlic chili sauce
p5348
(g5
tp5349
sVsprig oregano
p5350
(g5
tp5351
sVground cayenne
p5352
(g5
tp5353
sVreduced sodium tamari soy sauce*
p5354
(g5
tp5355
sVpumpkin seed from packet
p5356
(g5
tp5357
sVfrac red bell pepper
p5358
(g5
tp5359
sVblack treacle
p5360
(g5
tp5361
sVtoasted cumin seed
p5362
(g5
tp5363
sVpackage strawberry flavored jell-o mix
p5364
(g5
tp5365
sVdark robust molasses
p5366
(g5
tp5367
sVpeaches-thinly sliced
p5368
(g5
tp5369
sVliquid
p5370
(g5
tp5371
sVbatch guacamole
p5372
(g5
tp5373
sVlemongrass stalk
p5374
(g5
tp5375
sVmeyerlemons
p5376
(g5
tp5377
sVwalnut optional
p5378
(g5
tp5379
sVmint leaf
p5380
(g5
tp5381
sVfrac garam masala
p5382
(g5
tp5383
sVmetal baking pan
p5384
(g5
tp5385
sVwhite quinoa
p5386
(g5
tp5387
sVoptional garnish sliced avocado
p5388
(g5
tp5389
sVfinely parmigiano-reggiano cheese
p5390
(g5
tp5391
sVcontainer light sour cream
p5392
(g5
tp5393
sV-quart covered saucepan
p5394
(g5
tp5395
sVnatural vanilla extract
p5396
(g5
tp5397
sVfrac allspice
p5398
(g5
tp5399
sVfrac red pepper flake
p5400
(g5
tp5401
sVone -to- pumpkin
p5402
(g5
tp5403
sVplus cream cheese
p5404
(g5
tp5405
sVbar plain chocolate cocoa
p5406
(g5
tp5407
sVheaped raspberry jam
p5408
(g5
tp5409
sVcreole seasoning link this
p5410
(g5
tp5411
sVcrabmeat
p5412
(g5
tp5413
sVtabasco optional
p5414
(g5
tp5415
sVpack value mozzarella
p5416
(g5
tp5417
sVlow-fat
p5418
(g5
tp5419
sVcaramel
p5420
(g5
tp5421
sVpinch cream tartar
p5422
(g5
tp5423
sVfull size dark milky way bar
p5424
(g5
tp5425
sVsour cream
p5426
(g5
tp5427
sVfinely pickle pickle relish
p5428
(g5
tp5429
sVsea salt cracked pepper
p5430
(g5
tp5431
sVgenerous sprinkling cinnamon
p5432
(g5
tp5433
sVqueso fresco feta
p5434
(g5
tp5435
sVunsweetened freshly whipped cream
p5436
(g5
tp5437
sVmayonnaise roasted jalapeno mayonnaise
p5438
(g5
tp5439
sVmild curry powder
p5440
(g5
tp5441
sVgemelli
p5442
(g5
tp5443
sVasiago parmigiano reggiano
p5444
(g5
tp5445
sVheaped natural yoghurt
p5446
(g5
tp5447
sVjalapeno pepper
p5448
(g5
tp5449
sVdiced avocado
p5450
(g5
tp5451
sVhoney agave
p5452
(g5
tp5453
sVpecorino parmesan
p5454
(g5
tp5455
sVgirl scout do-si-do cooky
p5456
(g5
tp5457
sV-ounce skinless salmon fillet
p5458
(g5
tp5459
sVcheddar-style soy cheese
p5460
(g5
tp5461
sVpolenta cornmeal
p5462
(g5
tp5463
sVamaretto liqueur
p5464
(g5
tp5465
sVextra sauce
p5466
(g5
tp5467
sVgood-quality strawberry jam
p5468
(g5
tp5469
sVwhite vinegar
p5470
(g5
tp5471
sVwhole blanched almond
p5472
(g5
tp5473
sVparsley chive
p5474
(g5
tp5475
sVsliced slivered almond
p5476
(g5
tp5477
sVnutella
p5478
(g5
tp5479
sVjalapeo
p5480
(g5
tp5481
sVenglish mustard
p5482
(g5
tp5483
sVwhipped heavy cream
p5484
(g5
tp5485
sVtable salt often use
p5486
(g5
tp5487
sVfrac cherry cranberry
p5488
(g5
tp5489
sVslender asparagus spear
p5490
(g5
tp5491
sVasian sesame oil
p5492
(g5
tp5493
sVcarbonated
p5494
(g5
tp5495
sVpeeled horseradish
p5496
(g5
tp5497
sVoptional dressing ingredient sriracha
p5498
(g5
tp5499
sVlevel hanout spice mix
p5500
(g5
tp5501
sVplump garlic
p5502
(g5
tp5503
sVplus freshly ground black pepper
p5504
(g5
tp5505
sVgood-quality cooking chocolate cocoa solid
p5506
(g5
tp5507
sVcilantro
p5508
(g5
tp5509
sVgenerous pinch red pepper flake
p5510
(g5
tp5511
sVdiced jalapeos
p5512
(g5
tp5513
sVglac cherry
p5514
(g5
tp5515
sVkaffir lime leaf
p5516
(g5
tp5517
sVhummus more
p5518
(g5
tp5519
sVbailey irish cream
p5520
(g5
tp5521
sVprovolone cheese
p5522
(g5
tp5523
sVwhole juice lime
p5524
(g5
tp5525
sVvegan mayonnaise
p5526
(g5
tp5527
sVdry fusilli spiral pasta
p5528
(g5
tp5529
sVyoung leaf spinach
p5530
(g5
tp5531
sVcrumbled feta cheese
p5532
(g5
tp5533
sVarugula chard
p5534
(g5
tp5535
sVshelled walnut
p5536
(g5
tp5537
sVassorted olive
p5538
(g5
tp5539
sVsweetened flake coconut
p5540
(g5
tp5541
sVgenerous pinch thyme
p5542
(g5
tp5543
sVfrac cayenne powder optional
p5544
(g5
tp5545
sVtoasted shelled pumpkin seed
p5546
(g5
tp5547
sVwhole romaine leaf
p5548
(g5
tp5549
sVfreshly romano cheese
p5550
(g5
tp5551
sVarla dofino creamy havarti
p5552
(g5
tp5553
sVcubed
p5554
(g5
tp5555
sVfrac quick-cooking oat old-fashioned oat
p5556
(g5
tp5557
sVeggplant
p5558
(g5
tp5559
sVswiss gruyre cheese
p5560
(g5
tp5561
sVcrumbled feta goat cheese
p5562
(g5
tp5563
sVwhole
p5564
(g5
tp5565
sVwhole tangerine clementine
p5566
(g5
tp5567
sVthinly sliced swiss chard leaf from -ounce -gram
p5568
(g5
tp5569
sVkirsch
p5570
(g5
tp5571
sVbottle good beer
p5572
(g5
tp5573
sVbay leaf
p5574
(g5
tp5575
sVstrawberry jam clotted cream
p5576
(g5
tp5577
sVmini
p5578
(g5
tp5579
sVfrac triple sec
p5580
(g5
tp5581
sVjuniper berry
p5582
(g5
tp5583
sVseveral sprig basil
p5584
(g5
tp5585
sVseveral green olive martini olive
p5586
(g5
tp5587
sVsliced chive
p5588
(g5
tp5589
sVscallop
p5590
(g5
tp5591
sVveggie broth
p5592
(g5
tp5593
sVdelallo balsamic glaze
p5594
(g5
tp5595
sVgreen serrano chile
p5596
(g5
tp5597
sV-pound seedless watermelon
p5598
(g5
tp5599
sVbaguette about -inches
p5600
(g5
tp5601
sVfew soft goat cheese
p5602
(g5
tp5603
sVsprinkle ball
p5604
(g5
tp5605
sVlime juice lime
p5606
(g5
tp5607
sVroughly chive
p5608
(g5
tp5609
sVsalt pepper
p5610
(g5
tp5611
sVfinely pecorino romano
p5612
(g5
tp5613
sVbatch thai satay marinade
p5614
(g5
tp5615
sVbalsamic reduction regular balsamic vinegar
p5616
(g5
tp5617
sVbuttermilk
p5618
(g5
tp5619
sVbox box
p5620
(g5
tp5621
sVagave nectar honey you want sweeter filling
p5622
(g5
tp5623
sVparmesan vegetarian alternative
p5624
(g5
tp5625
sVslivered almond
p5626
(g5
tp5627
sVblueberry syrup
p5628
(g5
tp5629
sVfew courgette flower
p5630
(g5
tp5631
sVpanko
p5632
(g5
tp5633
sVfirm
p5634
(g5
tp5635
sVloosly packed basil
p5636
(g5
tp5637
sVclear honey
p5638
(g5
tp5639
sVcoarse bulgur wheat
p5640
(g5
tp5641
sVkosher sea salt himalayan salt
p5642
(g5
tp5643
sVleaf kale
p5644
(g5
tp5645
sVcream cheese
p5646
(g5
tp5647
sVchipotle powder
p5648
(g5
tp5649
sVsweetened cranberry
p5650
(g5
tp5651
sVdiced jicama
p5652
(g5
tp5653
sVdrop green food coloring
p5654
(g5
tp5655
sVtexas toast
p5656
(g5
tp5657
sVoptional spice cayenne pepper
p5658
(g5
tp5659
sVpackage shelled edamame
p5660
(g5
tp5661
sVdrop vanilla extract
p5662
(g5
tp5663
sVbrown mustard
p5664
(g5
tp5665
sVpackage taco seasoning mix homemade taco seasoning
p5666
(g5
tp5667
sVqueso fresco cotija cheese
p5668
(g5
tp5669
sVcarton chickpea
p5670
(g5
tp5671
sVgarnish with extra olive oil sprinkling herb
p5672
(g5
tp5673
sVfrac roasted red pepper
p5674
(g5
tp5675
sVjuice
p5676
(lp5677
Vzest from  lime
p5678
asVextra mint
p5679
(g5
tp5680
sVdill pickle
p5681
(g5
tp5682
sVtartar sauce
p5683
(g5
tp5684
sVpumpkin butternut squash flesh
p5685
(g5
tp5686
sVred chile pepper
p5687
(g5
tp5688
sVbengali five spice mix black sesame seed
p5689
(g5
tp5690
sVpackage cut okra
p5691
(g5
tp5692
sVloaf kosher salt black pepper
p5693
(g5
tp5694
sVhomemade taco seasoning store bought packet
p5695
(g5
tp5696
sVtin pineapple piece
p5697
(g5
tp5698
sVextra parmesan
p5699
(g5
tp5700
sVsemi-sweet chocolate
p5701
(g5
tp5702
sVmorello cherry jam
p5703
(g5
tp5704
sVfrac oregano
p5705
(g5
tp5706
sVsriracha
p5707
(g5
tp5708
sVreal
p5709
(g5
tp5710
sVlevel freshly nutmeg
p5711
(g5
tp5712
sVhoney agave nectar
p5713
(g5
tp5714
sVlevel baking powder
p5715
(g5
tp5716
sV*vanilla extract
p5717
(g5
tp5718
sVwell-rinsed quinoa
p5719
(g5
tp5720
sVfrac jalapeo pepper
p5721
(g5
tp5722
sVlillet blanc
p5723
(g5
tp5724
sVwhole marshmallow
p5725
(g5
tp5726
sVza'atar
p5727
(g5
tp5728
sVpure vanilla extract
p5729
(g5
tp5730
sVfew cinnamon
p5731
(g5
tp5732
sVdelicata squash
p5733
(g5
tp5734
sVfinely parsley
p5735
(g5
tp5736
sVdiced red pepper
p5737
(g5
tp5738
sVsante hermit
p5739
(g5
tp5740
sS'mushrooms '
p5741
(S'$ 2.164 per pound/453.6 grams'
p5742
g264
tp5743
sVwhole pepper jalapeno
p5744
(g5
tp5745
sVsteel cut oat
p5746
(g5
tp5747
sVground white pepper
p5748
(g5
tp5749
sVraspberry liqueur
p5750
(g5
tp5751
sVpiece cinnamon stick
p5752
(g5
tp5753
sVfish mix white salmon good used salmon fillet cod
p5754
(g5
tp5755
sVcherry pie filling
p5756
(g5
tp5757
sVmexican blend cheese
p5758
(g5
tp5759
sVheaped red chilli
p5760
(g5
tp5761
sVdelallo organic whole-wheat no-boil lasagna noodle
p5762
(g5
tp5763
sVfew grating nutmeg
p5764
(g5
tp5765
sVfrac chili powder
p5766
(g5
tp5767
sVstrawberry
p5768
(g5
tp5769
sVserve whipped cream
p5770
(g5
tp5771
sVdry thyme
p5772
(g5
tp5773
sVground fenugreek
p5774
(g5
tp5775
sVtamari shoyu
p5776
(g5
tp5777
sVenchilada size tortilla
p5778
(g5
tp5779
sVziti
p5780
(g5
tp5781
sVthyme leaf
p5782
(g5
tp5783
sVpeter reinhart
p5784
(g5
tp5785
sVgolden syrup
p5786
(g5
tp5787
sVbird eye chili
p5788
(g5
tp5789
sVpinch two salt
p5790
(g5
tp5791
sVmussel
p5792
(g5
tp5793
sVsmoked gouda cheese
p5794
(g5
tp5795
sVvegetable canola oil
p5796
(g5
tp5797
sVthin prosciutto
p5798
(g5
tp5799
sVground cumin
p5800
(g5
tp5801
sVsustainable white fish fillet
p5802
(g5
tp5803
sVside salmon
p5804
(g5
tp5805
sVflaky rye pie dough
p5806
(g5
tp5807
sVmixed -inch-thick sliced vegetable such japanese eggplant
p5808
(g5
tp5809
sVpinch turmeric
p5810
(g5
tp5811
sV-inch pie shell
p5812
(g5
tp5813
sVeaster sprinkle
p5814
(g5
tp5815
sVdry active yeast
p5816
(g5
tp5817
sVwhite hominy
p5818
(g5
tp5819
sVred chile paste
p5820
(g5
tp5821
sValmond breeze unsweetened almondmilk coconutmilk
p5822
(g5
tp5823
sVarla dofino creamy havarti cheese
p5824
(g5
tp5825
sVpineapple chunk
p5826
(g5
tp5827
sVplus extra virgin olive oil
p5828
(g5
tp5829
sVred pepper flake you n't want them spicy
p5830
(g5
tp5831
sVenchilada sauce
p5832
(g5
tp5833
sVredcurrant sauce
p5834
(g5
tp5835
sVflaky sea salt such maldon
p5836
(g5
tp5837
sVbottle guinness
p5838
(g5
tp5839
sVwhole natural almond
p5840
(g5
tp5841
sVrotel
p5842
(g5
tp5843
sVactive instant yeast active
p5844
(g5
tp5845
sVfinely ginger
p5846
(g5
tp5847
sVfig spread fig preserve you use plum
p5848
(g5
tp5849
sVdill flat-leaf parsley
p5850
(g5
tp5851
sVwhole chipotle pepper adobo sauce
p5852
(g5
tp5853
sVserve tarragon
p5854
(g5
tp5855
sVamp
p5856
(g5
tp5857
sVpeeled roasted chestnut
p5858
(g5
tp5859
sS'margarine'
p5860
(S'$ 2.345 per lb. '
p5861
tp5862
sVsprig coriander
p5863
(g5
tp5864
sVmixing bowl
p5865
(g5
tp5866
sVswiss gruyere with little parmesan cheese
p5867
(g5
tp5868
sVyellow mustard used coleman original english mustard
p5869
(g5
tp5870
sS'shoulder picnic'
p5871
(S'$ 1.08 per lb. '
p5872
g264
tp5873
sVpepper jack monterey jack cheese
p5874
(g5
tp5875
sVsea salt cracked black pepper
p5876
(g5
tp5877
sV-gram
p5878
(g5
tp5879
sVprepared weight pumpkin
p5880
(g5
tp5881
sVheaping organic edamame using edamame
p5882
(g5
tp5883
sS'grapefruit'
p5884
(S'$ 1.047 per lb. '
p5885
tp5886
sVcreme menthe liqueur
p5887
(g5
tp5888
sV-ounce container whole-milk ricotta
p5889
(g5
tp5890
sVfine table salt
p5891
(g5
tp5892
sVwhole bunch kale
p5893
(g5
tp5894
sVbundle scallion
p5895
(g5
tp5896
sVfluid jigger gin
p5897
(g5
tp5898
sVheaping coarse sea salt
p5899
(g5
tp5900
sVghee vegetable oil
p5901
(g5
tp5902
sVcontainer cream cheese flavored frosting such betty crocker rich creamy
p5903
(g5
tp5904
sVgruyere cheese
p5905
(g5
tp5906
sVpure coconut
p5907
(g5
tp5908
sVturkish bay leaf california
p5909
(g5
tp5910
sVground flaxseed
p5911
(g5
tp5912
sVpecan tart crust
p5913
(g5
tp5914
sV-thick ginger
p5915
(g5
tp5916
sVclam
p5917
(g5
tp5918
sVfrac strawberry
p5919
(g5
tp5920
sVseveral sauce
p5921
(g5
tp5922
sVfrac ground coriander
p5923
(g5
tp5924
sVpickling spice
p5925
(g5
tp5926
sVwhole almond
p5927
(g5
tp5928
sVmaple syrup
p5929
(g5
tp5930
sVsalted cashew
p5931
(g5
tp5932
sVthinly ribboned swiss chard leaf kale
p5933
(g5
tp5934
sVkrusteaz pancake mix
p5935
(g5
tp5936
sVbig toasted walnut
p5937
(g5
tp5938
sVgraviera gruyere
p5939
(g5
tp5940
sVred food coloring gel
p5941
(g5
tp5942
sVwhite dark chocolate
p5943
(g5
tp5944
sVmeasuring pourer
p5945
(g5
tp5946
sVlinguine pasta
p5947
(g5
tp5948
sVwhole canned chipotle pepper
p5949
(g5
tp5950
sV-ounce package instant yeast
p5951
(g5
tp5952
sVpackage baked pie shell
p5953
(g5
tp5954
sVpenne rigatoni
p5955
(g5
tp5956
sVbunch chive
p5957
(g5
tp5958
sVsea salt freshly ground black pepper
p5959
(g5
tp5960
sVsliced basil
p5961
(g5
tp5962
sVground veal
p5963
(g5
tp5964
sVwhole individually wrapped caramel square
p5965
(g5
tp5966
sVinstructionspreheat oven degree
p5967
(g5
tp5968
sVbunch spinach
p5969
(g5
tp5970
sVpinch chilli flake
p5971
(g5
tp5972
sVthinly sliced pepper optional
p5973
(g5
tp5974
sVfontina gruyere
p5975
(g5
tp5976
sVpiece peeled ginger
p5977
(g5
tp5978
sVcoarsely apricot
p5979
(g5
tp5980
sVcandle
p5981
(g5
tp5982
sVjapanese eggplant long
p5983
(g5
tp5984
sVtub double cream
p5985
(g5
tp5986
sVfinely ground white pepper
p5987
(g5
tp5988
sVsprig tarragon
p5989
(g5
tp5990
sVsargento chefstyle pepper jack cheese
p5991
(g5
tp5992
sVjerusalem artichoke
p5993
(g5
tp5994
sVcrumbled mexican cotija cheese salty
p5995
(g5
tp5996
sVstick stick
p5997
(g5
tp5998
sVbaking soda
p5999
(g5
tp6000
sVsquare semisweet chocolate
p6001
(g5
tp6002
sVfrac cardamom
p6003
(g5
tp6004
sVgreen chile enchilada sauce
p6005
(g5
tp6006
sVmore cocoa powder
p6007
(g5
tp6008
sVwhite silver tequila
p6009
(g5
tp6010
sVgenerous pinch sea salt kosher salt
p6011
(g5
tp6012
sVcoarse sea salt cracked black pepper
p6013
(g5
tp6014
sVlard
p6015
(g5
tp6016
sVtorn kale leaf whole spinach leaf
p6017
(g5
tp6018
sVbig toasted almond
p6019
(g5
tp6020
sVapricot-mango nectar
p6021
(g5
tp6022
sVbunch kale leaf spinach
p6023
(g5
tp6024
sVfrac vanilla wafer crumb
p6025
(g5
tp6026
sVrum
p6027
(g5
tp6028
sVhomemade pumpkin pie spice
p6029
(g5
tp6030
sVyellow sprinkle
p6031
(g5
tp6032
sVloosely packed spinach leaf
p6033
(g5
tp6034
sVbig sliced asparagus
p6035
(g5
tp6036
sVsunflower oil
p6037
(g5
tp6038
sVthyme thyme
p6039
(g5
tp6040
sVtin nestl carnation caramel
p6041
(g5
tp6042
sVold fashioned oat
p6043
(g5
tp6044
sVfine grain sea salt freshly ground black pepper
p6045
(g5
tp6046
sVfrac marcona almond
p6047
(g5
tp6048
sVzaatar middle eastern
p6049
(g5
tp6050
sVinstant active dry yeast
p6051
(g5
tp6052
sVraspberry
p6053
(g5
tp6054
sVspice such cinnamon nutmeg
p6055
(g5
tp6056
sVcanaola oil
p6057
(g5
tp6058
sVpinch aleppo pepper red pepper flake
p6059
(g5
tp6060
sVthick cut
p6061
(g5
tp6062
sVplenty torn basil
p6063
(g5
tp6064
sVfrac loosely packed cilantro
p6065
(g5
tp6066
sVpappardelle
p6067
(g5
tp6068
sV-ounce box brownie mix
p6069
(g5
tp6070
sVagave
p6071
(g5
tp6072
sS'beans'
p6073
(S'$ 1.333 per lb. '
p6074
tp6075
sVfew thyme sprig
p6076
(g5
tp6077
sVcalifornia chile pod
p6078
(g5
tp6079
sVsprig thyme
p6080
(g5
tp6081
sVmild-flavored honey
p6082
(g5
tp6083
sVwhole bell pepper
p6084
(g5
tp6085
sVfew twist freshly ground black pepper
p6086
(g5
tp6087
sVstrawberry with leaf
p6088
(g5
tp6089
sVsoy sauce used reduced-sodium tamari
p6090
(g5
tp6091
sVgarnish cilantro
p6092
(g5
tp6093
sVelderflower cordial
p6094
(g5
tp6095
sVmustard your favorite
p6096
(g5
tp6097
sVcontainer mascarpone cheese
p6098
(g5
tp6099
sVplain whole-milk greek-style yogurt**
p6100
(g5
tp6101
sVball stem ginger
p6102
(g5
tp6103
sVdirection line fine mesh strainer with several fold cheesecloth set your sink
p6104
(g5
tp6105
sVemmentaler gruyre cheese
p6106
(g5
tp6107
sVchili powder you n't like thing too spicy
p6108
(g5
tp6109
sVlevel ground cinnamon
p6110
(g5
tp6111
sVoz. barramundi fillet
p6112
(g5
tp6113
sVquart half-and-half cream
p6114
(g5
tp6115
sVfrac ground pepper
p6116
(g5
tp6117
sVbatch tomatillo pico gallo
p6118
(g5
tp6119
sVfrac pint heavy cream
p6120
(g5
tp6121
sVfrac vanilla salt
p6122
(g5
tp6123
sVwhole wheat elbow pasta use gluten-free pasta
p6124
(g5
tp6125
sVcilantro lime quinoa
p6126
(g5
tp6127
sS'hard candy'
p6128
(S'$ 2.435 per pound/453.6 grams'
p6129
g264
tp6130
sVheaped fennel seed
p6131
(g5
tp6132
sVcube pan-fried paneer
p6133
(g5
tp6134
sVwalnut pecan
p6135
(g5
tp6136
sVhomemade
p6137
(g5
tp6138
sVedible gold glitter
p6139
(g5
tp6140
sVsumac more
p6141
(g5
tp6142
sVfrac packed cilantro leaf
p6143
(g5
tp6144
sVheaped curry powder
p6145
(g5
tp6146
sVcontainer prepared chocolate frosting
p6147
(g5
tp6148
sVginger beer
p6149
(g5
tp6150
sVfrac soy sauce
p6151
(g5
tp6152
sVfeta cheese crumbles
p6153
(g5
tp6154
sVkirsch more juice from you want non-alcoholic
p6155
(g5
tp6156
sVplus extra-virgin olive oil
p6157
(g5
tp6158
sVcoarse kosher salt coarse sea salt
p6159
(g5
tp6160
sVbunch kale leaf
p6161
(g5
tp6162
sVfettuccine
p6163
(g5
tp6164
sVgiant white chocolate button
p6165
(g5
tp6166
sVadditional pretzel toffee
p6167
(g5
tp6168
sVpinch oregano
p6169
(g5
tp6170
sVcarton buttermilk
p6171
(g5
tp6172
sVwholemeal bun
p6173
(g5
tp6174
sVjalapeo chile pepper
p6175
(g5
tp6176
sVoptional sweetener honey
p6177
(g5
tp6178
sVfew spinach
p6179
(g5
tp6180
sVguajillo
p6181
(g5
tp6182
sVscant vegetable broth
p6183
(g5
tp6184
sVcube tasso
p6185
(g5
tp6186
sS'cheddar cheese'
p6187
(S'$ 5.167 per lb. '
p6188
tp6189
sVpecorino romano cheese
p6190
(g5
tp6191
sVpinch red pepper flake several grind black pepper
p6192
(g5
tp6193
sVapricot
p6194
(g5
tp6195
sVsherry cooking sherry
p6196
(g5
tp6197
sVgood quality semi-sweet chocolate
p6198
(g5
tp6199
sVspinach pesto
p6200
(g5
tp6201
sVcanned bamboo shoot
p6202
(g5
tp6203
sVpinch saffron thread
p6204
(g5
tp6205
sVchocolate-hazelnut spread
p6206
(g5
tp6207
sVvanilla stevia
p6208
(g5
tp6209
sVfrac white miso paste
p6210
(g5
tp6211
sVthinly sliced jalape chile
p6212
(g5
tp6213
sVdill
p6214
(g5
tp6215
sVmyerss dark rum
p6216
(g5
tp6217
sVlollipopsticks
p6218
(g5
tp6219
sVitalian-style seasoning
p6220
(g5
tp6221
sVtub ricotta
p6222
(g5
tp6223
sVlittle neck clam
p6224
(g5
tp6225
sVfine cornmeal
p6226
(g5
tp6227
sVroasted red bell pepper
p6228
(g5
tp6229
sVsheet nori seaweed
p6230
(g5
tp6231
sVgenerous dollop creme fraiche
p6232
(g5
tp6233
sVfrac fine grain sea salt
p6234
(g5
tp6235
sVpackage raspberry
p6236
(g5
tp6237
sVfrac paprika
p6238
(g5
tp6239
sVpackage softened cream cheese
p6240
(g5
tp6241
sVyour home
p6242
(g5
tp6243
sVlot elderflower blossom
p6244
(g5
tp6245
sVchipotle chili adobo sauce
p6246
(g5
tp6247
sVbest dark chocolate
p6248
(g5
tp6249
sVlemon
p6250
(lp6251
Vparsley for garnish 
p6252
asVskinless cod fillet
p6253
(g5
tp6254
sV-milliliter bottle silver
p6255
(g5
tp6256
sVbunch dill
p6257
(g5
tp6258
sVheaping yellow cornmeal
p6259
(g5
tp6260
sVfirm tofu
p6261
(g5
tp6262
sVsaffron
p6263
(g5
tp6264
sVlot seasonal vegetable
p6265
(g5
tp6266
sVcolby-monterey jack cheese
p6267
(g5
tp6268
sVbittersweet disk fves
p6269
(g5
tp6270
sVenvelope quick-rising yeast
p6271
(g5
tp6272
sVmayonnaise
p6273
(g5
tp6274
sVfixins
p6275
(g5
tp6276
sVchile rbol red pepper flake
p6277
(g5
tp6278
sVlime juice
p6279
(g5
tp6280
sVground sea salt kosher salt
p6281
(g5
tp6282
sVmustard
p6283
(g5
tp6284
sVbasil cilantro
p6285
(g5
tp6286
sVmini marshmallow
p6287
(g5
tp6288
sVdrizzle toasted sesame oil
p6289
(g5
tp6290
sVdark rye
p6291
(g5
tp6292
sVspice blend your choice
p6293
(g5
tp6294
sVquinoa
p6295
(g5
tp6296
sVbiscoff spread
p6297
(g5
tp6298
sV-ounce bottle dark beer
p6299
(g5
tp6300
sVthin asparagus spear
p6301
(g5
tp6302
sVspinach arugula
p6303
(g5
tp6304
sVpint strawberry
p6305
(g5
tp6306
sVswede
p6307
(g5
tp6308
sVpinch ground cardamom
p6309
(g5
tp6310
sVcranberry sauce chutney
p6311
(g5
tp6312
sVsingle cream
p6313
(g5
tp6314
sVdiced yellow squash
p6315
(g5
tp6316
sVserve micro green cilantro
p6317
(g5
tp6318
sVlitre quality cider
p6319
(g5
tp6320
sVgranulated yeast
p6321
(g5
tp6322
sVbasil mint
p6323
(g5
tp6324
sVdiced strawberry
p6325
(g5
tp6326
sVsoy sauce
p6327
(g5
tp6328
sVsargento monterey jack cheese
p6329
(g5
tp6330
sVbasil pesto*
p6331
(g5
tp6332
sVpacked basil leaf
p6333
(g5
tp6334
sVcosteas
p6335
(g5
tp6336
sVartichoke heart quarter
p6337
(g5
tp6338
sVseveral tabasco
p6339
(g5
tp6340
sVnonstick vegetable oil spray
p6341
(g5
tp6342
sVartichoke heart
p6343
(g5
tp6344
sVfinely diced zucchini
p6345
(g5
tp6346
sVbig pinch ground cumin
p6347
(g5
tp6348
sVcaptain morgan black spiced rum
p6349
(g5
tp6350
sVextra strawberry
p6351
(g5
tp6352
sVmango chunk
p6353
(g5
tp6354
sVitalian seasoning herbes provence
p6355
(g5
tp6356
sVdiced rhubarb
p6357
(g5
tp6358
sVunpeeled shrimp count larger
p6359
(g5
tp6360
sVgreen pepper
p6361
(g5
tp6362
sVfine sea salt table salt
p6363
(g5
tp6364
sVliter ginger ale
p6365
(g5
tp6366
sV-ounce roasted red bell pepper
p6367
(g5
tp6368
sVmild salsa
p6369
(g5
tp6370
sV-ounce bottle red food coloring
p6371
(g5
tp6372
sVchilled goat cheese
p6373
(g5
tp6374
sVsplit red lentil
p6375
(g5
tp6376
sVwhole roasted red pepper
p6377
(g5
tp6378
sVjumbo marshmallow
p6379
(g5
tp6380
sVpeppermint bark
p6381
(g5
tp6382
sV-ounce package extra-firm tofu
p6383
(g5
tp6384
sVwell-stirred tahini
p6385
(g5
tp6386
sVscant peppermint extract
p6387
(g5
tp6388
sVtriple sec
p6389
(g5
tp6390
sVfarfalle pasta
p6391
(g5
tp6392
sVpinch salt freshly ground black pepper
p6393
(g5
tp6394
sVhigh-heat cooking oil
p6395
(g5
tp6396
sVmozzarella cheese
p6397
(g5
tp6398
sVfinely spinach
p6399
(g5
tp6400
sVsoft cream cheese
p6401
(g5
tp6402
sVtabasco light pinch cayenne pepper
p6403
(g5
tp6404
sVwhole-milk ricotta
p6405
(g5
tp6406
sVingredient
p6407
(g5
tp6408
sVextra olive oil
p6409
(g5
tp6410
sVfrac raisin
p6411
(g5
tp6412
sVvanilla crme stevia
p6413
(g5
tp6414
sVpackage dalallo organic whole grain pasta
p6415
(g5
tp6416
sVlight soy sauce
p6417
(g5
tp6418
sVwasabi paste
p6419
(g5
tp6420
sVland lake cheese italian blend
p6421
(g5
tp6422
sVherbed boursin cheese
p6423
(g5
tp6424
sVpackage cheese tortellini
p6425
(g5
tp6426
sVpackage cream cheese
p6427
(g5
tp6428
sVmarinara sauce
p6429
(g5
tp6430
sVfrac ginger
p6431
(g5
tp6432
sVfrac ground chipotle chile powder
p6433
(g5
tp6434
sVketchup sriracha more
p6435
(g5
tp6436
sS'uncooked beef roasts'
p6437
(S'$ 5.479 per lb. '
p6438
tp6439
sVjack cheese
p6440
(g5
tp6441
sVcarton soured cream
p6442
(g5
tp6443
sVcoarsely garlic scapes*
p6444
(g5
tp6445
sVmelted coconut oil
p6446
(g5
tp6447
sVcurry paste
p6448
(g5
tp6449
sVchocolate wafer
p6450
(g5
tp6451
sVcherry booze clear rum
p6452
(g5
tp6453
sVasparagus
p6454
(g5
tp6455
sVlight rum
p6456
(g5
tp6457
sVgranulated suagar
p6458
(g5
tp6459
sVpackage package
p6460
(g5
tp6461
sVpepperoncinis
p6462
(g5
tp6463
sVwhite golden balsamic vinegar
p6464
(g5
tp6465
sVdevil food
p6466
(g5
tp6467
sVkorean red pepper powder
p6468
(g5
tp6469
sVsemi-sweet chocolate chunk
p6470
(g5
tp6471
sVcubed feta cheese
p6472
(g5
tp6473
sVcinnamon stick
p6474
(g5
tp6475
sVmaple flavoring
p6476
(g5
tp6477
sVsultana
p6478
(g5
tp6479
sVfrac cayenne
p6480
(g5
tp6481
sVmelted coconut oil olive oil
p6482
(g5
tp6483
sVfrac spinach
p6484
(g5
tp6485
sVdiced
p6486
(g5
tp6487
sVroughly blue diamond honey roasted cinnamon almond
p6488
(g5
tp6489
sVfromage frais
p6490
(g5
tp6491
sVhamburger bun
p6492
(g5
tp6493
sVcontainer whipped topping
p6494
(g5
tp6495
sVmarinade
p6496
(g5
tp6497
sVcourse ground yellow cornmeal
p6498
(g5
tp6499
sVseasonal vegetable
p6500
(g5
tp6501
sVground mustard freshly ground black pepper
p6502
(g5
tp6503
sV-to -ounce chickpea
p6504
(g5
tp6505
sVground red chile pepper
p6506
(g5
tp6507
sVextra pinch fine grain sea salt
p6508
(g5
tp6509
sVsprigs-worth rosemary leaf
p6510
(g5
tp6511
sS'sausage'
p6512
(S'$ 2.299 per lb. '
p6513
g264
tp6514
sS'cupcakes'
p6515
(S'$ 2.36 per pound/453.6 grams'
p6516
g264
tp6517
sVcrumbled queso fresco mild feta
p6518
(g5
tp6519
sVtarragon
p6520
(g5
tp6521
sVfrac melty cheese
p6522
(g5
tp6523
sVwhole black olive
p6524
(g5
tp6525
sS'frankfurters'
p6526
(S'$ 2.185 per lb. '
p6527
g264
tp6528
sVfarro bulgar wheat
p6529
(g5
tp6530
sVnaturally sweetened pineapple juice
p6531
(g5
tp6532
sVnopales cactus paddle
p6533
(g5
tp6534
sVquantity barney roasted rhubarb see recipe
p6535
(g5
tp6536
sVwhole wheat plain breadcrumb
p6537
(g5
tp6538
sVcajun spice mix
p6539
(g5
tp6540
sVapplesauce
p6541
(g5
tp6542
sVcajun seasoning blend such tony chachere
p6543
(g5
tp6544
sVfrac mozzarella
p6545
(g5
tp6546
sVfinely pecorino
p6547
(g5
tp6548
sV-ounce wheel brie
p6549
(g5
tp6550
sVlevel cornflour
p6551
(g5
tp6552
sVnacho
p6553
(g5
tp6554
sVsalsa pico gallo
p6555
(g5
tp6556
sV-ounce container sprout such alfalfa
p6557
(g5
tp6558
sVcocoa powder
p6559
(g5
tp6560
sVwhole green pepper
p6561
(g5
tp6562
sVfrac extra virgin olive oil
p6563
(g5
tp6564
sVbunch broccolini
p6565
(g5
tp6566
sVmarshmallow crme
p6567
(g5
tp6568
sVgnocchi
p6569
(g5
tp6570
sVraspberries
p6571
(lp6572
Vsprinkles
p6573
asVpacked cilantro leaf
p6574
(g5
tp6575
sVbunch scallion
p6576
(g5
tp6577
sVvinegar
p6578
(g5
tp6579
sVwholesome sweetener brand
p6580
(g5
tp6581
sVchunky marmalade
p6582
(g5
tp6583
sVoil-cured black olive
p6584
(g5
tp6585
sVfinely pecan
p6586
(g5
tp6587
sVserve lot pan-fried tofu cube
p6588
(g5
tp6589
sVactive dry yeast
p6590
(g5
tp6591
sVchili sauce
p6592
(g5
tp6593
sVkroger chickpea
p6594
(g5
tp6595
sVchunk ginger
p6596
(g5
tp6597
sVwhole lime
p6598
(g5
tp6599
sVchipotle powder smoked paprika
p6600
(g5
tp6601
sVmexican vanilla extract
p6602
(g5
tp6603
sVrussian dressing
p6604
(g5
tp6605
sVmexcian crema crme frache
p6606
(g5
tp6607
sVcrumbled queso fresco cotija cheese
p6608
(g5
tp6609
sVgood dill
p6610
(g5
tp6611
sVwhole rind from one wedge parmesan
p6612
(g5
tp6613
sVfrac crumbled feta
p6614
(g5
tp6615
sVcoarse salt pepper
p6616
(g5
tp6617
sViced-tea
p6618
(g5
tp6619
sVclear vanilla extract
p6620
(g5
tp6621
sVsoured cream
p6622
(g5
tp6623
sVpure pumpkin
p6624
(g5
tp6625
sVpowdered gelatin
p6626
(g5
tp6627
sVchile rbol
p6628
(g5
tp6629
sVnatural applesauce
p6630
(g5
tp6631
sVpackage tofu
p6632
(g5
tp6633
sVpackage brownie mix
p6634
(g5
tp6635
sVcube parsley
p6636
(g5
tp6637
sVjarred roasted red pepper
p6638
(g5
tp6639
sVlime
p6640
(g5
tp6641
sVcolby cheese
p6642
(g5
tp6643
sVsweetened coconut flake
p6644
(g5
tp6645
sVspicy pepper cheese
p6646
(g5
tp6647
sVfrac water*
p6648
(g5
tp6649
sVfeta goat cheese blue cheese
p6650
(g5
tp6651
sV-ounce pineapple
p6652
(g5
tp6653
sVfew sprig cilantro
p6654
(g5
tp6655
sVnatural peppermint oil
p6656
(g5
tp6657
sVtoffee bit
p6658
(g5
tp6659
sVliquid glucose
p6660
(g5
tp6661
sVassorted meat
p6662
(g5
tp6663
sVfrac good maple syrup
p6664
(g5
tp6665
sVpinch salt pepper
p6666
(g5
tp6667
sVgruyre pecorino romano cheese
p6668
(g5
tp6669
sVminute before youre ready bake them
p6670
(g5
tp6671
sVfrac quartered kalamata olive
p6672
(g5
tp6673
sVdrop drop
p6674
(g5
tp6675
sVunsweetened applesauce
p6676
(g5
tp6677
sVedamame
p6678
(g5
tp6679
sVlow-sodium vegetable broth
p6680
(g5
tp6681
sVfrac reduced fat sour cream
p6682
(g5
tp6683
sVfinely ginger about -inch nub ginger
p6684
(g5
tp6685
sVcrema sour cream
p6686
(g5
tp6687
sVrum flavoring
p6688
(g5
tp6689
sVred-pepper flake
p6690
(g5
tp6691
sVpiece texas toast
p6692
(g5
tp6693
sVdigestive biscuit
p6694
(g5
tp6695
sVcream soda
p6696
(g5
tp6697
sVanchovy paste anchovy
p6698
(g5
tp6699
sVrabbit
p6700
(g5
tp6701
sVgherkin
p6702
(g5
tp6703
sVwhisky
p6704
(g5
tp6705
sVgarlic powder
p6706
(g5
tp6707
sV-inch square sheet nori seaweed
p6708
(g5
tp6709
sS'rice'
p6710
(S'$ 0.663 per lb. '
p6711
tp6712
sVwhole basil leaf torn
p6713
(g5
tp6714
sVmixed smelly cheese such brie
p6715
(g5
tp6716
sVmixed shellfish used combination shrimp
p6717
(g5
tp6718
sVtub mascarpone
p6719
(g5
tp6720
sVred chicory
p6721
(g5
tp6722
sVoptional garnish diced avocado
p6723
(g5
tp6724
sVgood-quality green olive
p6725
(g5
tp6726
sVday old cubed bread*
p6727
(g5
tp6728
sVfrac frac cayenne pepper
p6729
(g5
tp6730
sVblind-baked pie crust deep-dish glass metal pie pan
p6731
(g5
tp6732
sVoregano parsley
p6733
(g5
tp6734
sVseasoning taco seasoning
p6735
(g5
tp6736
sVhigh quality semisweet bittersweet chocolate
p6737
(g5
tp6738
sVtap
p6739
(g5
tp6740
sVlevel ground allspice
p6741
(g5
tp6742
sVlow fat sour cream
p6743
(g5
tp6744
sVfish sauce
p6745
(g5
tp6746
sVtandoori masala
p6747
(g5
tp6748
sVyour favorite balsamic vinaigrette
p6749
(g5
tp6750
sVskin-on
p6751
(g5
tp6752
sVreserved vinegar mixture
p6753
(g5
tp6754
sVcaptain morgan original spiced rum
p6755
(g5
tp6756
sVpeeled finely horseradish
p6757
(g5
tp6758
sS'onions'
p6759
(S'$ 0.261 per lb. '
p6760
g264
tp6761
sVbit freshly shaved parmesan
p6762
(g5
tp6763
sVinstant yeast gram
p6764
(g5
tp6765
sVrose cinnamon sugar*
p6766
(g5
tp6767
sVfreshly toasted pecan
p6768
(g5
tp6769
sVpinch ground ginger
p6770
(g5
tp6771
sVpunnet blueberry
p6772
(g5
tp6773
sVrhubarb
p6774
(g5
tp6775
sVcoarsely bittersweet chocolate
p6776
(g5
tp6777
sVgenerous arugula
p6778
(g5
tp6779
sVbeet green
p6780
(g5
tp6781
sVfrac frac agave nectar
p6782
(g5
tp6783
sVhob nob
p6784
(g5
tp6785
sVground sea salt black pepper
p6786
(g5
tp6787
sVpizza crust
p6788
(g5
tp6789
sVpint mixed berry sliced strawberry
p6790
(g5
tp6791
sVfeta
p6792
(g5
tp6793
sVadobo sauce chipotle sauce
p6794
(g5
tp6795
sV-ounce sheet puff pastry
p6796
(g5
tp6797
sV-ounce package spinach
p6798
(g5
tp6799
sVpure pumpkin used libby canned pumpkin
p6800
(g5
tp6801
sVold paso stand stuff soft taco shell
p6802
(g5
tp6803
sV've had success with
p6804
(g5
tp6805
sVstock
p6806
(g5
tp6807
sVsize green enchilada sauce
p6808
(g5
tp6809
sVstick cinnamon
p6810
(g5
tp6811
sVfrac
p6812
(g5
tp6813
sVlight sour cream
p6814
(g5
tp6815
sVpack massaman curry paste
p6816
(g5
tp6817
sVnature seasoning
p6818
(g5
tp6819
sVsalemville amish blue cheese crumbles
p6820
(g5
tp6821
sVgirl scout tagalong
p6822
(g5
tp6823
sVmixed
p6824
(g5
tp6825
sVblack pepper
p6826
(g5
tp6827
sVlight eggnog
p6828
(g5
tp6829
sVrolos
p6830
(g5
tp6831
sS'cabbage'
p6832
(S'$ 0.343 per lb. '
p6833
g264
tp6834
sValuminum-free baking powder
p6835
(g5
tp6836
sVcotija cheese
p6837
(g5
tp6838
sV-inch cinnamon stick
p6839
(g5
tp6840
sVfinely cilantro leaf
p6841
(g5
tp6842
sVsplash worcestershire sauce
p6843
(g5
tp6844
sVbuttermilk*
p6845
(g5
tp6846
sVoptional topping hamburger bun
p6847
(g5
tp6848
sVpack chocolate finger biscuit
p6849
(g5
tp6850
sVlight
p6851
(g5
tp6852
sVfrac cayenne pepper optional
p6853
(g5
tp6854
sVseeded jalapeo pepper
p6855
(g5
tp6856
sVfish vegetable stock
p6857
(g5
tp6858
sVfrac blue curaao
p6859
(g5
tp6860
sVserve little dollop salted creme fraiche drizzle olive oil
p6861
(g5
tp6862
sVbuttermilk**
p6863
(g5
tp6864
sVblack beluga lentil
p6865
(g5
tp6866
sVjarred marinara pizza sauce
p6867
(g5
tp6868
sVsplash brandy
p6869
(g5
tp6870
sVcouple splash olive oil
p6871
(g5
tp6872
sVsize pumpkin puree
p6873
(g5
tp6874
sVtomatillo
p6875
(g5
tp6876
sVfrac ground nutmeg
p6877
(g5
tp6878
sVsemi-sweet chocolate bar
p6879
(g5
tp6880
sVhigh quality popcorn kernel
p6881
(g5
tp6882
sVpowdered sugar*
p6883
(g5
tp6884
sVblack quinoa
p6885
(g5
tp6886
sVsprig sweet basil thin lime wedge
p6887
(g5
tp6888
sVwhole roasted
p6889
(g5
tp6890
sVjarred red pepper oil
p6891
(g5
tp6892
sVbox instant vanilla pudding
p6893
(g5
tp6894
sVplus fine salt
p6895
(g5
tp6896
sVfew pita
p6897
(g5
tp6898
sVfreshly ground coriander
p6899
(g5
tp6900
sVkabocha squash
p6901
(g5
tp6902
sViberico chorizo
p6903
(g5
tp6904
sVmicro sprout
p6905
(g5
tp6906
sVmint leaf bunch
p6907
(g5
tp6908
sVred pepper flake this yield very spicy pickle
p6909
(g5
tp6910
sVcurd cottage cheese
p6911
(g5
tp6912
sVbuttered
p6913
(g5
tp6914
sVheavy cream use half-and-half
p6915
(g5
tp6916
sVgarnish toasted slivered almond
p6917
(g5
tp6918
sVmint sprig
p6919
(g5
tp6920
sVbasil pesto homemade store-bought
p6921
(g5
tp6922
sVherb olive oil
p6923
(g5
tp6924
sVpure sesame oil
p6925
(g5
tp6926
sVwalnut
p6927
(g5
tp6928
sVoil-packed black olive
p6929
(g5
tp6930
sVfrac ground allspice
p6931
(g5
tp6932
sVmild salsa verde
p6933
(g5
tp6934
sVricotta
p6935
(g5
tp6936
sVwhole star anise
p6937
(g5
tp6938
sVlight mayo
p6939
(g5
tp6940
sVreal maple syrup honey
p6941
(g5
tp6942
sVavocado dressing
p6943
(g5
tp6944
sS'flour'
p6945
(S'$ 0.523 per lb. '
p6946
tp6947
sVold fashioned oat use gluten-free oat
p6948
(g5
tp6949
sVunsweetened whipped cream
p6950
(g5
tp6951
sVinstant yeast
p6952
(g5
tp6953
sS'oranges'
p6954
(S'$ 1.156 per lb. '
p6955
tp6956
sVsaucepan
p6957
(g5
tp6958
sVbunch basil leaf
p6959
(g5
tp6960
sVenchilada red sauce
p6961
(g5
tp6962
sVthinly sliced scallion
p6963
(g5
tp6964
sVstout
p6965
(g5
tp6966
sVkosher coarse sea salt
p6967
(g5
tp6968
sVmedjool date
p6969
(g5
tp6970
sVcoriander
p6971
(g5
tp6972
sVred thai chile red jalape
p6973
(g5
tp6974
sVstem rosemary
p6975
(g5
tp6976
sVsoftened cream cheese dip such rondelle
p6977
(g5
tp6978
sVhalibut
p6979
(g5
tp6980
sVvanilla wafer
p6981
(g5
tp6982
sVpasilla
p6983
(g5
tp6984
sVromanesco floret
p6985
(g5
tp6986
sVoptional topping pickle
p6987
(g5
tp6988
sVtilapia fillet
p6989
(g5
tp6990
sVfrac parmesan
p6991
(g5
tp6992
sVwing sauce
p6993
(g5
tp6994
sVcurry powder containing turmeric
p6995
(g5
tp6996
sVwhite chocolate
p6997
(g5
tp6998
sVthawed jarred artichoke heart
p6999
(g5
tp7000
sVlight cream
p7001
(g5
tp7002
sVpeppermint patty
p7003
(g5
tp7004
sVsabra classic hummus
p7005
(g5
tp7006
sVanchovy fillet
p7007
(g5
tp7008
sVdijon
p7009
(g5
tp7010
sVfrac california avocado
p7011
(g5
tp7012
sVlime zest
p7013
(g5
tp7014
sVloosely packed basil leaf
p7015
(g5
tp7016
sVtaco seasoning
p7017
(g5
tp7018
sVtepid
p7019
(g5
tp7020
sVjalapeo pepper serrano pepper
p7021
(g5
tp7022
sVmincemeat
p7023
(g5
tp7024
sVpinchof salt
p7025
(g5
tp7026
sVdefrosted spinach
p7027
(g5
tp7028
sVspice island ground cinnamon
p7029
(g5
tp7030
sVspinach basil pesto
p7031
(g5
tp7032
sVdry fettuccine pasta
p7033
(g5
tp7034
sVlentil
p7035
(g5
tp7036
sVdry lentil
p7037
(g5
tp7038
sVfreshly ground black pepper
p7039
(g5
tp7040
sVwhole peeled garlic
p7041
(g5
tp7042
sVstrawberry jam your favorite jam
p7043
(g5
tp7044
sVlukewarm
p7045
(g5
tp7046
sVchocolate hazelnut spread
p7047
(g5
tp7048
sVunfiltered sunflower oil
p7049
(g5
tp7050
sV-ounce chickpea
p7051
(g5
tp7052
sVwhole english muffin split
p7053
(g5
tp7054
sVsummer squash
p7055
(g5
tp7056
sVwhole pizza crust
p7057
(g5
tp7058
sVheavy cream
p7059
(g5
tp7060
sVbarley
p7061
(g5
tp7062
sVwhole jalapeno pepper
p7063
(g5
tp7064
sVcoarsely ground whole black peppercorn
p7065
(g5
tp7066
sVbunch coriander
p7067
(g5
tp7068
sVpinch basil
p7069
(g5
tp7070
sVslotted cooking
p7071
(g5
tp7072
sVjuice one lime
p7073
(g5
tp7074
sVred
p7075
(g5
tp7076
sVred jalape fresno holland chile
p7077
(g5
tp7078
sVheaped baking powder
p7079
(g5
tp7080
sVasiago mozzarella cheese
p7081
(g5
tp7082
sVcreme fraiche sour cream
p7083
(g5
tp7084
sVwhatever else strike your fancy
p7085
(g5
tp7086
sVanother favorite way brussels sprout brussels sprout ribbon
p7087
(g5
tp7088
sVfrac asiago cheese
p7089
(g5
tp7090
sVcoarse kosh salt
p7091
(g5
tp7092
sVthai red curry paste* depending preferred spice level
p7093
(g5
tp7094
sVspinach kale
p7095
(g5
tp7096
sVscant creme fraiche sour cream
p7097
(g5
tp7098
sVmozzarella-sliced
p7099
(g5
tp7100
sVjapanese eggplant
p7101
(g5
tp7102
sVtoasted walnut
p7103
(g5
tp7104
sVcreamy dijon mustard
p7105
(g5
tp7106
sV-inch-thick baguette from baguette least
p7107
(g5
tp7108
sVpackage butterscotch instant pudding mix
p7109
(g5
tp7110
sVred chilli
p7111
(g5
tp7112
sVhungarian sweet paprika
p7113
(g5
tp7114
sVfrac pepitas
p7115
(g5
tp7116
sVfew whole
p7117
(g5
tp7118
sVpotsticker wrapper
p7119
(g5
tp7120
sVancho chile powder
p7121
(g5
tp7122
sVthai-spiced pumpkin soup
p7123
(g5
tp7124
sVgood spinach
p7125
(g5
tp7126
sVorganic
p7127
(g5
tp7128
sVplastic wrap
p7129
(g5
tp7130
sVseafood seasoning
p7131
(g5
tp7132
sVfontina cheese low-moisture
p7133
(g5
tp7134
sVfluid coconut-flavored rum
p7135
(g5
tp7136
sS'potato chips'
p7137
(S'$ 4.045 per 16 oz.'
p7138
tp7139
sVrounded salt
p7140
(g5
tp7141
sVreal maple syrup
p7142
(g5
tp7143
sVro-tel
p7144
(g5
tp7145
sVoven safe bowl
p7146
(g5
tp7147
sVstone ground grit
p7148
(g5
tp7149
sVred green chilli
p7150
(g5
tp7151
sVbulgur wheat
p7152
(g5
tp7153
sVcured spanish chorizo
p7154
(g5
tp7155
sVsplenda calorie sweetener
p7156
(g5
tp7157
sVflaked sea salt
p7158
(g5
tp7159
sVpackage savoiardi ladyfinger
p7160
(g5
tp7161
sVbuttery sweet dough emulsion
p7162
(g5
tp7163
sVvanilla almond extract
p7164
(g5
tp7165
sVchipotle pepper adobo
p7166
(g5
tp7167
sVwhite chocolate chunk
p7168
(g5
tp7169
sVlemonade concentrate
p7170
(g5
tp7171
sVblack kalamata olive
p7172
(g5
tp7173
sVfrac loosely packed parsley
p7174
(g5
tp7175
sVwhole zucchini
p7176
(g5
tp7177
sVsplash cherry liqueur
p7178
(g5
tp7179
sVdrop yellow food coloring *optional
p7180
(g5
tp7181
sVbottle ketchup chili sauce make sure kosher
p7182
(g5
tp7183
sVnon-stick cooking spray
p7184
(g5
tp7185
sVchili-garlic sauce
p7186
(g5
tp7187
sVsprinkling sesame seed
p7188
(g5
tp7189
sVdark molasses
p7190
(g5
tp7191
sVdiced green chile pepper
p7192
(g5
tp7193
sVwhole strawberry
p7194
(g5
tp7195
sVanaheim poblano chile
p7196
(g5
tp7197
sVparsnip
p7198
(g5
tp7199
sVricotta cheese use low-fat
p7200
(g5
tp7201
sS'bologna'
p7202
(S'$ 3.545 per lb. '
p7203
g264
tp7204
sVcrumbled gorgonzola goat cheese
p7205
(g5
tp7206
sVfinish good olive oil
p7207
(g5
tp7208
sV-ounce tub whipped topping
p7209
(g5
tp7210
sVtoasted pistachio
p7211
(g5
tp7212
sVartichoke heart quartered whole drained
p7213
(g5
tp7214
sVdry ranch salad dressing mix
p7215
(g5
tp7216
sVgranola more
p7217
(g5
tp7218
sVfontina cheese
p7219
(g5
tp7220
sVteaspoosn coconut extract
p7221
(g5
tp7222
sVabout heavy cream
p7223
(g5
tp7224
sVscant
p7225
(g5
tp7226
sVquart plain popped popcorn
p7227
(g5
tp7228
sVmore kale collard green
p7229
(g5
tp7230
sVfrac farro
p7231
(g5
tp7232
sVlow sodium vegetable broth
p7233
(g5
tp7234
sVphilly cream cheese
p7235
(g5
tp7236
sVpacked kale
p7237
(g5
tp7238
sVdiced red
p7239
(g5
tp7240
sVchampagne tarragon vinegar
p7241
(g5
tp7242
sVbottled purified
p7243
(g5
tp7244
sVsplash vanilla
p7245
(g5
tp7246
sVtuscan kale leaf -inch-long piece torn from stemmed leaf
p7247
(g5
tp7248
sVshallot
p7249
(g5
tp7250
sVkroger sliced chestnut
p7251
(g5
tp7252
sVgenerous pinch kosher sea salt
p7253
(g5
tp7254
sVpackage cool whip
p7255
(g5
tp7256
sV-oz package cranberry
p7257
(g5
tp7258
sVyoung spinach
p7259
(g5
tp7260
sVwhole whole-wheat tortilla
p7261
(g5
tp7262
sVfew rapeseed olive oil
p7263
(g5
tp7264
sVsalami
p7265
(g5
tp7266
sVmaple extract flavoring
p7267
(g5
tp7268
sVarrowroot starch cornstarch
p7269
(g5
tp7270
sS'ground chuck'
p7271
(S'$ 1.834 per lb. '
p7272
g264
tp7273
sVseedless watermelon
p7274
(g5
tp7275
sVdill mint
p7276
(g5
tp7277
sVplain chocolate
p7278
(g5
tp7279
sVcrumbled amaretti crust
p7280
(g5
tp7281
sV-ounce piece semisweet chocolate
p7282
(g5
tp7283
sVsherry vinegar lime juice
p7284
(g5
tp7285
sVstrawberry preserve
p7286
(g5
tp7287
sVchipotle pepper packed adobo
p7288
(g5
tp7289
sVserving shrimp
p7290
(g5
tp7291
sVfreshly ginger
p7292
(g5
tp7293
sVshrimp stock
p7294
(g5
tp7295
sVvery finely pecan
p7296
(g5
tp7297
sVdry mustard powder
p7298
(g5
tp7299
sVground coriander
p7300
(g5
tp7301
sVlowfat cottage cheese
p7302
(g5
tp7303
sVtoasted sesame seed
p7304
(g5
tp7305
sVpiece parmesan rind
p7306
(g5
tp7307
sVromaine heart
p7308
(g5
tp7309
sVstar anise
p7310
(g5
tp7311
sVgarlic chile paste
p7312
(g5
tp7313
sVcooking oil
p7314
(g5
tp7315
sS'carrots'
p7316
(S'$ 0.449 per lb. '
p7317
g264
tp7318
sVnewman own sesame ginger dressing
p7319
(g5
tp7320
sVvanilla extract cognac
p7321
(g5
tp7322
sVbatch hollandaise sauce see 'goes well with below
p7323
(g5
tp7324
sVfreshly parmesan-reggiano romano cheese
p7325
(g5
tp7326
sVmini pepper
p7327
(g5
tp7328
sVbunch basil
p7329
(g5
tp7330
sVfinely fig
p7331
(g5
tp7332
sVscone
p7333
(g5
tp7334
sVpackage vanilla instant pudding mix
p7335
(g5
tp7336
sVmild chilli
p7337
(g5
tp7338
sVheaped flaky sea salt table salt
p7339
(g5
tp7340
sVchilled heavy whipping cream
p7341
(g5
tp7342
sValeppo pepper* red pepper plus hungarian sweet paprika
p7343
(g5
tp7344
sVpure peppermint extract
p7345
(g5
tp7346
sV-ounce artichoke heart
p7347
(g5
tp7348
sVcouple dozen tostada shells*
p7349
(g5
tp7350
sVsprig flat-leaf parsley
p7351
(g5
tp7352
sVmini pretzel
p7353
(g5
tp7354
sVstrawberry yield frac sliced strawberry
p7355
(g5
tp7356
sVtiny drop almond extract vanilla extract
p7357
(g5
tp7358
sVwhole package mixed salad green
p7359
(g5
tp7360
sVpineapple ring
p7361
(g5
tp7362
sVchocolate curl
p7363
(g5
tp7364
sVlight dark molasses
p7365
(g5
tp7366
sVparmesan cheese shaving
p7367
(g5
tp7368
sVunpopped popcorn
p7369
(g5
tp7370
sVskinless smoked haddock fillet
p7371
(g5
tp7372
sVcranberry raisin
p7373
(g5
tp7374
sVcrumbled blue cheese
p7375
(g5
tp7376
sVprepared coarse-ground mustard
p7377
(g5
tp7378
sVromaine
p7379
(g5
tp7380
sVstewed
p7381
(g5
tp7382
sVthin provolone cheese
p7383
(g5
tp7384
sVfrac sour cream
p7385
(g5
tp7386
sVwhole oreo
p7387
(g5
tp7388
sVjuice from lime red chile
p7389
(g5
tp7390
sVpercent pumpkin roasted pumpkin*
p7391
(g5
tp7392
sVroasted pumpkin winter squash
p7393
(g5
tp7394
sVbunch thyme
p7395
(g5
tp7396
sVumbrian lentil lentil puy
p7397
(g5
tp7398
sVmanchego cheese
p7399
(g5
tp7400
sVavocado halved
p7401
(g5
tp7402
sV-ounce pineapple chunk
p7403
(g5
tp7404
sVheavy whipping cream not ultra-pasteurized
p7405
(g5
tp7406
sVtiny sea salt
p7407
(g5
tp7408
sVwhole sheet puffed pastry
p7409
(g5
tp7410
sVgreen jalapeno chile
p7411
(g5
tp7412
sVwhole wheat tortilla
p7413
(g5
tp7414
sVjalapeos
p7415
(g5
tp7416
sV-ounce salsa
p7417
(g5
tp7418
sVbicarbonate soda
p7419
(g5
tp7420
sVplus sugar**
p7421
(g5
tp7422
sVwhole storebought pie crust
p7423
(g5
tp7424
sVchili oil chili sauce
p7425
(g5
tp7426
sVsemisweet bittersweet chocolate not exceed
p7427
(g5
tp7428
sVfinely mint leaf
p7429
(g5
tp7430
sV-inch segment thin day-old baguette
p7431
(g5
tp7432
sVsea salt freshly milled black pepper
p7433
(g5
tp7434
sVgruyere
p7435
(g5
tp7436
sVpinch ground coriander
p7437
(g5
tp7438
sVsea salt pepper
p7439
(g5
tp7440
sVoptional rosemary
p7441
(g5
tp7442
sVwhite miso paste
p7443
(g5
tp7444
sVmozzarella ball
p7445
(g5
tp7446
sS'chicken'
p7447
(S'$ 1.527 per lb. '
p7448
tp7449
sVmint basil leaf little chilli
p7450
(g5
tp7451
sVwhole grain pancake mix
p7452
(g5
tp7453
sVready-made english mustard
p7454
(g5
tp7455
sVtop heavy cream
p7456
(g5
tp7457
sVpackage spinach
p7458
(g5
tp7459
sVnew mexico chile pod
p7460
(g5
tp7461
sVsweetcorn
p7462
(g5
tp7463
sVlightly packed cilantro leaf
p7464
(g5
tp7465
sVpinch nutmeg optional
p7466
(g5
tp7467
sVone-and-a-half inch chunk ginger
p7468
(g5
tp7469
sVroughly
p7470
(g5
tp7471
sVold fashioned rolled oat quick oat are okay
p7472
(g5
tp7473
sVsauce used tabasco more
p7474
(g5
tp7475
sVcrumbled pequin chilies red pepper flake
p7476
(g5
tp7477
sVcoarsely ground black pepper
p7478
(g5
tp7479
sVfrac ground ginger
p7480
(g5
tp7481
sVpumpkin butternut squash
p7482
(g5
tp7483
sVfrac ground turmeric
p7484
(g5
tp7485
sVnatural yoghurt
p7486
(g5
tp7487
sVthinly sliced provolone cheese
p7488
(g5
tp7489
sVregular oreo cooky
p7490
(g5
tp7491
sVfrac walnut piece
p7492
(g5
tp7493
sVshelled edamame
p7494
(g5
tp7495
sVsweet chili sauce
p7496
(g5
tp7497
sVpackage vegetarian burger crumbles
p7498
(g5
tp7499
sVswiss chard
p7500
(g5
tp7501
sVmolasses
p7502
(g5
tp7503
sVprepared dijon-style mustard
p7504
(g5
tp7505
sVsmoked salmon
p7506
(g5
tp7507
sVcajun spice
p7508
(g5
tp7509
sVjicama
p7510
(g5
tp7511
sVparsley cilantro
p7512
(g5
tp7513
sVoregano dill
p7514
(g5
tp7515
sVheaped chilli powder
p7516
(g5
tp7517
sVolive canola oil
p7518
(g5
tp7519
sVrhubarb stalk
p7520
(g5
tp7521
sVpie crust
p7522
(g5
tp7523
sVndash cinnamon stick
p7524
(g5
tp7525
sVunsulphured molasses
p7526
(g5
tp7527
sVsemisweet chocolate
p7528
(g5
tp7529
sVnutmeg
p7530
(g5
tp7531
sVgram
p7532
(g5
tp7533
sVpackage oreo cooky
p7534
(g5
tp7535
sVbottle mountain dew
p7536
(g5
tp7537
sVartichoke
p7538
(g5
tp7539
sVpackage about size firm tofu
p7540
(g5
tp7541
sVglobe artichoke
p7542
(g5
tp7543
sVbig almond
p7544
(g5
tp7545
sS'malt beverages'
p7546
(S'$ 1.449 per 16 oz. '
p7547
tp7548
sV-inch piece asparagus
p7549
(g5
tp7550
sVroasted pumpkin salad
p7551
(g5
tp7552
sVyour favorite burger fixing avocado guacamole
p7553
(g5
tp7554
sVoptional piece ferro rocher chocolate
p7555
(g5
tp7556
sVunsweetened cocoa powder
p7557
(g5
tp7558
sVrye crust
p7559
(g5
tp7560
sVkimchi
p7561
(g5
tp7562
sVgarnish sprinkling additional basil
p7563
(g5
tp7564
sVsachet fast-action yeast
p7565
(g5
tp7566
sVpacked
p7567
(g5
tp7568
sVkosher salt plus more
p7569
(g5
tp7570
sVvegetable broth one -ounce
p7571
(g5
tp7572
sVadditional vegetable
p7573
(g5
tp7574
sVfrac shallot
p7575
(g5
tp7576
sVheaped ground cardamom
p7577
(g5
tp7578
sVcream-style horseradish sauce
p7579
(g5
tp7580
sVbaking pan
p7581
(g5
tp7582
sVpackage strawberry
p7583
(g5
tp7584
sVpoblano pepper
p7585
(g5
tp7586
sVfrac roughly basil
p7587
(g5
tp7588
sVwhole wheat lasagna noodle
p7589
(g5
tp7590
sVfood mill chinois sieve
p7591
(g5
tp7592
sVmysterious thurdays
p7593
(g5
tp7594
sVbutternut
p7595
(g5
tp7596
sValmond breeze almondmilk unsweetened vanilla
p7597
(g5
tp7598
sVgreen salad
p7599
(g5
tp7600
sVgrainy mustard
p7601
(g5
tp7602
sVvegetable olive oil
p7603
(g5
tp7604
sVraisin sweetened cranberry
p7605
(g5
tp7606
sVyeast extract
p7607
(g5
tp7608
sVchili pepper
p7609
(g5
tp7610
sVfinely grana padano parmesan
p7611
(g5
tp7612
sVreduced fat pepper jack cheese
p7613
(g5
tp7614
sVcauliflower
p7615
(g5
tp7616
sVfrac madras curry powder
p7617
(g5
tp7618
sVfinely snipped chive
p7619
(g5
tp7620
sVlow-fat cream cheese
p7621
(g5
tp7622
sVseasonal salad leaf
p7623
(g5
tp7624
sVreduced fat mayonnaise
p7625
(g5
tp7626
sVhabanero
p7627
(g5
tp7628
sV-ounce pumpkin puree
p7629
(g5
tp7630
sVkosher salt freshly cracked black pepper
p7631
(g5
tp7632
sVtabasco sauce optional
p7633
(g5
tp7634
sVgood pinch saffron
p7635
(g5
tp7636
sVseveral worcestershire
p7637
(g5
tp7638
sV-ounce block feta
p7639
(g5
tp7640
sVfinely flat-leaf parsley
p7641
(g5
tp7642
sVcaramel bit
p7643
(g5
tp7644
sVred chile spiked
p7645
(g5
tp7646
sVthyme sprig
p7647
(g5
tp7648
sVdill dill
p7649
(g5
tp7650
sVkosher
p7651
(g5
tp7652
sVdark sesame oil
p7653
(g5
tp7654
sVbig pinch red pepper flake
p7655
(g5
tp7656
sVscant red curry paste
p7657
(g5
tp7658
sVsheet puff pastry -ounce package
p7659
(g5
tp7660
sVcilantro leaf
p7661
(g5
tp7662
sVyellow dye
p7663
(g5
tp7664
sVmagic shell
p7665
(g5
tp7666
sVchili flake
p7667
(g5
tp7668
sS'peanut butter'
p7669
(S'$ 2.121 per lb. '
p7670
g264
tp7671
sVpiece skinless salmon fillet
p7672
(g5
tp7673
sVpressed garlic
p7674
(g5
tp7675
sVpinch powdered saffron
p7676
(g5
tp7677
sVchili garlic sauce sriracha
p7678
(g5
tp7679
sVmix leftover cheese
p7680
(g5
tp7681
sVkosher salt pepper
p7682
(g5
tp7683
sVcumin powder
p7684
(g5
tp7685
sVpackage instant ramen preferably not fried noodle only
p7686
(g5
tp7687
sVgood-tasting vegetable broth
p7688
(g5
tp7689
sVarugula
p7690
(g5
tp7691
sVinstant vanilla pudding mix
p7692
(g5
tp7693
sVassorted food coloring
p7694
(g5
tp7695
sVundyed smoked haddock fillet
p7696
(g5
tp7697
sVcontainer sour cream
p7698
(g5
tp7699
sVshaved parmesan cheese
p7700
(g5
tp7701
sVcilantro parsley
p7702
(g5
tp7703
sVgood maple syrup
p7704
(g5
tp7705
sV-lb butternut squash
p7706
(g5
tp7707
sVwhite pepper
p7708
(g5
tp7709
sVheaped fat-free natural yoghurt
p7710
(g5
tp7711
sV-pounds skinless halibut fillet
p7712
(g5
tp7713
sVparmigiano reggiano cheese
p7714
(g5
tp7715
sVwhole-leaf spinach
p7716
(g5
tp7717
sVbig splash balsamic tarragon vinaigrette*
p7718
(g5
tp7719
sVroughly kale
p7720
(g5
tp7721
sVlouisiana-style pepper sauce
p7722
(g5
tp7723
sV-ounce package firm tofu
p7724
(g5
tp7725
sVchipotle-
p7726
(g5
tp7727
sVpearled barley pearled farro
p7728
(g5
tp7729
sVsliced black olive
p7730
(g5
tp7731
sVharissa paste chilli powder
p7732
(g5
tp7733
sV-inch whole wheat tortilla
p7734
(g5
tp7735
sVoptional pecan
p7736
(g5
tp7737
sVwhole baguette
p7738
(g5
tp7739
sVdry oregano
p7740
(g5
tp7741
sVdiced red bell pepper
p7742
(g5
tp7743
sVmaple pancake syrup
p7744
(g5
tp7745
sVtablesppon ginger
p7746
(g5
tp7747
sVmedjool date removed
p7748
(g5
tp7749
sVfinely thyme leaf
p7750
(g5
tp7751
sVtub crme frache
p7752
(g5
tp7753
sVricotta salata another salty cheese
p7754
(g5
tp7755
sVreduced-sodium vegetable broth
p7756
(g5
tp7757
sVbutternut squash frac
p7758
(g5
tp7759
sVpumpkin pure**
p7760
(g5
tp7761
sVrolled oat quick-cooking old-fashioned will work instant might get little dusty
p7762
(g5
tp7763
sVfreshly parmesan romano
p7764
(g5
tp7765
sVrunny honey
p7766
(g5
tp7767
sVfreshly parmesan gruyre cheese
p7768
(g5
tp7769
sVred yellow pepper
p7770
(g5
tp7771
sVseasoning salt
p7772
(g5
tp7773
sVquality bittersweet chocolate
p7774
(g5
tp7775
sVsplash olive oil
p7776
(g5
tp7777
sVavocado stoned
p7778
(g5
tp7779
sVbroken walnut
p7780
(g5
tp7781
sVcanned jarred artichoke heart
p7782
(g5
tp7783
sVsliced mozzarella cheese
p7784
(g5
tp7785
sVbob red mill farro
p7786
(g5
tp7787
sVfreeze-dried kaffir lime leaf
p7788
(g5
tp7789
sVplain
p7790
(g5
tp7791
sVwhite rum
p7792
(g5
tp7793
sVoriginal bisquick mix
p7794
(g5
tp7795
sVprepared whole wheat pizza dough
p7796
(g5
tp7797
sVheaping walnut
p7798
(g5
tp7799
sVvanilla paste vanilla extract
p7800
(g5
tp7801
sVfried shallot
p7802
(g5
tp7803
sVshoe sting fry
p7804
(g5
tp7805
sVkitchen string
p7806
(g5
tp7807
sVbeansprouts
p7808
(g5
tp7809
sVbutternut squash peeled
p7810
(g5
tp7811
sVgood bunch herb
p7812
(g5
tp7813
sVgranulated garlic
p7814
(g5
tp7815
sVfrac fine-grain sea salt
p7816
(g5
tp7817
sVcoconut nectar
p7818
(g5
tp7819
sVchocolate peppermint coating
p7820
(g5
tp7821
sVthinly sliced yellow bell pepper
p7822
(g5
tp7823
sValmond tart crust
p7824
(g5
tp7825
sVthai red curry paste*
p7826
(g5
tp7827
sVpearl barley
p7828
(g5
tp7829
sVsquid
p7830
(g5
tp7831
sValeppo pepper red pepper flake
p7832
(g5
tp7833
sVmonterey jack farmer cheese
p7834
(g5
tp7835
sVsheet filo pastry
p7836
(g5
tp7837
sVokonomiyaki sauce
p7838
(g5
tp7839
sVfinely jalapeo
p7840
(g5
tp7841
sVblackberry syrup
p7842
(g5
tp7843
sVcrumbled blue cheese mozzarella cheese
p7844
(g5
tp7845
sVtoasted almond
p7846
(g5
tp7847
sVyellow curry powder
p7848
(g5
tp7849
sVscant fine sea salt
p7850
(g5
tp7851
sVhulled
p7852
(g5
tp7853
sVwhipped topping
p7854
(g5
tp7855
sVparsley diced
p7856
(g5
tp7857
sVadd idea fig
p7858
(g5
tp7859
sVstick gram
p7860
(g5
tp7861
sVthai basil
p7862
(g5
tp7863
sVheaped garam masala
p7864
(g5
tp7865
sVcreamy avocado dressing
p7866
(g5
tp7867
sVsalsa verde
p7868
(g5
tp7869
sVpacked spinach leaf
p7870
(g5
tp7871
sVpinch smoked paprika
p7872
(g5
tp7873
sS'tomatoes'
p7874
(S'$ 2.6 per lb. '
p7875
tp7876
sVcod
p7877
(g5
tp7878
sVthin pancetta
p7879
(g5
tp7880
sVbig squeeze lime juice
p7881
(g5
tp7882
sVbatch swiss chard pesto
p7883
(g5
tp7884
sVbutternut squash pure
p7885
(g5
tp7886
sVgruyre
p7887
(g5
tp7888
sVflaky coarse sea salt
p7889
(g5
tp7890
sVancho chile
p7891
(g5
tp7892
sVfrac about frac strawberry
p7893
(g5
tp7894
sVshrimp used size huge
p7895
(g5
tp7896
sVmixed spice
p7897
(g5
tp7898
sVcauliflower floret
p7899
(g5
tp7900
sVpumpkin pure
p7901
(g5
tp7902
sS'broccoli'
p7903
(S'$ 1.779 per lb. '
p7904
tp7905
sVquart freshly popped popcorn*
p7906
(g5
tp7907
sVpackage dry ranch salad dressing mix
p7908
(g5
tp7909
sVicing flower yellow sprinkle
p7910
(g5
tp7911
sVsingle-malt
p7912
(g5
tp7913
sVfrac low sodium soy sauce
p7914
(g5
tp7915
sVwhite crab meat
p7916
(g5
tp7917
sVcubed honeydew melon
p7918
(g5
tp7919
sVgrand marnier
p7920
(g5
tp7921
sVmedium-dry sherry
p7922
(g5
tp7923
sVpumpkin seed
p7924
(g5
tp7925
sVwhole jarred roasted red pepper
p7926
(g5
tp7927
sVchocolate flake bar
p7928
(g5
tp7929
sVgosling black seal bermuda black rum
p7930
(g5
tp7931
sVturnip
p7932
(g5
tp7933
sVseasoned breadcrumb
p7934
(g5
tp7935
sVdriscoll raspberry
p7936
(g5
tp7937
sVcashew
p7938
(g5
tp7939
sS'bananas'
p7940
(S'$ 0.625 per lb. '
p7941
tp7942
sVrocket
p7943
(g5
tp7944
sVcubed pumpkin butternut squash
p7945
(g5
tp7946
sVold paso green chile
p7947
(g5
tp7948
sVscant freshly ginger
p7949
(g5
tp7950
sVred pepper flake red chile
p7951
(g5
tp7952
sVsoftly whipped cream
p7953
(g5
tp7954
sVpuff pastry
p7955
(g5
tp7956
sVpink salad shrimp
p7957
(g5
tp7958
sVhoney maple syrup agave nectar
p7959
(g5
tp7960
sVunsulphured blackstrap molasses
p7961
(g5
tp7962
sVfrac basil
p7963
(g5
tp7964
sVabout olive oil grapeseed oil keller canola oil
p7965
(g5
tp7966
sVinstant espresso optional
p7967
(g5
tp7968
sVred enchilada sauce
p7969
(g5
tp7970
sV-ounce container ricotta
p7971
(g5
tp7972
sVwhole shallot
p7973
(g5
tp7974
sVyellow courgette
p7975
(g5
tp7976
sVpumpkin puree*
p7977
(g5
tp7978
sVcircular pasta
p7979
(g5
tp7980
sVsweetener
p7981
(g5
tp7982
sVchipotle adobo sauce
p7983
(g5
tp7984
sVplus pure maple syrup
p7985
(g5
tp7986
sVagave nectar honey
p7987
(g5
tp7988
sVgarlic pepper
p7989
(g5
tp7990
sVtoasted nori
p7991
(g5
tp7992
sVextra lime zest
p7993
(g5
tp7994
sVghee
p7995
(g5
tp7996
sVlight olive oil
p7997
(g5
tp7998
sVfrac tequila
p7999
(g5
tp8000
sVpersimmon
p8001
(g5
tp8002
sVbarefoot merlot
p8003
(g5
tp8004
sV-ounce package active dry yeast
p8005
(g5
tp8006
sV-ounce bottle pint chilled stout
p8007
(g5
tp8008
sVinch turmeric root
p8009
(g5
tp8010
sVheaped mint
p8011
(g5
tp8012
sVgrainy brown mustard
p8013
(g5
tp8014
sVshrimp peeled deveined
p8015
(g5
tp8016
sVwhole parsnip
p8017
(g5
tp8018
sVquart canola oil
p8019
(g5
tp8020
sVgroundnut oil
p8021
(g5
tp8022
sVmariquita farm
p8023
(g5
tp8024
sVroasted jalapeno mayo
p8025
(g5
tp8026
sVdoughnut
p8027
(g5
tp8028
sVfluid grenadine syrup
p8029
(g5
tp8030
sVfreshly herb
p8031
(g5
tp8032
sVsandwich bun
p8033
(g5
tp8034
sVtagliatelle
p8035
(g5
tp8036
sVpoblano chile pepper
p8037
(g5
tp8038
sVfine sea salt
p8039
(g5
tp8040
sVdrop vanilla crme stevia
p8041
(g5
tp8042
sVwhole grain fusilli rotini pasta
p8043
(g5
tp8044
sVtoffee bar
p8045
(g5
tp8046
sVtub soft cheese
p8047
(g5
tp8048
sVparmesan romano cheese
p8049
(g5
tp8050
sVthick asparagus
p8051
(g5
tp8052
sVtightly packed cilantro leaf
p8053
(g5
tp8054
sVsprinkle sea salt
p8055
(g5
tp8056
sVpackage white almond bark
p8057
(g5
tp8058
sVpackage size cream cheese
p8059
(g5
tp8060
sV-ounce pure pumpkin
p8061
(g5
tp8062
sVvegetable stock cube
p8063
(g5
tp8064
sVwhole unbaked pie crust
p8065
(g5
tp8066
sVred green pepper
p8067
(g5
tp8068
sVcrystallized ginger
p8069
(g5
tp8070
sV-inch hamburger bun
p8071
(g5
tp8072
sVsliced scallion
p8073
(g5
tp8074
sVcrema mexicana creme fraiche
p8075
(g5
tp8076
sVcubed watermelon
p8077
(g5
tp8078
sVmascarpone cheese
p8079
(g5
tp8080
sVhalf-and-half cream
p8081
(g5
tp8082
sVregular oat
p8083
(g5
tp8084
sVmarmite
p8085
(g5
tp8086
sVgreen olive
p8087
(g5
tp8088
sVfillet tilapia
p8089
(g5
tp8090
sVmedium-large cauliflower
p8091
(g5
tp8092
sVheaping drained artichoke
p8093
(g5
tp8094
sVkosher sea salt freshly ground black pepper
p8095
(g5
tp8096
sVground white black pepper
p8097
(g5
tp8098
sVfrac veggie dairy free cream cheese
p8099
(g5
tp8100
sVextra cheese
p8101
(g5
tp8102
sVfrac whole almond
p8103
(g5
tp8104
sVjalapeno
p8105
(g5
tp8106
sVpomegranate juice
p8107
(g5
tp8108
sVdressing your choice
p8109
(g5
tp8110
sVpisco
p8111
(g5
tp8112
sVfrac vegetable broth stock
p8113
(g5
tp8114
sVcove garlic
p8115
(g5
tp8116
sVsquid ink pasta
p8117
(g5
tp8118
sVspecial equipment ramekin
p8119
(g5
tp8120
sV-ounce bottle hoegaarden white ale
p8121
(g5
tp8122
sVmaple buttercream frosting
p8123
(g5
tp8124
sVcream cheese with chive
p8125
(g5
tp8126
sVmarshmallow bit
p8127
(g5
tp8128
sVpackage white chocolate instant pudding mix
p8129
(g5
tp8130
sVpepper
p8131
(g5
tp8132
sVbunch bunch
p8133
(g5
tp8134
sVstore-bought
p8135
(g5
tp8136
sVlime juice from lime from about lime
p8137
(g5
tp8138
sVcoconut flake desiccated coconut
p8139
(g5
tp8140
sVtzatziki sauce
p8141
(g5
tp8142
sVsesame seed
p8143
(g5
tp8144
sVstonefire whole grain tandoor baked naan flatbread
p8145
(g5
tp8146
sVfrac salt
p8147
(g5
tp8148
sVparmesan shaving parmesan
p8149
(g5
tp8150
sVpasta
p8151
(g5
tp8152
sVfrac lime juice
p8153
(g5
tp8154
sVearth balance natural buttery spread olive oil
p8155
(g5
tp8156
sVqueso fresco feta cheese
p8157
(g5
tp8158
sS'short ribs'
p8159
(S'$ 2.572 per lb. '
p8160
g264
tp8161
sVpickled vegetable such okra
p8162
(g5
tp8163
sVdashi
p8164
(g5
tp8165
sVabout
p8166
(g5
tp8167
sVoptional topping slivered basil
p8168
(g5
tp8169
sVpack ready-to-eat quinoa
p8170
(g5
tp8171
sVheaped garlic
p8172
(g5
tp8173
sVdiced green bell pepper
p8174
(g5
tp8175
sVbiscuit
p8176
(g5
tp8177
sVcorn**
p8178
(g5
tp8179
sVbig arugula
p8180
(g5
tp8181
sVcocoa powder use dagoba cacao powder
p8182
(g5
tp8183
sVmeyer lemons*
p8184
(g5
tp8185
sVthai curry paste
p8186
(g5
tp8187
sVfrac finely rosemary
p8188
(g5
tp8189
sVpacket frac instant yeast
p8190
(g5
tp8191
sVchile pepper
p8192
(g5
tp8193
sVcranberry
p8194
(g5
tp8195
sVloosely packed cilantro chervil leaf
p8196
(g5
tp8197
sVgreen chile
p8198
(g5
tp8199
sVsplash pickle juice
p8200
(g5
tp8201
sVground turmeric
p8202
(g5
tp8203
sVpackage monterey jack cheese
p8204
(g5
tp8205
sVmarshmallow creme
p8206
(g5
tp8207
sVdiced green chili pepper
p8208
(g5
tp8209
sVlight mexican beer
p8210
(g5
tp8211
sVwhole avocado
p8212
(g5
tp8213
sVscotch bonnet habanero pepper
p8214
(g5
tp8215
sVcocoa
p8216
(g5
tp8217
sVblue cheese crumbles
p8218
(g5
tp8219
sVpinch kosher salt
p8220
(g5
tp8221
sVwalnut pecan piece
p8222
(g5
tp8223
sVvelveeta
p8224
(g5
tp8225
sVjalapeo pepper
p8226
(g5
tp8227
sVcouple squirt crystal sauce tabasco
p8228
(g5
tp8229
sVwhole skinless
p8230
(g5
tp8231
sVreduced-sodium soy sauce
p8232
(g5
tp8233
sVsemisweet bittersweet chocolate
p8234
(g5
tp8235
sVextra basil
p8236
(g5
tp8237
sVparmigiano reggiano
p8238
(g5
tp8239
sVgood grating nutmeg
p8240
(g5
tp8241
sVadditional
p8242
(g5
tp8243
sVpackage dry italian-style salad dressing mix
p8244
(g5
tp8245
sVbunch parsley
p8246
(g5
tp8247
sVplenty parmesan cheese
p8248
(g5
tp8249
sVmarsala
p8250
(g5
tp8251
sVheaping freshly parsley
p8252
(g5
tp8253
sVpepper sauce
p8254
(g5
tp8255
sVpecan walnut
p8256
(g5
tp8257
sVcaramel sauce
p8258
(g5
tp8259
sVdeep-fry thermometer
p8260
(g5
tp8261
sVabout cocoa powder
p8262
(g5
tp8263
sVcanola vegetable oil
p8264
(g5
tp8265
sVpackage dry alfredo sauce mix
p8266
(g5
tp8267
sVcheddar-jack cheese
p8268
(g5
tp8269
sVsplash ouzo
p8270
(g5
tp8271
sVlevel sea salt
p8272
(g5
tp8273
sVfinely garlic
p8274
(g5
tp8275
sVchocolate porter stout beer
p8276
(g5
tp8277
sVroughly parsley
p8278
(g5
tp8279
sVdry lasagna noodle requires lasagna noodle unbroken
p8280
(g5
tp8281
sVcircular pretzel
p8282
(g5
tp8283
sVpackage strawberry-flavored jello
p8284
(g5
tp8285
sVone -ounce chickpea
p8286
(g5
tp8287
sVreduced sodium tamari soy sauce
p8288
(g5
tp8289
sVunroasted pecan
p8290
(g5
tp8291
sVdesiccated coconut
p8292
(g5
tp8293
sVunrefined coconut oil
p8294
(g5
tp8295
sS'strawberries'
p8296
(S'$ 3.028 per 12 oz. '
p8297
tp8298
sVblock white marzipan
p8299
(g5
tp8300
sVground coriander seed
p8301
(g5
tp8302
sVcheese tortellini
p8303
(g5
tp8304
sVhoney light agave syrup
p8305
(g5
tp8306
sVplain popped popcorn
p8307
(g5
tp8308
sVchipotle chili powder
p8309
(g5
tp8310
sVdipping bar
p8311
(g5
tp8312
sVchocolate glaze
p8313
(g5
tp8314
sVfrac brussels sprout
p8315
(g5
tp8316
sVfrac melted coconut oil
p8317
(g5
tp8318
sVwhite distilled vinegar
p8319
(g5
tp8320
sVsoft caramel
p8321
(g5
tp8322
sVnaan chapati
p8323
(g5
tp8324
sVbunch spinach kale swiss chard
p8325
(g5
tp8326
sVcoriander seed
p8327
(g5
tp8328
sVgelatine
p8329
(g5
tp8330
sVfrac chilled goat cheese
p8331
(g5
tp8332
sVlightly packed parsley
p8333
(g5
tp8334
sV-inch cube rhubarb
p8335
(g5
tp8336
sVpepper coke
p8337
(g5
tp8338
sVbottle your favorite barbecue sauce
p8339
(g5
tp8340
sVthai red curry paste
p8341
(g5
tp8342
sVgreen thai chilli
p8343
(g5
tp8344
sVtopping bit serranos
p8345
(g5
tp8346
sVmexican crema
p8347
(g5
tp8348
sVcilantro leaf with tender stem
p8349
(g5
tp8350
sVthyme thyme leaf
p8351
(g5
tp8352
sVgrapeseed oil olive oil
p8353
(g5
tp8354
sVstale turkish flatbread naan
p8355
(g5
tp8356
sVrecipe here
p8357
(g5
tp8358
sVregular lasagna noodle not no-boil
p8359
(g5
tp8360
sVtable salt optional
p8361
(g5
tp8362
sVneon-green food coloring
p8363
(g5
tp8364
sVfew sprig epazote
p8365
(g5
tp8366
sVpenne
p8367
(g5
tp8368
sVchile paste
p8369
(g5
tp8370
sVbunch sized asparagus
p8371
(g5
tp8372
sVolive oil grapeseed oil
p8373
(g5
tp8374
sVfrac mild salsa verde
p8375
(g5
tp8376
sVcinnamon cinnamon stick
p8377
(g5
tp8378
sVmaldon salt freshly black pepper
p8379
(g5
tp8380
sVsalted pretzel
p8381
(g5
tp8382
sVpacked italian parsley leaf
p8383
(g5
tp8384
sVasparagus spear
p8385
(g5
tp8386
sVold paso mild green chile enchilada sauce
p8387
(g5
tp8388
sVgreek extra virgin olive oil
p8389
(g5
tp8390
sVtoasting muffin
p8391
(g5
tp8392
sVroom-temperature
p8393
(g5
tp8394
sVdelallo whole wheat linguine
p8395
(g5
tp8396
sVoat
p8397
(g5
tp8398
sVherb leaf such parsley
p8399
(g5
tp8400
sVbroken salted pretzel
p8401
(g5
tp8402
sVdiced green chile
p8403
(g5
tp8404
sVtruffle oil
p8405
(g5
tp8406
sVwhipping cream
p8407
(g5
tp8408
sVasian fish sauce
p8409
(g5
tp8410
sVcloved garlic
p8411
(g5
tp8412
sVfrac packed thinly sliced kale
p8413
(g5
tp8414
sVpopped popcorn
p8415
(g5
tp8416
sVsilver blanco tequila
p8417
(g5
tp8418
sVchvre goat cheese about
p8419
(g5
tp8420
sVvegetable oil grapeseed olive
p8421
(g5
tp8422
sVherb bouquet bay leaf
p8423
(g5
tp8424
sVcocktail shrimp
p8425
(g5
tp8426
sVfrac parsley leaf
p8427
(g5
tp8428
sVground allspice
p8429
(g5
tp8430
sVeasy chocolate mousse
p8431
(g5
tp8432
sVabout thread saffron
p8433
(g5
tp8434
sVbreadcrumb
p8435
(g5
tp8436
sVgorgonzola
p8437
(g5
tp8438
sVred green food coloring
p8439
(g5
tp8440
sVedible food colouring red
p8441
(g5
tp8442
sVspring green
p8443
(g5
tp8444
sVwhole yellow squash
p8445
(g5
tp8446
sVorganic berry
p8447
(g5
tp8448
sVlittle olive oil
p8449
(g5
tp8450
sVwhole grain mustard
p8451
(g5
tp8452
sVwell-crumbled bay leaf
p8453
(g5
tp8454
sVlow-fat buttermilk
p8455
(g5
tp8456
sVseedless raspberry jam
p8457
(g5
tp8458
sVwhole regular-sized zucchini
p8459
(g5
tp8460
sVmixed seed sesame
p8461
(g5
tp8462
sVchilli flake
p8463
(g5
tp8464
sVtoasted almond sliver
p8465
(g5
tp8466
sVginger juice
p8467
(g5
tp8468
sVhulled strawberry
p8469
(g5
tp8470
sValmond meal
p8471
(g5
tp8472
sVdecaf espresso
p8473
(g5
tp8474
sVquartered artichoke heart
p8475
(g5
tp8476
sVserve toasted pecan dill thyme micro green
p8477
(g5
tp8478
sVbaked
p8479
(g5
tp8480
sVoregano oregano
p8481
(g5
tp8482
s.