(lp0
(S'onions'
p1
I1954
tp2
a(Vgarlic
p3
I1819
tp4
a(Vsalt
p5
I1756
tp6
a(S'butter'
p7
I1686
tp8
a(S'sugar'
p9
I1657
tp10
a(S'eggs'
p11
I1485
tp12
a(Volive oil
p13
I1405
tp14
a(S'flour'
p15
I1397
tp16
a(S'tomatoes'
p17
I1168
tp18
a(S'milk'
p19
I1113
tp20
a.