(lp0
(S'onions'
p1
I2536
tp2
a(Vsalt
p3
I2423
tp4
a(Vgarlic
p5
I2386
tp6
a(S'sugar'
p7
I2316
tp8
a(S'butter'
p9
I2258
tp10
a(S'eggs'
p11
I2066
tp12
a(S'flour'
p13
I1893
tp14
a(Volive oil
p15
I1838
tp16
a(S'lemons'
p17
I1508
tp18
a(S'tomatoes'
p19
I1505
tp20
a.