(lp0
(S'onions'
p1
I2535
tp2
a(Vsalt
p3
I2422
tp4
a(Vgarlic
p5
I2385
tp6
a(S'sugar'
p7
I2316
tp8
a(S'butter'
p9
I2258
tp10
a(S'eggs'
p11
I2065
tp12
a(S'flour'
p13
I1892
tp14
a(Volive oil
p15
I1837
tp16
a(S'lemons'
p17
I1507
tp18
a(S'tomatoes'
p19
I1504
tp20
a.